
Discarded input sections

 .text          0x0000000000000000        0x0 C:\Users\LRNA\AppData\Local\Temp\gc9a01_demo.elf.NO9t6N.ltrans0.ltrans.o
 .data          0x0000000000000000        0x0 C:\Users\LRNA\AppData\Local\Temp\gc9a01_demo.elf.NO9t6N.ltrans0.ltrans.o
 .bss           0x0000000000000000        0x0 C:\Users\LRNA\AppData\Local\Temp\gc9a01_demo.elf.NO9t6N.ltrans0.ltrans.o
 .text.mini_pad
                0x0000000000000000       0xa0 C:\Users\LRNA\AppData\Local\Temp\gc9a01_demo.elf.NO9t6N.ltrans0.ltrans.o
 .text._puts    0x0000000000000000       0x42 C:\Users\LRNA\AppData\Local\Temp\gc9a01_demo.elf.NO9t6N.ltrans0.ltrans.o
 .text.mini_itoa.part.0
                0x0000000000000000       0x8e C:\Users\LRNA\AppData\Local\Temp\gc9a01_demo.elf.NO9t6N.ltrans0.ltrans.o
 .text.__puts_uart
                0x0000000000000000       0x1a C:\Users\LRNA\AppData\Local\Temp\gc9a01_demo.elf.NO9t6N.ltrans0.ltrans.o
 .text.mini_vpprintf
                0x0000000000000000      0x1d6 C:\Users\LRNA\AppData\Local\Temp\gc9a01_demo.elf.NO9t6N.ltrans0.ltrans.o
 .text.printf   0x0000000000000000       0x30 C:\Users\LRNA\AppData\Local\Temp\gc9a01_demo.elf.NO9t6N.ltrans0.ltrans.o
 .text.vprintf  0x0000000000000000       0x16 C:\Users\LRNA\AppData\Local\Temp\gc9a01_demo.elf.NO9t6N.ltrans0.ltrans.o
 .text.mini_vsnprintf
                0x0000000000000000       0x3a C:\Users\LRNA\AppData\Local\Temp\gc9a01_demo.elf.NO9t6N.ltrans0.ltrans.o
 .text.snprintf
                0x0000000000000000       0x20 C:\Users\LRNA\AppData\Local\Temp\gc9a01_demo.elf.NO9t6N.ltrans0.ltrans.o
 .text.sprintf  0x0000000000000000       0x2c C:\Users\LRNA\AppData\Local\Temp\gc9a01_demo.elf.NO9t6N.ltrans0.ltrans.o
 .text.memset   0x0000000000000000       0x12 C:\Users\LRNA\AppData\Local\Temp\gc9a01_demo.elf.NO9t6N.ltrans0.ltrans.o
 .text.strcpy   0x0000000000000000       0x14 C:\Users\LRNA\AppData\Local\Temp\gc9a01_demo.elf.NO9t6N.ltrans0.ltrans.o
 .text.strncpy  0x0000000000000000       0x1c C:\Users\LRNA\AppData\Local\Temp\gc9a01_demo.elf.NO9t6N.ltrans0.ltrans.o
 .text.strcmp   0x0000000000000000       0x1a C:\Users\LRNA\AppData\Local\Temp\gc9a01_demo.elf.NO9t6N.ltrans0.ltrans.o
 .text.strncmp  0x0000000000000000       0x2e C:\Users\LRNA\AppData\Local\Temp\gc9a01_demo.elf.NO9t6N.ltrans0.ltrans.o
 .text.strchr   0x0000000000000000       0x16 C:\Users\LRNA\AppData\Local\Temp\gc9a01_demo.elf.NO9t6N.ltrans0.ltrans.o
 .text.strrchr  0x0000000000000000       0x3c C:\Users\LRNA\AppData\Local\Temp\gc9a01_demo.elf.NO9t6N.ltrans0.ltrans.o
 .text.memcmp   0x0000000000000000       0x26 C:\Users\LRNA\AppData\Local\Temp\gc9a01_demo.elf.NO9t6N.ltrans0.ltrans.o
 .text.memmove  0x0000000000000000       0x5e C:\Users\LRNA\AppData\Local\Temp\gc9a01_demo.elf.NO9t6N.ltrans0.ltrans.o
 .text.memchr   0x0000000000000000       0x1c C:\Users\LRNA\AppData\Local\Temp\gc9a01_demo.elf.NO9t6N.ltrans0.ltrans.o
 .text.strnlen  0x0000000000000000       0x2a C:\Users\LRNA\AppData\Local\Temp\gc9a01_demo.elf.NO9t6N.ltrans0.ltrans.o
 .text.twoway_strstr
                0x0000000000000000      0x254 C:\Users\LRNA\AppData\Local\Temp\gc9a01_demo.elf.NO9t6N.ltrans0.ltrans.o
 .text.strstr   0x0000000000000000      0x13a C:\Users\LRNA\AppData\Local\Temp\gc9a01_demo.elf.NO9t6N.ltrans0.ltrans.o
 .text.putchar  0x0000000000000000       0x72 C:\Users\LRNA\AppData\Local\Temp\gc9a01_demo.elf.NO9t6N.ltrans0.ltrans.o
 .comment       0x0000000000000000       0x13 C:\Users\LRNA\AppData\Local\Temp\gc9a01_demo.elf.NO9t6N.ltrans0.ltrans.o
 .comment       0x0000000000000000       0x13 C:\Users\LRNA\AppData\Local\Temp\ccLwCgSb.debug.temp.o
 .comment       0x0000000000000000       0x13 C:\Users\LRNA\AppData\Local\Temp\ccKI7u4V.debug.temp.o
 .comment       0x0000000000000000       0x13 C:\Users\LRNA\AppData\Local\Temp\ccJUCJgG.debug.temp.o
 .comment       0x0000000000000000       0x13 C:\Users\LRNA\AppData\Local\Temp\ccI2vTjq.debug.temp.o

Memory Configuration

Name             Origin             Length             Attributes
FLASH            0x0000000000000000 0x000000000003c000 xr
RAM              0x0000000020000000 0x0000000000003000 xrw
*default*        0x0000000000000000 0xffffffffffffffff

Linker script and memory map

LOAD C:\Users\LRNA\AppData\Local\Temp\ccokN1kK.o
LOAD C:\Users\LRNA\AppData\Local\Temp\gc9a01_demo.elf.NO9t6N.ltrans0.ltrans.o
LOAD C:\Users\LRNA\AppData\Local\Temp\ccLwCgSb.debug.temp.o
LOAD C:\Users\LRNA\AppData\Local\Temp\ccKI7u4V.debug.temp.o
LOAD C:\Users\LRNA\AppData\Local\Temp\ccJUCJgG.debug.temp.o
LOAD C:\Users\LRNA\AppData\Local\Temp\ccI2vTjq.debug.temp.o
LOAD C:\Users\LRNA\AppData\Local\Temp\cc182eQa.o
LOAD C:\Users\LRNA\AppData\Local\Temp\ccWMq9cG.o
LOAD C:\Users\LRNA\AppData\Local\Temp\ccRSMtfg.o
LOAD c:/sysgcc/risc-v/bin/../lib/gcc/riscv64-unknown-elf/10.1.0/rv32imac/ilp32\libgcc.a

.init           0x0000000000000000       0x90
                0x0000000000000000                _sinit = .
                0x0000000000000000                . = ALIGN (0x4)
 *(SORT_NONE(.init))
 .init          0x0000000000000000       0x90 C:\Users\LRNA\AppData\Local\Temp\gc9a01_demo.elf.NO9t6N.ltrans0.ltrans.o
                0x0000000000000000                InterruptVector
                0x0000000000000090                . = ALIGN (0x4)
                0x0000000000000090                _einit = .

.highcodelalign
                0x0000000000000090        0x0
                0x0000000000000090                . = ALIGN (0x4)
                [!provide]                        PROVIDE (_highcode_lma = .)

.highcode       0x0000000020000000        0x0 load address 0x0000000000000090
                0x0000000020000000                . = ALIGN (0x4)
                [!provide]                        PROVIDE (_highcode_vma_start = .)
 *(.highcode*)
                0x0000000020000000                . = ALIGN (0x4)
                [!provide]                        PROVIDE (_highcode_vma_end = .)

.text           0x0000000000000090      0xc94
                0x0000000000000090                . = ALIGN (0x4)
 *(.text)
 *(.text.*)
 .text.PrintHex
                0x0000000000000090       0x58 C:\Users\LRNA\AppData\Local\Temp\gc9a01_demo.elf.NO9t6N.ltrans0.ltrans.o
 .text.DelaySysTick
                0x00000000000000e8       0x16 C:\Users\LRNA\AppData\Local\Temp\gc9a01_demo.elf.NO9t6N.ltrans0.ltrans.o
 .text.internal_handle_input.constprop.0
                0x00000000000000fe        0xa C:\Users\LRNA\AppData\Local\Temp\gc9a01_demo.elf.NO9t6N.ltrans0.ltrans.o
 .text._write.constprop.0
                0x0000000000000108       0xf4 C:\Users\LRNA\AppData\Local\Temp\gc9a01_demo.elf.NO9t6N.ltrans0.ltrans.o
 .text.SPI_Transfer.isra.0
                0x00000000000001fc      0x148 C:\Users\LRNA\AppData\Local\Temp\gc9a01_demo.elf.NO9t6N.ltrans0.ltrans.o
 .text.GC9A01_WriteCmd
                0x0000000000000344       0x34 C:\Users\LRNA\AppData\Local\Temp\gc9a01_demo.elf.NO9t6N.ltrans0.ltrans.o
 .text.GC9A01_WriteData
                0x0000000000000378       0x34 C:\Users\LRNA\AppData\Local\Temp\gc9a01_demo.elf.NO9t6N.ltrans0.ltrans.o
 .text.GC9A01_FillRect.part.0
                0x00000000000003ac      0x1fa C:\Users\LRNA\AppData\Local\Temp\gc9a01_demo.elf.NO9t6N.ltrans0.ltrans.o
 .text.GC9A01_FillScreen
                0x00000000000005a6       0x10 C:\Users\LRNA\AppData\Local\Temp\gc9a01_demo.elf.NO9t6N.ltrans0.ltrans.o
 .text.funPinMode.constprop.0
                0x00000000000005b6       0x16 C:\Users\LRNA\AppData\Local\Temp\gc9a01_demo.elf.NO9t6N.ltrans0.ltrans.o
 .text.handle_reset
                0x00000000000005cc       0x84 C:\Users\LRNA\AppData\Local\Temp\gc9a01_demo.elf.NO9t6N.ltrans0.ltrans.o
                0x00000000000005cc                handle_reset
 .text.vector_handler
                0x0000000000000650       0x50 C:\Users\LRNA\AppData\Local\Temp\gc9a01_demo.elf.NO9t6N.ltrans0.ltrans.o
                0x0000000000000650                EXTI2_IRQHandler
                0x0000000000000650                TIM8_TRG_COM_IRQHandler
                0x0000000000000650                TIM8_CC_IRQHandler
                0x0000000000000650                USART_WKUP_IRQHandler
                0x0000000000000650                UART8_IRQHandler
                0x0000000000000650                SPI4_IRQHandler
                0x0000000000000650                NFC_IRQHandler
                0x0000000000000650                DFSDM0_IRQHandler
                0x0000000000000650                TIM1_CC_IRQHandler
                0x0000000000000650                HardFault_Handler
                0x0000000000000650                TIM10_IRQHandler
                0x0000000000000650                GPIOB_IRQHandler
                0x0000000000000650                IPC_CH2_Handler
                0x0000000000000650                USBPD_IRQHandler
                0x0000000000000650                TIM6_IRQHandler
                0x0000000000000650                GPIOA_IRQHandler
                0x0000000000000650                SysTick_Handler
                0x0000000000000650                CAN3_RX1_IRQHandler
                0x0000000000000650                I3C_ER_IRQHandler
                0x0000000000000650                PVD_IRQHandler
                0x0000000000000650                SDIO_IRQHandler
                0x0000000000000650                TIM9_BRK_IRQHandler
                0x0000000000000650                DMA2_Channel8_IRQHandler
                0x0000000000000650                NMI_Handler
                0x0000000000000650                CAN2_RX1_IRQHandler
                0x0000000000000650                EXTI3_IRQHandler
                0x0000000000000650                HSEM_Handler
                0x0000000000000650                UART1_IRQHandler
                0x0000000000000650                USBHS_IRQHandler
                0x0000000000000650                LPTIM2_IRQHandler
                0x0000000000000650                DMA2_Channel9_IRQHandler
                0x0000000000000650                TIM10_CC_IRQHandler
                0x0000000000000650                EXTI25_16_IRQHandler
                0x0000000000000650                I2C3_ER_IRQHandler
                0x0000000000000650                USBFS_IRQHandler
                0x0000000000000650                UART0_IRQHandler
                0x0000000000000650                USART8_IRQHandler
                0x0000000000000650                EXTI0_IRQHandler
                0x0000000000000650                I2C2_EV_IRQHandler
                0x0000000000000650                TIM10_TRG_COM_IRQHandler
                0x0000000000000650                LPTIM_IRQHandler
                0x0000000000000650                CAN1_RX0_IRQHandler
                0x0000000000000650                CAN3_SCE_IRQHandler
                0x0000000000000650                CAN2_SCE_IRQHandler
                0x0000000000000650                ADC1_2_IRQHandler
                0x0000000000000650                BB_IRQHandler
                0x0000000000000650                Break_Point_Handler
                0x0000000000000650                IPC_CH0_Handler
                0x0000000000000650                TIM2_CC_IRQHandler
                0x0000000000000650                SPI1_IRQHandler
                0x0000000000000650                USART5_IRQHandler
                0x0000000000000650                TAMPER_IRQHandler
                0x0000000000000650                TMR0_IRQHandler
                0x0000000000000650                AWU_IRQHandler
                0x0000000000000650                EXTI7_0_IRQHandler
                0x0000000000000650                CAN2_RX0_IRQHandler
                0x0000000000000650                OSCWakeUp_IRQHandler
                0x0000000000000650                TIM8_UP_IRQHandler
                0x0000000000000650                Ecall_M_Mode_Handler
                0x0000000000000650                ECDC_IRQHandler
                0x0000000000000650                SDMMC_IRQHandler
                0x0000000000000650                USART7_IRQHandler
                0x0000000000000650                DMA2_Channel2_IRQHandler
                0x0000000000000650                DMA1_Channel4_IRQHandler
                0x0000000000000650                ADC1_IRQHandler
                0x0000000000000650                TIM2_BRK_IRQHandler
                0x0000000000000650                USART6_IRQHandler
                0x0000000000000650                CAN3_RX0_IRQHandler
                0x0000000000000650                HSADC_IRQHandler
                0x0000000000000650                TIM9_UP_IRQHandler
                0x0000000000000650                USART3_IRQHandler
                0x0000000000000650                RTC_IRQHandler
                0x0000000000000650                DMA1_Channel7_IRQHandler
                0x0000000000000650                LED_IRQHandler
                0x0000000000000650                CAN1_RX1_IRQHandler
                0x0000000000000650                DVP_IRQHandler
                0x0000000000000650                UART5_IRQHandler
                0x0000000000000650                USBSS_IRQHandler
                0x0000000000000650                SWPMI_IRQHandler
                0x0000000000000650                USBPDWakeUp_IRQHandler
                0x0000000000000650                EXTI15_8_IRQHandler
                0x0000000000000650                TIM4_IRQHandler
                0x0000000000000650                DMA2_Channel1_IRQHandler
                0x0000000000000650                SWPMI_WKUP_IRQHandler
                0x0000000000000650                USBPD_WKUP_IRQHandler
                0x0000000000000650                I2C1_EV_IRQHandler
                0x0000000000000650                USBSSWakeup_IRQHandler
                0x0000000000000650                UART2_IRQHandler
                0x0000000000000650                USART4_IRQHandler
                0x0000000000000650                PWMX_IRQHandler
                0x0000000000000650                DMA1_Channel6_IRQHandler
                0x0000000000000650                UART4_IRQHandler
                0x0000000000000650                DMA2_Channel4_IRQHandler
                0x0000000000000650                TIM3_IRQHandler
                0x0000000000000650                RCC_IRQHandler
                0x0000000000000650                TIM1_TRG_COM_IRQHandler
                0x0000000000000650                DMA1_Channel1_IRQHandler
                0x0000000000000650                DMA2_Channel7_IRQHandler
                0x0000000000000650                QSPI1_IRQHandler
                0x0000000000000650                EXTI15_10_IRQHandler
                0x0000000000000650                ADC_IRQHandler
                0x0000000000000650                IPC_CH3_Handler
                0x0000000000000650                DMA1_Channel8_IRQHandler
                0x0000000000000650                I3C_EV_IRQHandler
                0x0000000000000650                TMR2_IRQHandler
                0x0000000000000650                I3C_WKUP_IRQHandler
                0x0000000000000650                DefaultIRQHandler
                0x0000000000000650                TIM12_IRQHandler
                0x0000000000000650                TIM7_IRQHandler
                0x0000000000000650                CAN2_TX_IRQHandler
                0x0000000000000650                TIM5_IRQHandler
                0x0000000000000650                I2C3_EV_IRQHandler
                0x0000000000000650                USB_IRQHandler
                0x0000000000000650                EXTI9_5_IRQHandler
                0x0000000000000650                PIOC_IRQHandler
                0x0000000000000650                TIM9_IRQHandler
                0x0000000000000650                LTDC_IRQHandler
                0x0000000000000650                SAI_IRQHandler
                0x0000000000000650                SPI2_IRQHandler
                0x0000000000000650                OSC32KCal_IRQHandler
                0x0000000000000650                IPC_CH1_Handler
                0x0000000000000650                I2C_IRQHandler
                0x0000000000000650                LPTIM1_WKUP_IRQHandler
                0x0000000000000650                TIM10_BRK_IRQHandler
                0x0000000000000650                TIM9_CC_IRQHandler
                0x0000000000000650                CAN1_TX_IRQHandler
                0x0000000000000650                DMA2_Channel5_IRQHandler
                0x0000000000000650                USB2_IRQHandler
                0x0000000000000650                USBHSWakeUp_IRQHandler
                0x0000000000000650                DMA1_Channel5_IRQHandler
                0x0000000000000650                EXTI4_IRQHandler
                0x0000000000000650                USB_LP_CAN1_RX0_IRQHandler
                0x0000000000000650                QSPI2_IRQHandler
                0x0000000000000650                RNG_IRQHandler
                0x0000000000000650                USB_HP_CAN1_TX_IRQHandler
                0x0000000000000650                LLE_IRQHandler
                0x0000000000000650                CMPWakeUp_IRQHandler
                0x0000000000000650                DMA1_Channel3_IRQHandler
                0x0000000000000650                FSMC_IRQHandler
                0x0000000000000650                ETH_IRQHandler
                0x0000000000000650                TIM1_UP_IRQHandler
                0x0000000000000650                LPTIMWakeUp_IRQHandler
                0x0000000000000650                WWDG_IRQHandler
                0x0000000000000650                USBHSWakeup_IRQHandler
                0x0000000000000650                DMA2_Channel11_IRQHandler
                0x0000000000000650                WDOG_BAT_IRQHandler
                0x0000000000000650                Ecall_U_Mode_Handler
                0x0000000000000650                I2C4_EV_IRQHandler
                0x0000000000000650                CAN3_TX_IRQHandler
                0x0000000000000650                TMR3_IRQHandler
                0x0000000000000650                DMA2_Channel6_IRQHandler
                0x0000000000000650                TIM2_IRQHandler
                0x0000000000000650                SW_Handler
                0x0000000000000650                TIM1_BRK_IRQHandler
                0x0000000000000650                GPHA_IRQHandler
                0x0000000000000650                OPA_IRQHandler
                0x0000000000000650                DMA2_Channel10_IRQHandler
                0x0000000000000650                EXTI1_IRQHandler
                0x0000000000000650                SPI0_IRQHandler
                0x0000000000000650                USB2_HOST_IRQHandler
                0x0000000000000650                LPTIM2_WKUP_IRQHandler
                0x0000000000000650                RTCAlarm_IRQHandler
                0x0000000000000650                TIM11_IRQHandler
                0x0000000000000650                TIM10_UP_IRQHandler
                0x0000000000000650                TIM9_TRG_COM_IRQHandler
                0x0000000000000650                UART7_IRQHandler
                0x0000000000000650                USART2_IRQHandler
                0x0000000000000650                UART6_IRQHandler
                0x0000000000000650                UHSIF_IRQHandler
                0x0000000000000650                ETHWakeUp_IRQHandler
                0x0000000000000650                I2C2_ER_IRQHandler
                0x0000000000000650                DMA1_Channel2_IRQHandler
                0x0000000000000650                TIM8_BRK_IRQHandler
                0x0000000000000650                TIM2_TRG_IRQHandler
                0x0000000000000650                CAN1_SCE_IRQHandler
                0x0000000000000650                FLASH_IRQHandler
                0x0000000000000650                USBFSWakeUp_IRQHandler
                0x0000000000000650                USART1_IRQHandler
                0x0000000000000650                OTG_FS_IRQHandler
                0x0000000000000650                SPI3_IRQHandler
                0x0000000000000650                USBFS_WakeUp_IRQHandler
                0x0000000000000650                UART3_IRQHandler
                0x0000000000000650                I2C1_ER_IRQHandler
                0x0000000000000650                FMC_IRQHandler
                0x0000000000000650                USB2_DEVICE_IRQHandler
                0x0000000000000650                LPTIM1_IRQHandler
                0x0000000000000650                DFSDM1_IRQHandler
                0x0000000000000650                TMR1_IRQHandler
                0x0000000000000650                I2C4_ER_IRQHandler
                0x0000000000000650                SERDES_IRQHandler
                0x0000000000000650                USBSS_LINK_IRQHandler
                0x0000000000000650                USBWakeUp_IRQHandler
                0x0000000000000650                DMA2_Channel3_IRQHandler
 .text.strlen   0x00000000000006a0       0x12 C:\Users\LRNA\AppData\Local\Temp\gc9a01_demo.elf.NO9t6N.ltrans0.ltrans.o
                0x00000000000006a0                strlen
 .text.memcpy   0x00000000000006b2       0x1c C:\Users\LRNA\AppData\Local\Temp\gc9a01_demo.elf.NO9t6N.ltrans0.ltrans.o
                0x00000000000006b2                memcpy
 .text.puts     0x00000000000006ce       0x2c C:\Users\LRNA\AppData\Local\Temp\gc9a01_demo.elf.NO9t6N.ltrans0.ltrans.o
                0x00000000000006ce                puts
 .text.SystemInit
                0x00000000000006fa       0x78 C:\Users\LRNA\AppData\Local\Temp\gc9a01_demo.elf.NO9t6N.ltrans0.ltrans.o
                0x00000000000006fa                SystemInit
 .text.startup.main
                0x0000000000000772      0x56e C:\Users\LRNA\AppData\Local\Temp\gc9a01_demo.elf.NO9t6N.ltrans0.ltrans.o
                0x0000000000000772                main
 *(.rodata)
 *(.rodata*)
 *fill*         0x0000000000000ce0        0x0 
 .rodata.puts.str1.4
                0x0000000000000ce0        0x2 C:\Users\LRNA\AppData\Local\Temp\gc9a01_demo.elf.NO9t6N.ltrans0.ltrans.o
 *fill*         0x0000000000000ce2        0x2 
 .rodata.main.str1.4
                0x0000000000000ce4       0x40 C:\Users\LRNA\AppData\Local\Temp\gc9a01_demo.elf.NO9t6N.ltrans0.ltrans.o
 *(.gnu.linkonce.t.*)
                0x0000000000000d24                . = ALIGN (0x4)

.rela.dyn       0x0000000000000d24        0x0
 .rela.text._write.constprop.0
                0x0000000000000d24        0x0 C:\Users\LRNA\AppData\Local\Temp\gc9a01_demo.elf.NO9t6N.ltrans0.ltrans.o
 .rela.text.handle_reset
                0x0000000000000d24        0x0 C:\Users\LRNA\AppData\Local\Temp\gc9a01_demo.elf.NO9t6N.ltrans0.ltrans.o
 .rela.text.puts
                0x0000000000000d24        0x0 C:\Users\LRNA\AppData\Local\Temp\gc9a01_demo.elf.NO9t6N.ltrans0.ltrans.o
 .rela.text.startup.main
                0x0000000000000d24        0x0 C:\Users\LRNA\AppData\Local\Temp\gc9a01_demo.elf.NO9t6N.ltrans0.ltrans.o

.fini           0x0000000000000d24        0x0
 *(SORT_NONE(.fini))
                0x0000000000000d24                . = ALIGN (0x4)
                [!provide]                        PROVIDE (_etext = .)
                [!provide]                        PROVIDE (_eitcm = .)

.preinit_array  0x0000000000000d24        0x0
                [!provide]                        PROVIDE (__preinit_array_start = .)
 *(.preinit_array)
                [!provide]                        PROVIDE (__preinit_array_end = .)

.init_array     0x0000000000000d24        0x0
                0x0000000000000d24                PROVIDE (__init_array_start = .)
 *(SORT_BY_INIT_PRIORITY(.init_array.*) SORT_BY_INIT_PRIORITY(.ctors.*))
 *(.init_array EXCLUDE_FILE(*crtend?.o *crtend.o *crtbegin?.o *crtbegin.o) .ctors)
                0x0000000000000d24                PROVIDE (__init_array_end = .)

.fini_array     0x0000000000000d24        0x0
                [!provide]                        PROVIDE (__fini_array_start = .)
 *(SORT_BY_INIT_PRIORITY(.fini_array.*) SORT_BY_INIT_PRIORITY(.dtors.*))
 *(.fini_array EXCLUDE_FILE(*crtend?.o *crtend.o *crtbegin?.o *crtbegin.o) .dtors)
                [!provide]                        PROVIDE (__fini_array_end = .)

.ctors
 *crtbegin.o(.ctors)
 *crtbegin?.o(.ctors)
 *(EXCLUDE_FILE(*crtend?.o *crtend.o) .ctors)
 *(SORT_BY_NAME(.ctors.*))
 *(.ctors)

.dtors
 *crtbegin.o(.dtors)
 *crtbegin?.o(.dtors)
 *(EXCLUDE_FILE(*crtend?.o *crtend.o) .dtors)
 *(SORT_BY_NAME(.dtors.*))
 *(.dtors)

.dalign         0x0000000020000000        0x0 load address 0x0000000000000d24
                0x0000000020000000                . = ALIGN (0x4)
                0x0000000020000000                PROVIDE (_data_vma = .)

.dlalign        0x0000000000000d24        0x0
                0x0000000000000d24                . = ALIGN (0x4)
                0x0000000000000d24                PROVIDE (_data_lma = .)

.data           0x0000000020000000        0x0 load address 0x0000000000000d24
                0x0000000020000000                . = ALIGN (0x4)
                0x00000000200003fc                __global_pointer$ = (. + 0x3fc)
 *(.gnu.linkonce.r.*)
 *(.data .data.*)
 *(.gnu.linkonce.d.*)
                0x0000000020000000                . = ALIGN (0x8)
 *(.sdata .sdata.*)
 *(.sdata2*)
 *(.gnu.linkonce.s.*)
                0x0000000020000000                . = ALIGN (0x8)
 *(.srodata.cst16)
 *(.srodata.cst8)
 *(.srodata.cst4)
 *(.srodata.cst2)
 *(.srodata .srodata.*)
                0x0000000020000000                . = ALIGN (0x4)
                0x0000000020000000                PROVIDE (_edata = .)

.bss            0x0000000020000000        0x0 load address 0x0000000000000d24
                0x0000000020000000                . = ALIGN (0x4)
                0x0000000020000000                PROVIDE (_sbss = .)
 *(.sbss*)
 *(.gnu.linkonce.sb.*)
 *(.bss*)
 *(.gnu.linkonce.b.*)
 *(COMMON*)
                0x0000000020000000                . = ALIGN (0x4)
                0x0000000020000000                PROVIDE (_ebss = .)
                [!provide]                        PROVIDE (_end = _ebss)
                [!provide]                        PROVIDE (end = .)
                0x0000000020003000                PROVIDE (_eusrstack = (ORIGIN (RAM) + LENGTH (RAM)))

/DISCARD/
 *(.note .note.*)
 *(.eh_frame .eh_frame.*)
 *(.comment .comment.*)
 *(.ARM.extab* .gnu.linkonce.armextab.*)
 *(.ARM.exidx*)
OUTPUT(gc9a01_demo.elf elf32-littleriscv)

.riscv.attributes
                0x0000000000000000       0x2b
 .riscv.attributes
                0x0000000000000000       0x2b C:\Users\LRNA\AppData\Local\Temp\gc9a01_demo.elf.NO9t6N.ltrans0.ltrans.o

.debug_info     0x0000000000000000     0x3963
 .debug_info    0x0000000000000000     0x239e C:\Users\LRNA\AppData\Local\Temp\gc9a01_demo.elf.NO9t6N.ltrans0.ltrans.o
 .debug_info    0x000000000000239e      0xff6 C:\Users\LRNA\AppData\Local\Temp\ccLwCgSb.debug.temp.o
                0x000000000000239e                ch32fun.c.9e9f7caa
 .debug_info    0x0000000000003394       0x7e C:\Users\LRNA\AppData\Local\Temp\ccKI7u4V.debug.temp.o
                0x0000000000003394                gc9a01_demo.c.7fb21e29
 .debug_info    0x0000000000003412      0x22e C:\Users\LRNA\AppData\Local\Temp\ccJUCJgG.debug.temp.o
                0x0000000000003412                spi.c.684b4eac
 .debug_info    0x0000000000003640      0x323 C:\Users\LRNA\AppData\Local\Temp\ccI2vTjq.debug.temp.o
                0x0000000000003640                gc9a01.c.a5aa9e0c

.debug_abbrev   0x0000000000000000      0x719
 .debug_abbrev  0x0000000000000000      0x1db C:\Users\LRNA\AppData\Local\Temp\gc9a01_demo.elf.NO9t6N.ltrans0.ltrans.o
 .debug_abbrev  0x00000000000001db      0x2b7 C:\Users\LRNA\AppData\Local\Temp\ccLwCgSb.debug.temp.o
 .debug_abbrev  0x0000000000000492       0x37 C:\Users\LRNA\AppData\Local\Temp\ccKI7u4V.debug.temp.o
 .debug_abbrev  0x00000000000004c9      0x115 C:\Users\LRNA\AppData\Local\Temp\ccJUCJgG.debug.temp.o
 .debug_abbrev  0x00000000000005de      0x13b C:\Users\LRNA\AppData\Local\Temp\ccI2vTjq.debug.temp.o

.debug_loc      0x0000000000000000     0x23d2
 .debug_loc     0x0000000000000000     0x23d2 C:\Users\LRNA\AppData\Local\Temp\gc9a01_demo.elf.NO9t6N.ltrans0.ltrans.o

.debug_aranges  0x0000000000000000      0x168
 .debug_aranges
                0x0000000000000000      0x168 C:\Users\LRNA\AppData\Local\Temp\gc9a01_demo.elf.NO9t6N.ltrans0.ltrans.o

.debug_ranges   0x0000000000000000      0x3d0
 .debug_ranges  0x0000000000000000      0x3d0 C:\Users\LRNA\AppData\Local\Temp\gc9a01_demo.elf.NO9t6N.ltrans0.ltrans.o

.debug_line     0x0000000000000000     0x379b
 .debug_line    0x0000000000000000     0x343c C:\Users\LRNA\AppData\Local\Temp\gc9a01_demo.elf.NO9t6N.ltrans0.ltrans.o
 .debug_line    0x000000000000343c      0x181 C:\Users\LRNA\AppData\Local\Temp\ccLwCgSb.debug.temp.o
 .debug_line    0x00000000000035bd       0x2f C:\Users\LRNA\AppData\Local\Temp\ccKI7u4V.debug.temp.o
 .debug_line    0x00000000000035ec       0xd6 C:\Users\LRNA\AppData\Local\Temp\ccJUCJgG.debug.temp.o
 .debug_line    0x00000000000036c2       0xd9 C:\Users\LRNA\AppData\Local\Temp\ccI2vTjq.debug.temp.o

.debug_str      0x0000000000000000      0x9a8
 .debug_str     0x0000000000000000      0x16a C:\Users\LRNA\AppData\Local\Temp\gc9a01_demo.elf.NO9t6N.ltrans0.ltrans.o
                                        0x185 (size before relaxing)
 .debug_str     0x000000000000016a      0x691 C:\Users\LRNA\AppData\Local\Temp\ccLwCgSb.debug.temp.o
                                        0x774 (size before relaxing)
 .debug_str     0x00000000000007fb       0x13 C:\Users\LRNA\AppData\Local\Temp\ccKI7u4V.debug.temp.o
                                        0x174 (size before relaxing)
 .debug_str     0x000000000000080e       0xf8 C:\Users\LRNA\AppData\Local\Temp\ccJUCJgG.debug.temp.o
                                        0x300 (size before relaxing)
 .debug_str     0x0000000000000906       0xa2 C:\Users\LRNA\AppData\Local\Temp\ccI2vTjq.debug.temp.o
                                        0x35a (size before relaxing)

.debug_frame    0x0000000000000000      0x498
 .debug_frame   0x0000000000000000      0x498 C:\Users\LRNA\AppData\Local\Temp\gc9a01_demo.elf.NO9t6N.ltrans0.ltrans.o
