
ScienceOlympiadEV.elf:     file format elf32-littleriscv
ScienceOlympiadEV.elf
architecture: riscv:rv32, flags 0x00000112:
EXEC_P, HAS_SYMS, D_PAGED
start address 0x00000000

Program Header:
0x70000003 off    0x00008ca9 vaddr 0x00000000 paddr 0x00000000 align 2**0
         filesz 0x00000034 memsz 0x00000000 flags r--
    LOAD off    0x00001000 vaddr 0x00000000 paddr 0x00000000 align 2**12
         filesz 0x00000004 memsz 0x00000004 flags r-x
    LOAD off    0x00002000 vaddr 0x20000000 paddr 0x00000004 align 2**12
         filesz 0x000007b0 memsz 0x000007b0 flags r-x
    LOAD off    0x000027b4 vaddr 0x000007b4 paddr 0x000007b4 align 2**12
         filesz 0x00000624 memsz 0x00000624 flags r-x
    LOAD off    0x00000600 vaddr 0x20006600 paddr 0x20006600 align 2**12
         filesz 0x00000000 memsz 0x00000200 flags rw-

Sections:
Idx Name              Size      VMA       LMA       File off  Algn  Flags
  0 .init             00000004  00000000  00000000  00001000  2**1  CONTENTS, ALLOC, LOAD, READONLY, CODE
  1 .highcodelalign   00000000  00000004  00000004  00002dd8  2**0  CONTENTS
  2 .highcode         000007b0  20000000  00000004  00002000  2**1  CONTENTS, ALLOC, LOAD, READONLY, CODE
  3 .text             00000624  000007b4  000007b4  000027b4  2**2  CONTENTS, ALLOC, LOAD, READONLY, CODE
  4 .fini             00000000  00000dd8  00000dd8  00002dd8  2**0  CONTENTS, ALLOC, LOAD, CODE
  5 .dalign           00000000  200007b0  200007b0  00002dd8  2**0  CONTENTS
  6 .dlalign          00000000  00000dd8  00000dd8  00002dd8  2**0  CONTENTS
  7 .data             00000000  200007b0  200007b0  00002dd8  2**0  CONTENTS, ALLOC, LOAD, DATA
  8 .bss              00000000  200007b0  000007b4  00000000  2**0  ALLOC
  9 .stack            00000200  20006600  20006600  00003600  2**0  ALLOC
 10 .debug_info       00001c78  00000000  00000000  00002dd8  2**0  CONTENTS, READONLY, DEBUGGING, OCTETS
 11 .debug_abbrev     000008b3  00000000  00000000  00004a50  2**0  CONTENTS, READONLY, DEBUGGING, OCTETS
 12 .debug_loclists   00000764  00000000  00000000  00005303  2**0  CONTENTS, READONLY, DEBUGGING, OCTETS
 13 .debug_aranges    000001d8  00000000  00000000  00005a68  2**3  CONTENTS, READONLY, DEBUGGING, OCTETS
 14 .debug_rnglists   00000209  00000000  00000000  00005c40  2**0  CONTENTS, READONLY, DEBUGGING, OCTETS
 15 .debug_line       00002107  00000000  00000000  00005e49  2**0  CONTENTS, READONLY, DEBUGGING, OCTETS
 16 .debug_str        00000948  00000000  00000000  00007f50  2**0  CONTENTS, READONLY, DEBUGGING, OCTETS
 17 .debug_line_str   000003ad  00000000  00000000  00008898  2**0  CONTENTS, READONLY, DEBUGGING, OCTETS
 18 .comment          00000064  00000000  00000000  00008c45  2**0  CONTENTS, READONLY
 19 .riscv.attributes 00000034  00000000  00000000  00008ca9  2**0  CONTENTS, READONLY
 20 .debug_frame      000003e0  00000000  00000000  00008ce0  2**2  CONTENTS, READONLY, DEBUGGING, OCTETS
 21 .debug_ranges     00000028  00000000  00000000  000090c0  2**3  CONTENTS, READONLY, DEBUGGING, OCTETS
SYMBOL TABLE:
00000000 l    d  .init	00000000 .init
00000004 l    d  .highcodelalign	00000000 .highcodelalign
20000000 l    d  .highcode	00000000 .highcode
000007b4 l    d  .text	00000000 .text
00000dd8 l    d  .fini	00000000 .fini
200007b0 l    d  .dalign	00000000 .dalign
00000dd8 l    d  .dlalign	00000000 .dlalign
200007b0 l    d  .data	00000000 .data
200007b0 l    d  .bss	00000000 .bss
20006600 l    d  .stack	00000000 .stack
00000000 l    d  .debug_info	00000000 .debug_info
00000000 l    d  .debug_abbrev	00000000 .debug_abbrev
00000000 l    d  .debug_loclists	00000000 .debug_loclists
00000000 l    d  .debug_aranges	00000000 .debug_aranges
00000000 l    d  .debug_rnglists	00000000 .debug_rnglists
00000000 l    d  .debug_line	00000000 .debug_line
00000000 l    d  .debug_str	00000000 .debug_str
00000000 l    d  .debug_line_str	00000000 .debug_line_str
00000000 l    d  .comment	00000000 .comment
00000000 l    d  .riscv.attributes	00000000 .riscv.attributes
00000000 l    d  .debug_frame	00000000 .debug_frame
00000000 l    d  .debug_ranges	00000000 .debug_ranges
00000000 l    df *ABS*	00000000 startup_CH592.o
20000000 l       .highcode	00000000 _vector_base
00000000 l    df *ABS*	00000000 Sandbox.c
00000000 l    df *ABS*	00000000 CH59x_sys.c
00000000 l    df *ABS*	00000000 ISP583.c
2000039c l       .highcode	00000000 .loop18
200003aa l       .highcode	00000000 .loop29
200003b8 l       .highcode	00000000 .loop40
20000644 l       .highcode	00000000 .loop402
00000000 l    df *ABS*	00000000 oled_driver.c
00000000 l    df *ABS*	00000000 CH59x_gpio.c
00000000 l    df *ABS*	00000000 CH59x_timer0.c
200003b8 g     F .highcode	0000000e FLASH_ROM_OUT
20000fb0 g       .data	00000000 __global_pointer$
20000354 g     F .highcode	0000000e mDelayuS
200002d4  w    F .highcode	00000080 HardFault_Handler
20000090  w      .highcode	00000000 GPIOB_IRQHandler
20000090  w      .highcode	00000000 GPIOA_IRQHandler
20000090  w      .highcode	00000000 SysTick_Handler
20000090  w      .highcode	00000000 NMI_Handler
20000090  w      .highcode	00000000 UART1_IRQHandler
200007b0 g       .bss	00000000 _sbss
00000200 g       *ABS*	00000000 __stack_size
200003aa g     F .highcode	0000000e FLASH_ROM_IN
000009e2 g     F .text	00000020 OLED_WriteCmd
00000c9c g     O .text	00000127 FONT5x7
20000090  w      .highcode	00000000 UART0_IRQHandler
00000956 g     F .text	0000008c I2C_SendByte
00000a90 g     F .text	000000b0 OLED_Init
00000004 g       .init	00000000 _einit
20000090  w      .highcode	00000000 BB_IRQHandler
20000446 g     F .highcode	0000036a FLASH_EEPROM_CMD
20000090  w      .highcode	00000000 Break_Point_Handler
00000bd4 g     F .text	0000009e GPIOB_ModeCfg
20000092 g     F .highcode	0000002a TMR0_IRQHandler
2000038a g     F .highcode	00000012 FLASH_ROM_BEG
20000362 g     F .highcode	00000028 mDelaymS
20000090  w      .highcode	00000000 Ecall_M_Mode_Handler
20006600 g       .stack	00000000 _heap_end
200003c6 g     F .highcode	00000048 FLASH_ROM_ADDR
20000090  w      .highcode	00000000 RTC_IRQHandler
200007b0 g       .bss	00000000 _ebss
00000b40 g     F .text	00000062 OLED_ShowChar
2000040e g     F .highcode	00000038 FLASH_ROM_WAIT
00000ba2 g     F .text	00000032 OLED_ShowString
20000090  w      .highcode	00000000 UART2_IRQHandler
20000090  w      .highcode	00000000 PWMX_IRQHandler
00000000 g       .init	00000000 _start
20000090  w      .highcode	00000000 ADC_IRQHandler
20000000 g       .highcode	00000000 _highcode_vma_start
20000090  w      .highcode	00000000 TMR2_IRQHandler
200007b0 g       .data	00000000 _data_vma
200000bc g     F .highcode	000001c0 SetSysClock
20000090  w      .highcode	00000000 USB_IRQHandler
00000a02 g     F .text	00000022 OLED_WriteData
00000a4c g     F .text	00000044 OLED_Clear
20000090  w      .highcode	00000000 I2C_IRQHandler
0000086a g     F .text	0000005c main
00000a24 g     F .text	00000028 OLED_SetCursor
00000004 g       .highcodelalign	00000000 _highcode_lma
20000090  w      .highcode	00000000 LLE_IRQHandler
00000000 g       .init	00000000 _sinit
000008e4 g     F .text	0000003e I2C_Start
20000090  w      .highcode	00000000 WDOG_BAT_IRQHandler
20000090  w      .highcode	00000000 Ecall_U_Mode_Handler
20000090  w      .highcode	00000000 TMR3_IRQHandler
20006800 g       .stack	00000000 _eusrstack
20000090  w      .highcode	00000000 SW_Handler
200007b0 g       .data	00000000 _edata
20000090  w      .highcode	00000000 SPI0_IRQHandler
200007b0 g       .bss	00000000 _end
200007b0 g       .highcode	00000000 _highcode_vma_end
00000dd8 g       .dlalign	00000000 _data_lma
000008c6 g     F .text	0000001e I2C_Delay
000007b4  w      .text	00000000 handle_reset
00000922 g     F .text	00000034 I2C_Stop
20000090  w      .highcode	00000000 UART3_IRQHandler
2000039c g     F .highcode	0000000e FLASH_ROM_END
20000090  w      .highcode	00000000 TMR1_IRQHandler
2000027c g     F .highcode	00000058 SYS_ResetExecute
00000c72 g     F .text	00000014 TMR0_TimerInit



Disassembly of section .init:

00000000 <_sinit>:
_start():
c:\Users\LRNA\Desktop\code\mounriver\ch592\ScienceOlympiadEV\obj/../Startup/startup_CH592.S:17

	.section	.init,"ax",@progbits
	.global	_start
	.align	1
_start:
	j	handle_reset
   0:	7b40006f          	j	7b4 <handle_reset>

Disassembly of section .highcode:

20000000 <_highcode_vma_start>:
	...
_vector_base():
20000008:	0090                	addi	a2,sp,64
2000000a:	2000                	.2byte	0x2000
2000000c:	02d4                	addi	a3,sp,324
2000000e:	2000                	.2byte	0x2000
20000010:	bda9                	j	1ffffe6a <_data_lma+0x1ffff092>
20000012:	f5f9                	bnez	a1,1fffffe0 <_data_lma+0x1ffff208>
20000014:	0090                	addi	a2,sp,64
20000016:	2000                	.2byte	0x2000
	...
20000020:	0090                	addi	a2,sp,64
20000022:	2000                	.2byte	0x2000
20000024:	0090                	addi	a2,sp,64
20000026:	2000                	.2byte	0x2000
	...
20000030:	0090                	addi	a2,sp,64
20000032:	2000                	.2byte	0x2000
20000034:	0000                	unimp
20000036:	0000                	unimp
20000038:	0090                	addi	a2,sp,64
2000003a:	2000                	.2byte	0x2000
2000003c:	0000                	unimp
2000003e:	0000                	unimp
20000040:	0092                	slli	ra,ra,0x4
20000042:	2000                	.2byte	0x2000
20000044:	0090                	addi	a2,sp,64
20000046:	2000                	.2byte	0x2000
20000048:	0090                	addi	a2,sp,64
2000004a:	2000                	.2byte	0x2000
2000004c:	0090                	addi	a2,sp,64
2000004e:	2000                	.2byte	0x2000
20000050:	0090                	addi	a2,sp,64
20000052:	2000                	.2byte	0x2000
20000054:	0090                	addi	a2,sp,64
20000056:	2000                	.2byte	0x2000
20000058:	0090                	addi	a2,sp,64
2000005a:	2000                	.2byte	0x2000
2000005c:	0000                	unimp
2000005e:	0000                	unimp
20000060:	0090                	addi	a2,sp,64
20000062:	2000                	.2byte	0x2000
20000064:	0090                	addi	a2,sp,64
20000066:	2000                	.2byte	0x2000
20000068:	0090                	addi	a2,sp,64
2000006a:	2000                	.2byte	0x2000
2000006c:	0090                	addi	a2,sp,64
2000006e:	2000                	.2byte	0x2000
20000070:	0090                	addi	a2,sp,64
20000072:	2000                	.2byte	0x2000
20000074:	0090                	addi	a2,sp,64
20000076:	2000                	.2byte	0x2000
20000078:	0090                	addi	a2,sp,64
2000007a:	2000                	.2byte	0x2000
2000007c:	0090                	addi	a2,sp,64
2000007e:	2000                	.2byte	0x2000
20000080:	0090                	addi	a2,sp,64
20000082:	2000                	.2byte	0x2000
20000084:	0090                	addi	a2,sp,64
20000086:	2000                	.2byte	0x2000
20000088:	0090                	addi	a2,sp,64
2000008a:	2000                	.2byte	0x2000
2000008c:	0090                	addi	a2,sp,64
2000008e:	2000                	.2byte	0x2000

20000090 <ADC_IRQHandler>:
GPIOB_IRQHandler():
c:\Users\LRNA\Desktop\code\mounriver\ch592\ScienceOlympiadEV\obj/../Startup/startup_CH592.S:119
TMR3_IRQHandler:
UART2_IRQHandler:
UART3_IRQHandler:
WDOG_BAT_IRQHandler: 
1:  
	j 1b
20000090:	a001                	j	20000090 <ADC_IRQHandler>

20000092 <TMR0_IRQHandler>:
TMR0_IRQHandler():
c:\Users\LRNA\Desktop\code\mounriver\ch592\ScienceOlympiadEV\obj/../User/Sandbox.c:12

__INTERRUPT
__HIGH_CODE
void TMR0_IRQHandler(void)
{
    if(TMR0_GetITFlag(TMR0_3_IT_CYC_END))
20000092:	40002737          	lui	a4,0x40002
20000096:	00674783          	lbu	a5,6(a4) # 40002006 <_eusrstack+0x1fffb806>
2000009a:	8b85                	andi	a5,a5,1
2000009c:	cf91                	beqz	a5,200000b8 <TMR0_IRQHandler+0x26>
c:\Users\LRNA\Desktop\code\mounriver\ch592\ScienceOlympiadEV\obj/../User/Sandbox.c:14
    {
        TMR0_ClearITFlag(TMR0_3_IT_CYC_END);
2000009e:	4785                	li	a5,1
200000a0:	00f70323          	sb	a5,6(a4)
c:\Users\LRNA\Desktop\code\mounriver\ch592\ScienceOlympiadEV\obj/../User/Sandbox.c:15
        OLED_ShowString(0,2, "Timer");
200000a4:	e0001617          	auipc	a2,0xe0001
200000a8:	be460613          	addi	a2,a2,-1052 # c88 <TMR0_TimerInit+0x16>
200000ac:	4589                	li	a1,2
200000ae:	4501                	li	a0,0
200000b0:	e0001097          	auipc	ra,0xe0001
200000b4:	af2080e7          	jalr	-1294(ra) # ba2 <OLED_ShowString>
c:\Users\LRNA\Desktop\code\mounriver\ch592\ScienceOlympiadEV\obj/../User/Sandbox.c:17
    }
}
200000b8:	30200073          	mret

200000bc <SetSysClock>:
SetSysClock():
c:\Users\LRNA\Desktop\code\mounriver\ch592\ScienceOlympiadEV\obj/../StdPeriphDriver/CH59x_sys.c:28
 */
__HIGH_CODE
void SetSysClock(SYS_CLKTypeDef sc)
{
    uint8_t chip_type=0;
    if(((*(uint32_t*)ROM_CFG_VERISON)&0xFF) == DEF_CHIP_ID_CH592A)
200000bc:	0007f7b7          	lui	a5,0x7f
200000c0:	4b94                	lw	a3,16(a5)
c:\Users\LRNA\Desktop\code\mounriver\ch592\ScienceOlympiadEV\obj/../StdPeriphDriver/CH59x_sys.c:26
{
200000c2:	1101                	addi	sp,sp,-32
__risc_v_disable_irq():
c:/Users/LRNA/Desktop/code/mounriver/ch592/ScienceOlympiadEV/RVMSIS/core_riscv.h:130
 */
__attribute__((always_inline)) RV_STATIC_INLINE uint32_t __risc_v_disable_irq(void)
{
  uint32_t result;

  __asm volatile ("csrrc %0, 0x800, %1" : \
200000c4:	08800713          	li	a4,136
200000c8:	800737f3          	csrrc	a5,0x800,a4
c:/Users/LRNA/Desktop/code/mounriver/ch592/ScienceOlympiadEV/RVMSIS/core_riscv.h:132
          "=r"(result): "r"(0x88) : "memory");
  return result & 0x88;
200000cc:	0887f793          	andi	a5,a5,136
SetSysClock():
c:\Users\LRNA\Desktop\code\mounriver\ch592\ScienceOlympiadEV\obj/../StdPeriphDriver/CH59x_sys.c:32
    {
        chip_type = 1;
    }
    sys_safe_access_enable();
200000d0:	c23e                	sw	a5,4(sp)
200000d2:	0000100f          	fence.i
200000d6:	400017b7          	lui	a5,0x40001
200000da:	05700813          	li	a6,87
200000de:	05078023          	sb	a6,64(a5) # 40001040 <_eusrstack+0x1fffa840>
200000e2:	fa800593          	li	a1,-88
200000e6:	04b78023          	sb	a1,64(a5)
200000ea:	0000100f          	fence.i
c:\Users\LRNA\Desktop\code\mounriver\ch592\ScienceOlympiadEV\obj/../StdPeriphDriver/CH59x_sys.c:33
    R8_PLL_CONFIG &= ~(1 << 5); //
200000ee:	04b7c603          	lbu	a2,75(a5)
200000f2:	0df67613          	andi	a2,a2,223
200000f6:	04c785a3          	sb	a2,75(a5)
c:\Users\LRNA\Desktop\code\mounriver\ch592\ScienceOlympiadEV\obj/../StdPeriphDriver/CH59x_sys.c:34
    sys_safe_access_disable();
200000fa:	04078023          	sb	zero,64(a5)
200000fe:	4612                	lw	a2,4(sp)
__risc_v_enable_irq():
c:/Users/LRNA/Desktop/code/mounriver/ch592/ScienceOlympiadEV/RVMSIS/core_riscv.h:114
  __asm volatile ("csrrs %0, 0x800, %1" : \
20000100:	80062673          	csrrs	a2,0x800,a2
SetSysClock():
c:\Users\LRNA\Desktop\code\mounriver\ch592\ScienceOlympiadEV\obj/../StdPeriphDriver/CH59x_sys.c:34
20000104:	0000100f          	fence.i
c:\Users\LRNA\Desktop\code\mounriver\ch592\ScienceOlympiadEV\obj/../StdPeriphDriver/CH59x_sys.c:35
    if(sc & 0x20)  // HSE div
20000108:	02057613          	andi	a2,a0,32
2000010c:	ce55                	beqz	a2,200001c8 <SetSysClock+0x10c>
__risc_v_disable_irq():
c:/Users/LRNA/Desktop/code/mounriver/ch592/ScienceOlympiadEV/RVMSIS/core_riscv.h:130
  __asm volatile ("csrrc %0, 0x800, %1" : \
2000010e:	800736f3          	csrrc	a3,0x800,a4
c:/Users/LRNA/Desktop/code/mounriver/ch592/ScienceOlympiadEV/RVMSIS/core_riscv.h:132
  return result & 0x88;
20000112:	0886f693          	andi	a3,a3,136
SetSysClock():
c:\Users\LRNA\Desktop\code\mounriver\ch592\ScienceOlympiadEV\obj/../StdPeriphDriver/CH59x_sys.c:37
    {
        sys_safe_access_enable();
20000116:	c436                	sw	a3,8(sp)
20000118:	0000100f          	fence.i
2000011c:	05078023          	sb	a6,64(a5)
20000120:	04b78023          	sb	a1,64(a5)
20000124:	0000100f          	fence.i
c:\Users\LRNA\Desktop\code\mounriver\ch592\ScienceOlympiadEV\obj/../StdPeriphDriver/CH59x_sys.c:38
        R32_CLK_SYS_CFG = (0 << 6) | (sc & 0x1f) | RB_TX_32M_PWR_EN | RB_PLL_PWR_EN;
20000128:	001406b7          	lui	a3,0x140
2000012c:	897d                	andi	a0,a0,31
2000012e:	8d55                	or	a0,a0,a3
20000130:	c788                	sw	a0,8(a5)
c:\Users\LRNA\Desktop\code\mounriver\ch592\ScienceOlympiadEV\obj/../StdPeriphDriver/CH59x_sys.c:39
        __nop();
20000132:	0001                	nop
c:\Users\LRNA\Desktop\code\mounriver\ch592\ScienceOlympiadEV\obj/../StdPeriphDriver/CH59x_sys.c:40
        __nop();
20000134:	0001                	nop
c:\Users\LRNA\Desktop\code\mounriver\ch592\ScienceOlympiadEV\obj/../StdPeriphDriver/CH59x_sys.c:41
        __nop();
20000136:	0001                	nop
c:\Users\LRNA\Desktop\code\mounriver\ch592\ScienceOlympiadEV\obj/../StdPeriphDriver/CH59x_sys.c:42
        __nop();
20000138:	0001                	nop
c:\Users\LRNA\Desktop\code\mounriver\ch592\ScienceOlympiadEV\obj/../StdPeriphDriver/CH59x_sys.c:43
        sys_safe_access_disable();
2000013a:	04078023          	sb	zero,64(a5)
2000013e:	46a2                	lw	a3,8(sp)
__risc_v_enable_irq():
c:/Users/LRNA/Desktop/code/mounriver/ch592/ScienceOlympiadEV/RVMSIS/core_riscv.h:114
  __asm volatile ("csrrs %0, 0x800, %1" : \
20000140:	8006a6f3          	csrrs	a3,0x800,a3
SetSysClock():
c:\Users\LRNA\Desktop\code\mounriver\ch592\ScienceOlympiadEV\obj/../StdPeriphDriver/CH59x_sys.c:43
20000144:	0000100f          	fence.i
__risc_v_disable_irq():
c:/Users/LRNA/Desktop/code/mounriver/ch592/ScienceOlympiadEV/RVMSIS/core_riscv.h:130
  __asm volatile ("csrrc %0, 0x800, %1" : \
20000148:	80073773          	csrrc	a4,0x800,a4
c:/Users/LRNA/Desktop/code/mounriver/ch592/ScienceOlympiadEV/RVMSIS/core_riscv.h:132
  return result & 0x88;
2000014c:	08877713          	andi	a4,a4,136
SetSysClock():
c:\Users\LRNA\Desktop\code\mounriver\ch592\ScienceOlympiadEV\obj/../StdPeriphDriver/CH59x_sys.c:44
        sys_safe_access_enable();
20000150:	c63a                	sw	a4,12(sp)
20000152:	0000100f          	fence.i
20000156:	05078023          	sb	a6,64(a5)
2000015a:	04b78023          	sb	a1,64(a5)
2000015e:	0000100f          	fence.i
c:\Users\LRNA\Desktop\code\mounriver\ch592\ScienceOlympiadEV\obj/../StdPeriphDriver/CH59x_sys.c:45
        SAFEOPERATE;
20000162:	0000100f          	fence.i
c:\Users\LRNA\Desktop\code\mounriver\ch592\ScienceOlympiadEV\obj/../StdPeriphDriver/CH59x_sys.c:46
        R8_FLASH_CFG = 0X51;
20000166:	40002737          	lui	a4,0x40002
2000016a:	05100693          	li	a3,81
2000016e:	80d703a3          	sb	a3,-2041(a4) # 40001807 <_eusrstack+0x1fffb007>
c:\Users\LRNA\Desktop\code\mounriver\ch592\ScienceOlympiadEV\obj/../StdPeriphDriver/CH59x_sys.c:47
        sys_safe_access_disable();
20000172:	04078023          	sb	zero,64(a5)
20000176:	47b2                	lw	a5,12(sp)
__risc_v_enable_irq():
c:/Users/LRNA/Desktop/code/mounriver/ch592/ScienceOlympiadEV/RVMSIS/core_riscv.h:114
  __asm volatile ("csrrs %0, 0x800, %1" : \
20000178:	8007a7f3          	csrrs	a5,0x800,a5
SetSysClock():
c:\Users\LRNA\Desktop\code\mounriver\ch592\ScienceOlympiadEV\obj/../StdPeriphDriver/CH59x_sys.c:74
    }
    else
    {
        sys_safe_access_enable();
        R32_CLK_SYS_CFG |= RB_CLK_SYS_MOD;
        sys_safe_access_disable();
2000017c:	0000100f          	fence.i
__risc_v_disable_irq():
c:/Users/LRNA/Desktop/code/mounriver/ch592/ScienceOlympiadEV/RVMSIS/core_riscv.h:130
  __asm volatile ("csrrc %0, 0x800, %1" : \
20000180:	08800793          	li	a5,136
20000184:	8007b7f3          	csrrc	a5,0x800,a5
c:/Users/LRNA/Desktop/code/mounriver/ch592/ScienceOlympiadEV/RVMSIS/core_riscv.h:132
  return result & 0x88;
20000188:	0887f793          	andi	a5,a5,136
SetSysClock():
c:\Users\LRNA\Desktop\code\mounriver\ch592\ScienceOlympiadEV\obj/../StdPeriphDriver/CH59x_sys.c:77
    }
    //更改FLASH clk的驱动能力
    sys_safe_access_enable();
2000018c:	ce3e                	sw	a5,28(sp)
2000018e:	0000100f          	fence.i
20000192:	400017b7          	lui	a5,0x40001
20000196:	05700713          	li	a4,87
2000019a:	04e78023          	sb	a4,64(a5) # 40001040 <_eusrstack+0x1fffa840>
2000019e:	fa800713          	li	a4,-88
200001a2:	04e78023          	sb	a4,64(a5)
200001a6:	0000100f          	fence.i
c:\Users\LRNA\Desktop\code\mounriver\ch592\ScienceOlympiadEV\obj/../StdPeriphDriver/CH59x_sys.c:78
    R8_PLL_CONFIG |= 1 << 7;
200001aa:	04b7c703          	lbu	a4,75(a5)
200001ae:	08076713          	ori	a4,a4,128
200001b2:	04e785a3          	sb	a4,75(a5)
c:\Users\LRNA\Desktop\code\mounriver\ch592\ScienceOlympiadEV\obj/../StdPeriphDriver/CH59x_sys.c:79
    sys_safe_access_disable();
200001b6:	04078023          	sb	zero,64(a5)
200001ba:	47f2                	lw	a5,28(sp)
__risc_v_enable_irq():
c:/Users/LRNA/Desktop/code/mounriver/ch592/ScienceOlympiadEV/RVMSIS/core_riscv.h:114
  __asm volatile ("csrrs %0, 0x800, %1" : \
200001bc:	8007a7f3          	csrrs	a5,0x800,a5
SetSysClock():
c:\Users\LRNA\Desktop\code\mounriver\ch592\ScienceOlympiadEV\obj/../StdPeriphDriver/CH59x_sys.c:79
200001c0:	0000100f          	fence.i
c:\Users\LRNA\Desktop\code\mounriver\ch592\ScienceOlympiadEV\obj/../StdPeriphDriver/CH59x_sys.c:80
}
200001c4:	6105                	addi	sp,sp,32
200001c6:	8082                	ret
c:\Users\LRNA\Desktop\code\mounriver\ch592\ScienceOlympiadEV\obj/../StdPeriphDriver/CH59x_sys.c:50
    else if(sc & 0x40) // PLL div
200001c8:	04057613          	andi	a2,a0,64
200001cc:	c259                	beqz	a2,20000252 <SetSysClock+0x196>
__risc_v_disable_irq():
c:/Users/LRNA/Desktop/code/mounriver/ch592/ScienceOlympiadEV/RVMSIS/core_riscv.h:130
  __asm volatile ("csrrc %0, 0x800, %1" : \
200001ce:	80073673          	csrrc	a2,0x800,a4
c:/Users/LRNA/Desktop/code/mounriver/ch592/ScienceOlympiadEV/RVMSIS/core_riscv.h:132
  return result & 0x88;
200001d2:	08867613          	andi	a2,a2,136
SetSysClock():
c:\Users\LRNA\Desktop\code\mounriver\ch592\ScienceOlympiadEV\obj/../StdPeriphDriver/CH59x_sys.c:52
        sys_safe_access_enable();
200001d6:	c832                	sw	a2,16(sp)
200001d8:	0000100f          	fence.i
200001dc:	05078023          	sb	a6,64(a5)
200001e0:	04b78023          	sb	a1,64(a5)
200001e4:	0000100f          	fence.i
c:\Users\LRNA\Desktop\code\mounriver\ch592\ScienceOlympiadEV\obj/../StdPeriphDriver/CH59x_sys.c:53
        R32_CLK_SYS_CFG = (1 << 6) | (sc & 0x1f) | RB_TX_32M_PWR_EN | RB_PLL_PWR_EN;
200001e8:	00140637          	lui	a2,0x140
200001ec:	04060613          	addi	a2,a2,64 # 140040 <_data_lma+0x13f268>
200001f0:	897d                	andi	a0,a0,31
200001f2:	8d51                	or	a0,a0,a2
200001f4:	c788                	sw	a0,8(a5)
c:\Users\LRNA\Desktop\code\mounriver\ch592\ScienceOlympiadEV\obj/../StdPeriphDriver/CH59x_sys.c:54
        __nop();
200001f6:	0001                	nop
c:\Users\LRNA\Desktop\code\mounriver\ch592\ScienceOlympiadEV\obj/../StdPeriphDriver/CH59x_sys.c:55
        __nop();
200001f8:	0001                	nop
c:\Users\LRNA\Desktop\code\mounriver\ch592\ScienceOlympiadEV\obj/../StdPeriphDriver/CH59x_sys.c:56
        __nop();
200001fa:	0001                	nop
c:\Users\LRNA\Desktop\code\mounriver\ch592\ScienceOlympiadEV\obj/../StdPeriphDriver/CH59x_sys.c:57
        __nop();
200001fc:	0001                	nop
c:\Users\LRNA\Desktop\code\mounriver\ch592\ScienceOlympiadEV\obj/../StdPeriphDriver/CH59x_sys.c:58
        sys_safe_access_disable();
200001fe:	04078023          	sb	zero,64(a5)
20000202:	4642                	lw	a2,16(sp)
__risc_v_enable_irq():
c:/Users/LRNA/Desktop/code/mounriver/ch592/ScienceOlympiadEV/RVMSIS/core_riscv.h:114
  __asm volatile ("csrrs %0, 0x800, %1" : \
20000204:	80062673          	csrrs	a2,0x800,a2
SetSysClock():
c:\Users\LRNA\Desktop\code\mounriver\ch592\ScienceOlympiadEV\obj/../StdPeriphDriver/CH59x_sys.c:58
20000208:	0000100f          	fence.i
__risc_v_disable_irq():
c:/Users/LRNA/Desktop/code/mounriver/ch592/ScienceOlympiadEV/RVMSIS/core_riscv.h:130
  __asm volatile ("csrrc %0, 0x800, %1" : \
2000020c:	80073773          	csrrc	a4,0x800,a4
c:/Users/LRNA/Desktop/code/mounriver/ch592/ScienceOlympiadEV/RVMSIS/core_riscv.h:132
  return result & 0x88;
20000210:	08877713          	andi	a4,a4,136
SetSysClock():
c:\Users\LRNA\Desktop\code\mounriver\ch592\ScienceOlympiadEV\obj/../StdPeriphDriver/CH59x_sys.c:59
        sys_safe_access_enable();
20000214:	ca3a                	sw	a4,20(sp)
20000216:	0000100f          	fence.i
2000021a:	05078023          	sb	a6,64(a5)
2000021e:	04b78023          	sb	a1,64(a5)
20000222:	0000100f          	fence.i
c:\Users\LRNA\Desktop\code\mounriver\ch592\ScienceOlympiadEV\obj/../StdPeriphDriver/CH59x_sys.c:60
        if(chip_type)
20000226:	4725                	li	a4,9
c:\Users\LRNA\Desktop\code\mounriver\ch592\ScienceOlympiadEV\obj/../StdPeriphDriver/CH59x_sys.c:28
    if(((*(uint32_t*)ROM_CFG_VERISON)&0xFF) == DEF_CHIP_ID_CH592A)
20000228:	0ff6f793          	zext.b	a5,a3
c:\Users\LRNA\Desktop\code\mounriver\ch592\ScienceOlympiadEV\obj/../StdPeriphDriver/CH59x_sys.c:60
        if(chip_type)
2000022c:	00e79e63          	bne	a5,a4,20000248 <SetSysClock+0x18c>
c:\Users\LRNA\Desktop\code\mounriver\ch592\ScienceOlympiadEV\obj/../StdPeriphDriver/CH59x_sys.c:62
            R8_FLASH_CFG = 0X53;
20000230:	400027b7          	lui	a5,0x40002
20000234:	05300713          	li	a4,83
c:\Users\LRNA\Desktop\code\mounriver\ch592\ScienceOlympiadEV\obj/../StdPeriphDriver/CH59x_sys.c:66
            R8_FLASH_CFG = 0X52;
20000238:	80e783a3          	sb	a4,-2041(a5) # 40001807 <_eusrstack+0x1fffb007>
c:\Users\LRNA\Desktop\code\mounriver\ch592\ScienceOlympiadEV\obj/../StdPeriphDriver/CH59x_sys.c:68
        sys_safe_access_disable();
2000023c:	400017b7          	lui	a5,0x40001
20000240:	04078023          	sb	zero,64(a5) # 40001040 <_eusrstack+0x1fffa840>
20000244:	47d2                	lw	a5,20(sp)
__risc_v_enable_irq():
c:/Users/LRNA/Desktop/code/mounriver/ch592/ScienceOlympiadEV/RVMSIS/core_riscv.h:114
  __asm volatile ("csrrs %0, 0x800, %1" : \
20000246:	bf0d                	j	20000178 <SetSysClock+0xbc>
SetSysClock():
c:\Users\LRNA\Desktop\code\mounriver\ch592\ScienceOlympiadEV\obj/../StdPeriphDriver/CH59x_sys.c:66
            R8_FLASH_CFG = 0X52;
20000248:	400027b7          	lui	a5,0x40002
2000024c:	05200713          	li	a4,82
20000250:	b7e5                	j	20000238 <SetSysClock+0x17c>
__risc_v_disable_irq():
c:/Users/LRNA/Desktop/code/mounriver/ch592/ScienceOlympiadEV/RVMSIS/core_riscv.h:130
  __asm volatile ("csrrc %0, 0x800, %1" : \
20000252:	80073773          	csrrc	a4,0x800,a4
c:/Users/LRNA/Desktop/code/mounriver/ch592/ScienceOlympiadEV/RVMSIS/core_riscv.h:132
  return result & 0x88;
20000256:	08877713          	andi	a4,a4,136
SetSysClock():
c:\Users\LRNA\Desktop\code\mounriver\ch592\ScienceOlympiadEV\obj/../StdPeriphDriver/CH59x_sys.c:72
        sys_safe_access_enable();
2000025a:	cc3a                	sw	a4,24(sp)
2000025c:	0000100f          	fence.i
20000260:	05078023          	sb	a6,64(a5) # 40002040 <_eusrstack+0x1fffb840>
20000264:	04b78023          	sb	a1,64(a5)
20000268:	0000100f          	fence.i
c:\Users\LRNA\Desktop\code\mounriver\ch592\ScienceOlympiadEV\obj/../StdPeriphDriver/CH59x_sys.c:73
        R32_CLK_SYS_CFG |= RB_CLK_SYS_MOD;
2000026c:	4798                	lw	a4,8(a5)
2000026e:	0c076713          	ori	a4,a4,192
20000272:	c798                	sw	a4,8(a5)
c:\Users\LRNA\Desktop\code\mounriver\ch592\ScienceOlympiadEV\obj/../StdPeriphDriver/CH59x_sys.c:74
        sys_safe_access_disable();
20000274:	04078023          	sb	zero,64(a5)
20000278:	47e2                	lw	a5,24(sp)
2000027a:	bdfd                	j	20000178 <SetSysClock+0xbc>

2000027c <SYS_ResetExecute>:
SYS_ResetExecute():
c:\Users\LRNA\Desktop\code\mounriver\ch592\ScienceOlympiadEV\obj/../StdPeriphDriver/CH59x_sys.c:142
 *
 * @return  none
 */
__HIGH_CODE
void SYS_ResetExecute(void)
{
2000027c:	1101                	addi	sp,sp,-32
c:\Users\LRNA\Desktop\code\mounriver\ch592\ScienceOlympiadEV\obj/../StdPeriphDriver/CH59x_sys.c:143
    FLASH_ROM_SW_RESET();
2000027e:	4681                	li	a3,0
20000280:	4601                	li	a2,0
20000282:	4581                	li	a1,0
20000284:	4511                	li	a0,4
c:\Users\LRNA\Desktop\code\mounriver\ch592\ScienceOlympiadEV\obj/../StdPeriphDriver/CH59x_sys.c:142
{
20000286:	ce06                	sw	ra,28(sp)
c:\Users\LRNA\Desktop\code\mounriver\ch592\ScienceOlympiadEV\obj/../StdPeriphDriver/CH59x_sys.c:143
    FLASH_ROM_SW_RESET();
20000288:	2a7d                	jal	20000446 <FLASH_EEPROM_CMD>
__risc_v_disable_irq():
c:/Users/LRNA/Desktop/code/mounriver/ch592/ScienceOlympiadEV/RVMSIS/core_riscv.h:130
  __asm volatile ("csrrc %0, 0x800, %1" : \
2000028a:	08800793          	li	a5,136
2000028e:	8007b7f3          	csrrc	a5,0x800,a5
c:/Users/LRNA/Desktop/code/mounriver/ch592/ScienceOlympiadEV/RVMSIS/core_riscv.h:132
  return result & 0x88;
20000292:	0887f793          	andi	a5,a5,136
SYS_ResetExecute():
c:\Users\LRNA\Desktop\code\mounriver\ch592\ScienceOlympiadEV\obj/../StdPeriphDriver/CH59x_sys.c:144
    sys_safe_access_enable();
20000296:	c63e                	sw	a5,12(sp)
20000298:	0000100f          	fence.i
2000029c:	400017b7          	lui	a5,0x40001
200002a0:	05700713          	li	a4,87
200002a4:	04e78023          	sb	a4,64(a5) # 40001040 <_eusrstack+0x1fffa840>
200002a8:	fa800713          	li	a4,-88
200002ac:	04e78023          	sb	a4,64(a5)
200002b0:	0000100f          	fence.i
c:\Users\LRNA\Desktop\code\mounriver\ch592\ScienceOlympiadEV\obj/../StdPeriphDriver/CH59x_sys.c:145
    R8_RST_WDOG_CTRL |= RB_SOFTWARE_RESET;
200002b4:	0467c703          	lbu	a4,70(a5)
200002b8:	00176713          	ori	a4,a4,1
200002bc:	04e78323          	sb	a4,70(a5)
c:\Users\LRNA\Desktop\code\mounriver\ch592\ScienceOlympiadEV\obj/../StdPeriphDriver/CH59x_sys.c:146
    sys_safe_access_disable();
200002c0:	04078023          	sb	zero,64(a5)
200002c4:	47b2                	lw	a5,12(sp)
__risc_v_enable_irq():
c:/Users/LRNA/Desktop/code/mounriver/ch592/ScienceOlympiadEV/RVMSIS/core_riscv.h:114
  __asm volatile ("csrrs %0, 0x800, %1" : \
200002c6:	8007a7f3          	csrrs	a5,0x800,a5
SYS_ResetExecute():
c:\Users\LRNA\Desktop\code\mounriver\ch592\ScienceOlympiadEV\obj/../StdPeriphDriver/CH59x_sys.c:146
200002ca:	0000100f          	fence.i
c:\Users\LRNA\Desktop\code\mounriver\ch592\ScienceOlympiadEV\obj/../StdPeriphDriver/CH59x_sys.c:147
}
200002ce:	40f2                	lw	ra,28(sp)
200002d0:	6105                	addi	sp,sp,32
200002d2:	8082                	ret

200002d4 <HardFault_Handler>:
HardFault_Handler():
c:\Users\LRNA\Desktop\code\mounriver\ch592\ScienceOlympiadEV\obj/../StdPeriphDriver/CH59x_sys.c:281
 */
__INTERRUPT
__HIGH_CODE
__attribute__((weak))
void HardFault_Handler(void)
{
200002d4:	1141                	addi	sp,sp,-16
c:\Users\LRNA\Desktop\code\mounriver\ch592\ScienceOlympiadEV\obj/../StdPeriphDriver/CH59x_sys.c:282
    FLASH_ROM_SW_RESET();
200002d6:	4681                	li	a3,0
200002d8:	4601                	li	a2,0
200002da:	4581                	li	a1,0
200002dc:	4511                	li	a0,4
200002de:	22a5                	jal	20000446 <FLASH_EEPROM_CMD>
__risc_v_disable_irq():
c:/Users/LRNA/Desktop/code/mounriver/ch592/ScienceOlympiadEV/RVMSIS/core_riscv.h:130
  __asm volatile ("csrrc %0, 0x800, %1" : \
200002e0:	08800713          	li	a4,136
200002e4:	800737f3          	csrrc	a5,0x800,a4
c:/Users/LRNA/Desktop/code/mounriver/ch592/ScienceOlympiadEV/RVMSIS/core_riscv.h:132
  return result & 0x88;
200002e8:	0887f793          	andi	a5,a5,136
HardFault_Handler():
c:\Users\LRNA\Desktop\code\mounriver\ch592\ScienceOlympiadEV\obj/../StdPeriphDriver/CH59x_sys.c:283
    sys_safe_access_enable();
200002ec:	c43e                	sw	a5,8(sp)
200002ee:	0000100f          	fence.i
200002f2:	400017b7          	lui	a5,0x40001
200002f6:	05700613          	li	a2,87
200002fa:	04c78023          	sb	a2,64(a5) # 40001040 <_eusrstack+0x1fffa840>
200002fe:	fa800693          	li	a3,-88
20000302:	04d78023          	sb	a3,64(a5)
20000306:	0000100f          	fence.i
c:\Users\LRNA\Desktop\code\mounriver\ch592\ScienceOlympiadEV\obj/../StdPeriphDriver/CH59x_sys.c:284
    R16_INT32K_TUNE = 0xFFFF;
2000030a:	55fd                	li	a1,-1
2000030c:	02b79623          	sh	a1,44(a5)
c:\Users\LRNA\Desktop\code\mounriver\ch592\ScienceOlympiadEV\obj/../StdPeriphDriver/CH59x_sys.c:285
    sys_safe_access_disable();
20000310:	04078023          	sb	zero,64(a5)
20000314:	45a2                	lw	a1,8(sp)
__risc_v_enable_irq():
c:/Users/LRNA/Desktop/code/mounriver/ch592/ScienceOlympiadEV/RVMSIS/core_riscv.h:114
  __asm volatile ("csrrs %0, 0x800, %1" : \
20000316:	8005a5f3          	csrrs	a1,0x800,a1
HardFault_Handler():
c:\Users\LRNA\Desktop\code\mounriver\ch592\ScienceOlympiadEV\obj/../StdPeriphDriver/CH59x_sys.c:285
2000031a:	0000100f          	fence.i
__risc_v_disable_irq():
c:/Users/LRNA/Desktop/code/mounriver/ch592/ScienceOlympiadEV/RVMSIS/core_riscv.h:130
  __asm volatile ("csrrc %0, 0x800, %1" : \
2000031e:	80073773          	csrrc	a4,0x800,a4
c:/Users/LRNA/Desktop/code/mounriver/ch592/ScienceOlympiadEV/RVMSIS/core_riscv.h:132
  return result & 0x88;
20000322:	08877713          	andi	a4,a4,136
HardFault_Handler():
c:\Users\LRNA\Desktop\code\mounriver\ch592\ScienceOlympiadEV\obj/../StdPeriphDriver/CH59x_sys.c:286
    sys_safe_access_enable();
20000326:	c63a                	sw	a4,12(sp)
20000328:	0000100f          	fence.i
2000032c:	04c78023          	sb	a2,64(a5)
20000330:	04d78023          	sb	a3,64(a5)
20000334:	0000100f          	fence.i
c:\Users\LRNA\Desktop\code\mounriver\ch592\ScienceOlympiadEV\obj/../StdPeriphDriver/CH59x_sys.c:287
    R8_RST_WDOG_CTRL |= RB_SOFTWARE_RESET;
20000338:	0467c703          	lbu	a4,70(a5)
2000033c:	00176713          	ori	a4,a4,1
20000340:	04e78323          	sb	a4,70(a5)
c:\Users\LRNA\Desktop\code\mounriver\ch592\ScienceOlympiadEV\obj/../StdPeriphDriver/CH59x_sys.c:288
    sys_safe_access_disable();
20000344:	04078023          	sb	zero,64(a5)
20000348:	47b2                	lw	a5,12(sp)
__risc_v_enable_irq():
c:/Users/LRNA/Desktop/code/mounriver/ch592/ScienceOlympiadEV/RVMSIS/core_riscv.h:114
  __asm volatile ("csrrs %0, 0x800, %1" : \
2000034a:	8007a7f3          	csrrs	a5,0x800,a5
HardFault_Handler():
c:\Users\LRNA\Desktop\code\mounriver\ch592\ScienceOlympiadEV\obj/../StdPeriphDriver/CH59x_sys.c:288
2000034e:	0000100f          	fence.i
c:\Users\LRNA\Desktop\code\mounriver\ch592\ScienceOlympiadEV\obj/../StdPeriphDriver/CH59x_sys.c:289 (discriminator 1)
    while(1);
20000352:	a001                	j	20000352 <HardFault_Handler+0x7e>

20000354 <mDelayuS>:
mDelayuS():
c:\Users\LRNA\Desktop\code\mounriver\ch592\ScienceOlympiadEV\obj/../StdPeriphDriver/CH59x_sys.c:308
{
    uint32_t i;
#if(FREQ_SYS == 80000000)
    i = t * 20;
#elif(FREQ_SYS == 60000000)
    i = t * 15;
20000354:	47bd                	li	a5,15
20000356:	02f50533          	mul	a0,a0,a5
c:\Users\LRNA\Desktop\code\mounriver\ch592\ScienceOlympiadEV\obj/../StdPeriphDriver/CH59x_sys.c:332 (discriminator 1)
#else
    i = t << 1;
#endif
    do
    {
        __nop();
2000035a:	0001                	nop
c:\Users\LRNA\Desktop\code\mounriver\ch592\ScienceOlympiadEV\obj/../StdPeriphDriver/CH59x_sys.c:333 (discriminator 1)
    } while(--i);
2000035c:	157d                	addi	a0,a0,-1
2000035e:	fd75                	bnez	a0,2000035a <mDelayuS+0x6>
c:\Users\LRNA\Desktop\code\mounriver\ch592\ScienceOlympiadEV\obj/../StdPeriphDriver/CH59x_sys.c:334
}
20000360:	8082                	ret

20000362 <mDelaymS>:
mDelaymS():
c:\Users\LRNA\Desktop\code\mounriver\ch592\ScienceOlympiadEV\obj/../StdPeriphDriver/CH59x_sys.c:347
 *
 * @return  none
 */
__HIGH_CODE
void mDelaymS(uint16_t t)
{
20000362:	1141                	addi	sp,sp,-16
20000364:	c422                	sw	s0,8(sp)
20000366:	c226                	sw	s1,4(sp)
20000368:	c606                	sw	ra,12(sp)
2000036a:	84aa                	mv	s1,a0
c:\Users\LRNA\Desktop\code\mounriver\ch592\ScienceOlympiadEV\obj/../StdPeriphDriver/CH59x_sys.c:350
    uint16_t i;

    for(i = 0; i < t; i++)
2000036c:	4401                	li	s0,0
c:\Users\LRNA\Desktop\code\mounriver\ch592\ScienceOlympiadEV\obj/../StdPeriphDriver/CH59x_sys.c:350 (discriminator 1)
2000036e:	00941763          	bne	s0,s1,2000037c <mDelaymS+0x1a>
c:\Users\LRNA\Desktop\code\mounriver\ch592\ScienceOlympiadEV\obj/../StdPeriphDriver/CH59x_sys.c:354
    {
        mDelayuS(1000);
    }
}
20000372:	40b2                	lw	ra,12(sp)
20000374:	4422                	lw	s0,8(sp)
20000376:	4492                	lw	s1,4(sp)
20000378:	0141                	addi	sp,sp,16
2000037a:	8082                	ret
c:\Users\LRNA\Desktop\code\mounriver\ch592\ScienceOlympiadEV\obj/../StdPeriphDriver/CH59x_sys.c:350 (discriminator 3)
    for(i = 0; i < t; i++)
2000037c:	0405                	addi	s0,s0,1
c:\Users\LRNA\Desktop\code\mounriver\ch592\ScienceOlympiadEV\obj/../StdPeriphDriver/CH59x_sys.c:352 (discriminator 3)
        mDelayuS(1000);
2000037e:	3e800513          	li	a0,1000
c:\Users\LRNA\Desktop\code\mounriver\ch592\ScienceOlympiadEV\obj/../StdPeriphDriver/CH59x_sys.c:350 (discriminator 3)
    for(i = 0; i < t; i++)
20000382:	0442                	slli	s0,s0,0x10
c:\Users\LRNA\Desktop\code\mounriver\ch592\ScienceOlympiadEV\obj/../StdPeriphDriver/CH59x_sys.c:352 (discriminator 3)
        mDelayuS(1000);
20000384:	3fc1                	jal	20000354 <mDelayuS>
c:\Users\LRNA\Desktop\code\mounriver\ch592\ScienceOlympiadEV\obj/../StdPeriphDriver/CH59x_sys.c:350 (discriminator 3)
    for(i = 0; i < t; i++)
20000386:	8041                	srli	s0,s0,0x10
20000388:	b7dd                	j	2000036e <mDelaymS+0xc>

2000038a <FLASH_ROM_BEG>:
FLASH_ROM_BEG():
2000038a:	80040323          	sb	zero,-2042(s0)
2000038e:	4715                	li	a4,5
20000390:	80e40323          	sb	a4,-2042(s0)
20000394:	0001                	nop
20000396:	80a40223          	sb	a0,-2044(s0)
2000039a:	8082                	ret

2000039c <FLASH_ROM_END>:
FLASH_ROM_END():
2000039c:	80640783          	lb	a5,-2042(s0)
200003a0:	fe07cee3          	bltz	a5,2000039c <FLASH_ROM_END>
200003a4:	80040323          	sb	zero,-2042(s0)
200003a8:	8082                	ret

200003aa <FLASH_ROM_IN>:
FLASH_ROM_IN():
200003aa:	80640783          	lb	a5,-2042(s0)
200003ae:	fe07cee3          	bltz	a5,200003aa <FLASH_ROM_IN>
200003b2:	80444503          	lbu	a0,-2044(s0)
200003b6:	8082                	ret

200003b8 <FLASH_ROM_OUT>:
FLASH_ROM_OUT():
200003b8:	80640783          	lb	a5,-2042(s0)
200003bc:	fe07cee3          	bltz	a5,200003b8 <FLASH_ROM_OUT>
200003c0:	80a40223          	sb	a0,-2044(s0)
200003c4:	8082                	ret

200003c6 <FLASH_ROM_ADDR>:
FLASH_ROM_ADDR():
200003c6:	1141                	addi	sp,sp,-16
200003c8:	c426                	sw	s1,8(sp)
200003ca:	c24a                	sw	s2,4(sp)
200003cc:	c04e                	sw	s3,0(sp)
200003ce:	c606                	sw	ra,12(sp)
200003d0:	0bf57713          	andi	a4,a0,191
200003d4:	47ad                	li	a5,11
200003d6:	89aa                	mv	s3,a0
200003d8:	892e                	mv	s2,a1
200003da:	4495                	li	s1,5
200003dc:	00f70663          	beq	a4,a5,200003e8 <FLASH_ROM_ADDR+0x22>
200003e0:	4519                	li	a0,6
200003e2:	3765                	jal	2000038a <FLASH_ROM_BEG>
200003e4:	3f65                	jal	2000039c <FLASH_ROM_END>
200003e6:	448d                	li	s1,3
200003e8:	854e                	mv	a0,s3
200003ea:	3745                	jal	2000038a <FLASH_ROM_BEG>
200003ec:	59fd                	li	s3,-1
200003ee:	14fd                	addi	s1,s1,-1
200003f0:	01349863          	bne	s1,s3,20000400 <FLASH_ROM_ADDR+0x3a>
200003f4:	40b2                	lw	ra,12(sp)
200003f6:	44a2                	lw	s1,8(sp)
200003f8:	4912                	lw	s2,4(sp)
200003fa:	4982                	lw	s3,0(sp)
200003fc:	0141                	addi	sp,sp,16
200003fe:	8082                	ret
20000400:	01095513          	srli	a0,s2,0x10
20000404:	0ff57513          	zext.b	a0,a0
20000408:	3f45                	jal	200003b8 <FLASH_ROM_OUT>
2000040a:	0922                	slli	s2,s2,0x8
2000040c:	b7cd                	j	200003ee <FLASH_ROM_ADDR+0x28>

2000040e <FLASH_ROM_WAIT>:
FLASH_ROM_WAIT():
2000040e:	1101                	addi	sp,sp,-32
20000410:	cc26                	sw	s1,24(sp)
20000412:	ce06                	sw	ra,28(sp)
20000414:	000804b7          	lui	s1,0x80
20000418:	3751                	jal	2000039c <FLASH_ROM_END>
2000041a:	4515                	li	a0,5
2000041c:	37bd                	jal	2000038a <FLASH_ROM_BEG>
2000041e:	3771                	jal	200003aa <FLASH_ROM_IN>
20000420:	3769                	jal	200003aa <FLASH_ROM_IN>
20000422:	c62a                	sw	a0,12(sp)
20000424:	3fa5                	jal	2000039c <FLASH_ROM_END>
20000426:	4532                	lw	a0,12(sp)
20000428:	00157793          	andi	a5,a0,1
2000042c:	eb89                	bnez	a5,2000043e <FLASH_ROM_WAIT+0x30>
2000042e:	00156513          	ori	a0,a0,1
20000432:	0ff57513          	zext.b	a0,a0
20000436:	40f2                	lw	ra,28(sp)
20000438:	44e2                	lw	s1,24(sp)
2000043a:	6105                	addi	sp,sp,32
2000043c:	8082                	ret
2000043e:	14fd                	addi	s1,s1,-1 # 7ffff <_data_lma+0x7f227>
20000440:	fce9                	bnez	s1,2000041a <FLASH_ROM_WAIT+0xc>
20000442:	4501                	li	a0,0
20000444:	bfcd                	j	20000436 <FLASH_ROM_WAIT+0x28>

20000446 <FLASH_EEPROM_CMD>:
FLASH_EEPROM_CMD():
20000446:	7139                	addi	sp,sp,-64
20000448:	dc26                	sw	s1,56(sp)
2000044a:	da4a                	sw	s2,52(sp)
2000044c:	d84e                	sw	s3,48(sp)
2000044e:	d652                	sw	s4,44(sp)
20000450:	d456                	sw	s5,40(sp)
20000452:	d25a                	sw	s6,36(sp)
20000454:	d05e                	sw	s7,32(sp)
20000456:	de06                	sw	ra,60(sp)
20000458:	ce62                	sw	s8,28(sp)
2000045a:	cc66                	sw	s9,24(sp)
2000045c:	e000e7b7          	lui	a5,0xe000e
20000460:	577d                	li	a4,-1
20000462:	0007aa83          	lw	s5,0(a5) # e000e000 <_eusrstack+0xc0007800>
20000466:	c622                	sw	s0,12(sp)
20000468:	0047aa03          	lw	s4,4(a5)
2000046c:	18e7a023          	sw	a4,384(a5)
20000470:	18e7a223          	sw	a4,388(a5)
20000474:	400017b7          	lui	a5,0x40001
20000478:	05700713          	li	a4,87
2000047c:	04e78023          	sb	a4,64(a5) # 40001040 <_eusrstack+0x1fffa840>
20000480:	fa800713          	li	a4,-88
20000484:	04e78023          	sb	a4,64(a5)
20000488:	0447c783          	lbu	a5,68(a5)
2000048c:	ff750b93          	addi	s7,a0,-9
20000490:	84b6                	mv	s1,a3
20000492:	07e2                	slli	a5,a5,0x18
20000494:	0ffbfb93          	zext.b	s7,s7
20000498:	4685                	li	a3,1
2000049a:	89aa                	mv	s3,a0
2000049c:	8b2e                	mv	s6,a1
2000049e:	8932                	mv	s2,a2
200004a0:	40002437          	lui	s0,0x40002
200004a4:	87e1                	srai	a5,a5,0x18
200004a6:	5701                	li	a4,-32
200004a8:	0176fa63          	bgeu	a3,s7,200004bc <FLASH_EEPROM_CMD+0x76>
200004ac:	00d50863          	beq	a0,a3,200004bc <FLASH_EEPROM_CMD+0x76>
200004b0:	4689                	li	a3,2
200004b2:	02000713          	li	a4,32
200004b6:	00d51363          	bne	a0,a3,200004bc <FLASH_EEPROM_CMD+0x76>
200004ba:	5701                	li	a4,-32
200004bc:	8fd9                	or	a5,a5,a4
200004be:	0ff7f793          	zext.b	a5,a5
200004c2:	40001cb7          	lui	s9,0x40001
200004c6:	04fc8223          	sb	a5,68(s9) # 40001044 <_eusrstack+0x1fffa844>
200004ca:	4711                	li	a4,4
200004cc:	80e40323          	sb	a4,-2042(s0) # 40001806 <_eusrstack+0x1fffb006>
200004d0:	0ff00513          	li	a0,255
200004d4:	3d5d                	jal	2000038a <FLASH_ROM_BEG>
200004d6:	4c09                	li	s8,2
200004d8:	35d1                	jal	2000039c <FLASH_ROM_END>
200004da:	117c6d63          	bltu	s8,s7,200005f4 <FLASH_EEPROM_CMD+0x1ae>
200004de:	000705b7          	lui	a1,0x70
200004e2:	95da                	add	a1,a1,s6
200004e4:	00078737          	lui	a4,0x78
200004e8:	5579                	li	a0,-2
200004ea:	04e5f263          	bgeu	a1,a4,2000052e <FLASH_EEPROM_CMD+0xe8>
200004ee:	009587b3          	add	a5,a1,s1
200004f2:	02f76e63          	bltu	a4,a5,2000052e <FLASH_EEPROM_CMD+0xe8>
200004f6:	00080b37          	lui	s6,0x80
200004fa:	47a9                	li	a5,10
200004fc:	0165eb33          	or	s6,a1,s6
20000500:	06f99963          	bne	s3,a5,20000572 <FLASH_EEPROM_CMD+0x12c>
20000504:	e489                	bnez	s1,2000050e <FLASH_EEPROM_CMD+0xc8>
20000506:	4481                	li	s1,0
20000508:	3d51                	jal	2000039c <FLASH_ROM_END>
2000050a:	8526                	mv	a0,s1
2000050c:	a00d                	j	2000052e <FLASH_EEPROM_CMD+0xe8>
2000050e:	85da                	mv	a1,s6
20000510:	4509                	li	a0,2
20000512:	3d55                	jal	200003c6 <FLASH_ROM_ADDR>
20000514:	0905                	addi	s2,s2,1
20000516:	fff94503          	lbu	a0,-1(s2)
2000051a:	14fd                	addi	s1,s1,-1
2000051c:	0b05                	addi	s6,s6,1 # 80001 <_data_lma+0x7f229>
2000051e:	3d69                	jal	200003b8 <FLASH_ROM_OUT>
20000520:	c481                	beqz	s1,20000528 <FLASH_EEPROM_CMD+0xe2>
20000522:	0ffb7793          	zext.b	a5,s6
20000526:	f7fd                	bnez	a5,20000514 <FLASH_EEPROM_CMD+0xce>
20000528:	35dd                	jal	2000040e <FLASH_ROM_WAIT>
2000052a:	fd69                	bnez	a0,20000504 <FLASH_EEPROM_CMD+0xbe>
2000052c:	557d                	li	a0,-1
2000052e:	400017b7          	lui	a5,0x40001
20000532:	05700713          	li	a4,87
20000536:	04e78023          	sb	a4,64(a5) # 40001040 <_eusrstack+0x1fffa840>
2000053a:	fa800713          	li	a4,-88
2000053e:	04e78023          	sb	a4,64(a5)
20000542:	0447c703          	lbu	a4,68(a5)
20000546:	8b41                	andi	a4,a4,16
20000548:	04e78223          	sb	a4,68(a5)
2000054c:	50f2                	lw	ra,60(sp)
2000054e:	e000e7b7          	lui	a5,0xe000e
20000552:	1157a023          	sw	s5,256(a5) # e000e100 <_eusrstack+0xc0007900>
20000556:	1147a223          	sw	s4,260(a5)
2000055a:	54e2                	lw	s1,56(sp)
2000055c:	4432                	lw	s0,12(sp)
2000055e:	5952                	lw	s2,52(sp)
20000560:	59c2                	lw	s3,48(sp)
20000562:	5a32                	lw	s4,44(sp)
20000564:	5aa2                	lw	s5,40(sp)
20000566:	5b12                	lw	s6,36(sp)
20000568:	5b82                	lw	s7,32(sp)
2000056a:	4c72                	lw	s8,28(sp)
2000056c:	4ce2                	lw	s9,24(sp)
2000056e:	6121                	addi	sp,sp,64
20000570:	8082                	ret
20000572:	47a5                	li	a5,9
20000574:	06f99563          	bne	s3,a5,200005de <FLASH_EEPROM_CMD+0x198>
20000578:	6985                	lui	s3,0x1
2000057a:	0ff00913          	li	s2,255
2000057e:	009906b3          	add	a3,s2,s1
20000582:	012b74b3          	and	s1,s6,s2
20000586:	94b6                	add	s1,s1,a3
20000588:	fff94913          	not	s2,s2
2000058c:	009974b3          	and	s1,s2,s1
20000590:	6b85                	lui	s7,0x1
20000592:	01697933          	and	s2,s2,s6
20000596:	6b41                	lui	s6,0x10
20000598:	fff98793          	addi	a5,s3,-1 # fff <_data_lma+0x227>
2000059c:	0127f7b3          	and	a5,a5,s2
200005a0:	e399                	bnez	a5,200005a6 <FLASH_EEPROM_CMD+0x160>
200005a2:	0134fc63          	bgeu	s1,s3,200005ba <FLASH_EEPROM_CMD+0x174>
200005a6:	0049d993          	srli	s3,s3,0x4
200005aa:	47c1                	li	a5,16
200005ac:	ff37e6e3          	bltu	a5,s3,20000598 <FLASH_EEPROM_CMD+0x152>
200005b0:	bf99                	j	20000506 <FLASH_EEPROM_CMD+0xc0>
200005b2:	6905                	lui	s2,0x1
200005b4:	69c1                	lui	s3,0x10
200005b6:	197d                	addi	s2,s2,-1 # fff <_data_lma+0x227>
200005b8:	b7d9                	j	2000057e <FLASH_EEPROM_CMD+0x138>
200005ba:	0d800513          	li	a0,216
200005be:	01698863          	beq	s3,s6,200005ce <FLASH_EEPROM_CMD+0x188>
200005c2:	02000513          	li	a0,32
200005c6:	01798463          	beq	s3,s7,200005ce <FLASH_EEPROM_CMD+0x188>
200005ca:	08100513          	li	a0,129
200005ce:	85ca                	mv	a1,s2
200005d0:	3bdd                	jal	200003c6 <FLASH_ROM_ADDR>
200005d2:	3d35                	jal	2000040e <FLASH_ROM_WAIT>
200005d4:	dd21                	beqz	a0,2000052c <FLASH_EEPROM_CMD+0xe6>
200005d6:	994e                	add	s2,s2,s3
200005d8:	413484b3          	sub	s1,s1,s3
200005dc:	b7d9                	j	200005a2 <FLASH_EEPROM_CMD+0x15c>
200005de:	85da                	mv	a1,s6
200005e0:	452d                	li	a0,11
200005e2:	33d5                	jal	200003c6 <FLASH_ROM_ADDR>
200005e4:	94ca                	add	s1,s1,s2
200005e6:	f29900e3          	beq	s2,s1,20000506 <FLASH_EEPROM_CMD+0xc0>
200005ea:	0905                	addi	s2,s2,1
200005ec:	3b7d                	jal	200003aa <FLASH_ROM_IN>
200005ee:	fea90fa3          	sb	a0,-1(s2)
200005f2:	bfd5                	j	200005e6 <FLASH_EEPROM_CMD+0x1a0>
200005f4:	fff98793          	addi	a5,s3,-1 # ffff <_data_lma+0xf227>
200005f8:	0ff7f793          	zext.b	a5,a5
200005fc:	0cfc6163          	bltu	s8,a5,200006be <.loop402+0x7a>
20000600:	041cc783          	lbu	a5,65(s9)
20000604:	08300713          	li	a4,131
20000608:	04f71f63          	bne	a4,a5,20000666 <.loop402+0x22>
2000060c:	00080737          	lui	a4,0x80
20000610:	04eb6b63          	bltu	s6,a4,20000666 <.loop402+0x22>
20000614:	009b07b3          	add	a5,s6,s1
20000618:	001006b7          	lui	a3,0x100
2000061c:	04d7f563          	bgeu	a5,a3,20000666 <.loop402+0x22>
20000620:	00eb4b33          	xor	s6,s6,a4
20000624:	4789                	li	a5,2
20000626:	06f99363          	bne	s3,a5,2000068c <.loop402+0x48>
2000062a:	8089                	srli	s1,s1,0x2
2000062c:	49d5                	li	s3,21
2000062e:	ec048ce3          	beqz	s1,20000506 <FLASH_EEPROM_CMD+0xc0>
20000632:	85da                	mv	a1,s6
20000634:	4509                	li	a0,2
20000636:	3b41                	jal	200003c6 <FLASH_ROM_ADDR>
20000638:	0911                	addi	s2,s2,4
2000063a:	ffc92703          	lw	a4,-4(s2)
2000063e:	4791                	li	a5,4
20000640:	80e42023          	sw	a4,-2048(s0)

20000644 <.loop402>:
20000644:	80640703          	lb	a4,-2042(s0)
20000648:	fe074ee3          	bltz	a4,20000644 <.loop402>
2000064c:	81340323          	sb	s3,-2042(s0)
20000650:	17fd                	addi	a5,a5,-1
20000652:	fbed                	bnez	a5,20000644 <.loop402>
20000654:	14fd                	addi	s1,s1,-1
20000656:	0b11                	addi	s6,s6,4 # 10004 <_data_lma+0xf22c>
20000658:	c481                	beqz	s1,20000660 <.loop402+0x1c>
2000065a:	0ffb7793          	zext.b	a5,s6
2000065e:	ffe9                	bnez	a5,20000638 <FLASH_EEPROM_CMD+0x1f2>
20000660:	337d                	jal	2000040e <FLASH_ROM_WAIT>
20000662:	f571                	bnez	a0,2000062e <FLASH_EEPROM_CMD+0x1e8>
20000664:	b5e1                	j	2000052c <FLASH_EEPROM_CMD+0xe6>
20000666:	400017b7          	lui	a5,0x40001
2000066a:	0457c703          	lbu	a4,69(a5) # 40001045 <_eusrstack+0x1fffa845>
2000066e:	000807b7          	lui	a5,0x80
20000672:	02077713          	andi	a4,a4,32
20000676:	e319                	bnez	a4,2000067c <.loop402+0x38>
20000678:	000787b7          	lui	a5,0x78
2000067c:	5579                	li	a0,-2
2000067e:	eafb78e3          	bgeu	s6,a5,2000052e <FLASH_EEPROM_CMD+0xe8>
20000682:	009b0733          	add	a4,s6,s1
20000686:	f8e7ffe3          	bgeu	a5,a4,20000624 <FLASH_EEPROM_CMD+0x1de>
2000068a:	b555                	j	2000052e <FLASH_EEPROM_CMD+0xe8>
2000068c:	4785                	li	a5,1
2000068e:	f2f982e3          	beq	s3,a5,200005b2 <FLASH_EEPROM_CMD+0x16c>
20000692:	85da                	mv	a1,s6
20000694:	452d                	li	a0,11
20000696:	3b05                	jal	200003c6 <FLASH_ROM_ADDR>
20000698:	fff48993          	addi	s3,s1,-1
2000069c:	e60485e3          	beqz	s1,20000506 <FLASH_EEPROM_CMD+0xc0>
200006a0:	3329                	jal	200003aa <FLASH_ROM_IN>
200006a2:	0039f793          	andi	a5,s3,3
200006a6:	eb91                	bnez	a5,200006ba <.loop402+0x76>
200006a8:	80042683          	lw	a3,-2048(s0)
200006ac:	00092703          	lw	a4,0(s2)
200006b0:	00490793          	addi	a5,s2,4
200006b4:	e4e69ae3          	bne	a3,a4,20000508 <FLASH_EEPROM_CMD+0xc2>
200006b8:	893e                	mv	s2,a5
200006ba:	84ce                	mv	s1,s3
200006bc:	bff1                	j	20000698 <.loop402+0x54>
200006be:	47b5                	li	a5,13
200006c0:	00f99663          	bne	s3,a5,200006cc <.loop402+0x88>
200006c4:	0b900513          	li	a0,185
200006c8:	31c9                	jal	2000038a <FLASH_ROM_BEG>
200006ca:	bd35                	j	20000506 <FLASH_EEPROM_CMD+0xc0>
200006cc:	47b1                	li	a5,12
200006ce:	0ab00513          	li	a0,171
200006d2:	fef98be3          	beq	s3,a5,200006c8 <.loop402+0x84>
200006d6:	4799                	li	a5,6
200006d8:	04f99163          	bne	s3,a5,2000071a <.loop402+0xd6>
200006dc:	000805b7          	lui	a1,0x80
200006e0:	00bb65b3          	or	a1,s6,a1
200006e4:	452d                	li	a0,11
200006e6:	31c5                	jal	200003c6 <FLASH_ROM_ADDR>
200006e8:	4481                	li	s1,0
200006ea:	4b8d                	li	s7,3
200006ec:	49a1                	li	s3,8
200006ee:	3975                	jal	200003aa <FLASH_ROM_IN>
200006f0:	01749663          	bne	s1,s7,200006fc <.loop402+0xb8>
200006f4:	80042783          	lw	a5,-2048(s0)
200006f8:	00f92023          	sw	a5,0(s2)
200006fc:	0485                	addi	s1,s1,1
200006fe:	ff3498e3          	bne	s1,s3,200006ee <.loop402+0xaa>
20000702:	80042783          	lw	a5,-2048(s0)
20000706:	012b1713          	slli	a4,s6,0x12
2000070a:	00075563          	bgez	a4,20000714 <.loop402+0xd0>
2000070e:	00f91223          	sh	a5,4(s2)
20000712:	bbd5                	j	20000506 <FLASH_EEPROM_CMD+0xc0>
20000714:	00f92223          	sw	a5,4(s2)
20000718:	b3fd                	j	20000506 <FLASH_EEPROM_CMD+0xc0>
2000071a:	479d                	li	a5,7
2000071c:	02f99963          	bne	s3,a5,2000074e <.loop402+0x10a>
20000720:	4581                	li	a1,0
20000722:	04b00513          	li	a0,75
20000726:	3145                	jal	200003c6 <FLASH_ROM_ADDR>
20000728:	44bd                	li	s1,15
2000072a:	00092023          	sw	zero,0(s2)
2000072e:	00092223          	sw	zero,4(s2)
20000732:	59fd                	li	s3,-1
20000734:	399d                	jal	200003aa <FLASH_ROM_IN>
20000736:	0074f793          	andi	a5,s1,7
2000073a:	97ca                	add	a5,a5,s2
2000073c:	0007c703          	lbu	a4,0(a5) # 78000 <_data_lma+0x77228>
20000740:	14fd                	addi	s1,s1,-1
20000742:	8d39                	xor	a0,a0,a4
20000744:	00a78023          	sb	a0,0(a5)
20000748:	ff3496e3          	bne	s1,s3,20000734 <.loop402+0xf0>
2000074c:	bb6d                	j	20000506 <FLASH_EEPROM_CMD+0xc0>
2000074e:	47a1                	li	a5,8
20000750:	04f99263          	bne	s3,a5,20000794 <.loop402+0x150>
20000754:	396d                	jal	2000040e <FLASH_ROM_WAIT>
20000756:	4481                	li	s1,0
20000758:	000b0d63          	beqz	s6,20000772 <.loop402+0x12e>
2000075c:	478d                	li	a5,3
2000075e:	03c00493          	li	s1,60
20000762:	00fb0863          	beq	s6,a5,20000772 <.loop402+0x12e>
20000766:	05000493          	li	s1,80
2000076a:	018b0463          	beq	s6,s8,20000772 <.loop402+0x12e>
2000076e:	04400493          	li	s1,68
20000772:	07c57513          	andi	a0,a0,124
20000776:	d89508e3          	beq	a0,s1,20000506 <FLASH_EEPROM_CMD+0xc0>
2000077a:	4519                	li	a0,6
2000077c:	3139                	jal	2000038a <FLASH_ROM_BEG>
2000077e:	3939                	jal	2000039c <FLASH_ROM_END>
20000780:	4505                	li	a0,1
20000782:	3121                	jal	2000038a <FLASH_ROM_BEG>
20000784:	8526                	mv	a0,s1
20000786:	390d                	jal	200003b8 <FLASH_ROM_OUT>
20000788:	4509                	li	a0,2
2000078a:	313d                	jal	200003b8 <FLASH_ROM_OUT>
2000078c:	3149                	jal	2000040e <FLASH_ROM_WAIT>
2000078e:	d6051ce3          	bnez	a0,20000506 <FLASH_EEPROM_CMD+0xc0>
20000792:	bb69                	j	2000052c <FLASH_EEPROM_CMD+0xe6>
20000794:	4791                	li	a5,4
20000796:	00f99963          	bne	s3,a5,200007a8 <.loop402+0x164>
2000079a:	06600513          	li	a0,102
2000079e:	36f5                	jal	2000038a <FLASH_ROM_BEG>
200007a0:	3ef5                	jal	2000039c <FLASH_ROM_END>
200007a2:	09900513          	li	a0,153
200007a6:	b70d                	j	200006c8 <.loop402+0x84>
200007a8:	d4098fe3          	beqz	s3,20000506 <FLASH_EEPROM_CMD+0xc0>
200007ac:	54f1                	li	s1,-4
200007ae:	bba9                	j	20000508 <FLASH_EEPROM_CMD+0xc2>

Disassembly of section .text:

000007b4 <handle_reset>:
handle_reset():
c:\Users\LRNA\Desktop\code\mounriver\ch592\ScienceOlympiadEV\obj/../Startup/startup_CH592.S:127
	.weak	handle_reset
	.align	1
handle_reset:
.option push 
.option	norelax 
	la gp, __global_pointer$
 7b4:	20000197          	auipc	gp,0x20000
 7b8:	7fc18193          	addi	gp,gp,2044 # 20000fb0 <__global_pointer$>
c:\Users\LRNA\Desktop\code\mounriver\ch592\ScienceOlympiadEV\obj/../Startup/startup_CH592.S:130
.option	pop 
1:
	la sp, _eusrstack 
 7bc:	20006117          	auipc	sp,0x20006
 7c0:	04410113          	addi	sp,sp,68 # 20006800 <_eusrstack>
c:\Users\LRNA\Desktop\code\mounriver\ch592\ScienceOlympiadEV\obj/../Startup/startup_CH592.S:134

/* Load highcode code  section from flash to RAM */
2:
    la a0, _highcode_lma
 7c4:	00400513          	li	a0,4
c:\Users\LRNA\Desktop\code\mounriver\ch592\ScienceOlympiadEV\obj/../Startup/startup_CH592.S:135
    la a1, _highcode_vma_start
 7c8:	20000597          	auipc	a1,0x20000
 7cc:	83858593          	addi	a1,a1,-1992 # 20000000 <_highcode_vma_start>
c:\Users\LRNA\Desktop\code\mounriver\ch592\ScienceOlympiadEV\obj/../Startup/startup_CH592.S:136
    la a2, _highcode_vma_end
 7d0:	20000617          	auipc	a2,0x20000
 7d4:	fe060613          	addi	a2,a2,-32 # 200007b0 <_data_vma>
c:\Users\LRNA\Desktop\code\mounriver\ch592\ScienceOlympiadEV\obj/../Startup/startup_CH592.S:137
    bgeu a1, a2, 2f
 7d8:	00c5fa63          	bgeu	a1,a2,7ec <handle_reset+0x38>
c:\Users\LRNA\Desktop\code\mounriver\ch592\ScienceOlympiadEV\obj/../Startup/startup_CH592.S:139
1:
    lw t0, (a0)
 7dc:	00052283          	lw	t0,0(a0)
c:\Users\LRNA\Desktop\code\mounriver\ch592\ScienceOlympiadEV\obj/../Startup/startup_CH592.S:140
    sw t0, (a1)
 7e0:	0055a023          	sw	t0,0(a1)
c:\Users\LRNA\Desktop\code\mounriver\ch592\ScienceOlympiadEV\obj/../Startup/startup_CH592.S:141
    addi a0, a0, 4
 7e4:	0511                	addi	a0,a0,4
c:\Users\LRNA\Desktop\code\mounriver\ch592\ScienceOlympiadEV\obj/../Startup/startup_CH592.S:142
    addi a1, a1, 4
 7e6:	0591                	addi	a1,a1,4
c:\Users\LRNA\Desktop\code\mounriver\ch592\ScienceOlympiadEV\obj/../Startup/startup_CH592.S:143
    bltu a1, a2, 1b
 7e8:	fec5eae3          	bltu	a1,a2,7dc <handle_reset+0x28>
c:\Users\LRNA\Desktop\code\mounriver\ch592\ScienceOlympiadEV\obj/../Startup/startup_CH592.S:147

/* Load data section from flash to RAM */
2:
	la a0, _data_lma
 7ec:	00000517          	auipc	a0,0x0
 7f0:	5ec50513          	addi	a0,a0,1516 # dd8 <_data_lma>
c:\Users\LRNA\Desktop\code\mounriver\ch592\ScienceOlympiadEV\obj/../Startup/startup_CH592.S:148
	la a1, _data_vma
 7f4:	20000597          	auipc	a1,0x20000
 7f8:	fbc58593          	addi	a1,a1,-68 # 200007b0 <_data_vma>
c:\Users\LRNA\Desktop\code\mounriver\ch592\ScienceOlympiadEV\obj/../Startup/startup_CH592.S:149
	la a2, _edata
 7fc:	20000617          	auipc	a2,0x20000
 800:	fb460613          	addi	a2,a2,-76 # 200007b0 <_data_vma>
c:\Users\LRNA\Desktop\code\mounriver\ch592\ScienceOlympiadEV\obj/../Startup/startup_CH592.S:150
	bgeu a1, a2, 2f
 804:	00c5fa63          	bgeu	a1,a2,818 <handle_reset+0x64>
c:\Users\LRNA\Desktop\code\mounriver\ch592\ScienceOlympiadEV\obj/../Startup/startup_CH592.S:152
1:
	lw t0, (a0)
 808:	00052283          	lw	t0,0(a0)
c:\Users\LRNA\Desktop\code\mounriver\ch592\ScienceOlympiadEV\obj/../Startup/startup_CH592.S:153
	sw t0, (a1)
 80c:	0055a023          	sw	t0,0(a1)
c:\Users\LRNA\Desktop\code\mounriver\ch592\ScienceOlympiadEV\obj/../Startup/startup_CH592.S:154
	addi a0, a0, 4
 810:	0511                	addi	a0,a0,4
c:\Users\LRNA\Desktop\code\mounriver\ch592\ScienceOlympiadEV\obj/../Startup/startup_CH592.S:155
	addi a1, a1, 4
 812:	0591                	addi	a1,a1,4
c:\Users\LRNA\Desktop\code\mounriver\ch592\ScienceOlympiadEV\obj/../Startup/startup_CH592.S:156
	bltu a1, a2, 1b
 814:	fec5eae3          	bltu	a1,a2,808 <handle_reset+0x54>
c:\Users\LRNA\Desktop\code\mounriver\ch592\ScienceOlympiadEV\obj/../Startup/startup_CH592.S:159
2:
	/* clear bss section */
	la a0, _sbss
 818:	20000517          	auipc	a0,0x20000
 81c:	f9850513          	addi	a0,a0,-104 # 200007b0 <_data_vma>
c:\Users\LRNA\Desktop\code\mounriver\ch592\ScienceOlympiadEV\obj/../Startup/startup_CH592.S:160
	la a1, _ebss
 820:	20000597          	auipc	a1,0x20000
 824:	f9058593          	addi	a1,a1,-112 # 200007b0 <_data_vma>
c:\Users\LRNA\Desktop\code\mounriver\ch592\ScienceOlympiadEV\obj/../Startup/startup_CH592.S:161
	bgeu a0, a1, 2f
 828:	00b57763          	bgeu	a0,a1,836 <handle_reset+0x82>
c:\Users\LRNA\Desktop\code\mounriver\ch592\ScienceOlympiadEV\obj/../Startup/startup_CH592.S:163
1:
	sw zero, (a0)
 82c:	00052023          	sw	zero,0(a0)
c:\Users\LRNA\Desktop\code\mounriver\ch592\ScienceOlympiadEV\obj/../Startup/startup_CH592.S:164
	addi a0, a0, 4
 830:	0511                	addi	a0,a0,4
c:\Users\LRNA\Desktop\code\mounriver\ch592\ScienceOlympiadEV\obj/../Startup/startup_CH592.S:165
	bltu a0, a1, 1b
 832:	feb56de3          	bltu	a0,a1,82c <handle_reset+0x78>
c:\Users\LRNA\Desktop\code\mounriver\ch592\ScienceOlympiadEV\obj/../Startup/startup_CH592.S:168
2:
	/* 流水线控制位 & 动态预测控制位 */
	li t0, 0x1f
 836:	42fd                	li	t0,31
c:\Users\LRNA\Desktop\code\mounriver\ch592\ScienceOlympiadEV\obj/../Startup/startup_CH592.S:169
	csrw 0xbc0, t0
 838:	bc029073          	csrw	0xbc0,t0
c:\Users\LRNA\Desktop\code\mounriver\ch592\ScienceOlympiadEV\obj/../Startup/startup_CH592.S:171
	/* 打开嵌套中断、硬件压栈功能 */
	li t0, 0x3
 83c:	428d                	li	t0,3
c:\Users\LRNA\Desktop\code\mounriver\ch592\ScienceOlympiadEV\obj/../Startup/startup_CH592.S:172
	csrw 0x804, t0
 83e:	80429073          	csrw	0x804,t0
c:\Users\LRNA\Desktop\code\mounriver\ch592\ScienceOlympiadEV\obj/../Startup/startup_CH592.S:174
	
    li t0, 0x88
 842:	08800293          	li	t0,136
c:\Users\LRNA\Desktop\code\mounriver\ch592\ScienceOlympiadEV\obj/../Startup/startup_CH592.S:175
    csrw mstatus, t0
 846:	30029073          	csrw	mstatus,t0
c:\Users\LRNA\Desktop\code\mounriver\ch592\ScienceOlympiadEV\obj/../Startup/startup_CH592.S:176
	la t0, _vector_base
 84a:	1ffff297          	auipc	t0,0x1ffff
 84e:	7b628293          	addi	t0,t0,1974 # 20000000 <_highcode_vma_start>
c:\Users\LRNA\Desktop\code\mounriver\ch592\ScienceOlympiadEV\obj/../Startup/startup_CH592.S:179

	/* 配置向量表模式为绝对地址模式 */
    ori t0, t0, 3
 852:	0032e293          	ori	t0,t0,3
c:\Users\LRNA\Desktop\code\mounriver\ch592\ScienceOlympiadEV\obj/../Startup/startup_CH592.S:180
	csrw mtvec, t0
 856:	30529073          	csrw	mtvec,t0
c:\Users\LRNA\Desktop\code\mounriver\ch592\ScienceOlympiadEV\obj/../Startup/startup_CH592.S:182

	la t0, main
 85a:	00000297          	auipc	t0,0x0
 85e:	01028293          	addi	t0,t0,16 # 86a <main>
c:\Users\LRNA\Desktop\code\mounriver\ch592\ScienceOlympiadEV\obj/../Startup/startup_CH592.S:183
	csrw mepc, t0
 862:	34129073          	csrw	mepc,t0
c:\Users\LRNA\Desktop\code\mounriver\ch592\ScienceOlympiadEV\obj/../Startup/startup_CH592.S:185
	
	mret
 866:	30200073          	mret

0000086a <main>:
main():
c:\Users\LRNA\Desktop\code\mounriver\ch592\ScienceOlympiadEV\obj/../User/Sandbox.c:19

int main() {
 86a:	1141                	addi	sp,sp,-16
c:\Users\LRNA\Desktop\code\mounriver\ch592\ScienceOlympiadEV\obj/../User/Sandbox.c:20
    SetSysClock(CLK_SOURCE_PLL_60MHz);
 86c:	04800513          	li	a0,72
c:\Users\LRNA\Desktop\code\mounriver\ch592\ScienceOlympiadEV\obj/../User/Sandbox.c:19
int main() {
 870:	c606                	sw	ra,12(sp)
c:\Users\LRNA\Desktop\code\mounriver\ch592\ScienceOlympiadEV\obj/../User/Sandbox.c:20
    SetSysClock(CLK_SOURCE_PLL_60MHz);
 872:	20000097          	auipc	ra,0x20000
 876:	84a080e7          	jalr	-1974(ra) # 200000bc <SetSysClock>
c:\Users\LRNA\Desktop\code\mounriver\ch592\ScienceOlympiadEV\obj/../User/Sandbox.c:22
    
    TMR0_TimerInit(FREQ_SYS);         
 87a:	03938537          	lui	a0,0x3938
 87e:	70050513          	addi	a0,a0,1792 # 3938700 <_data_lma+0x3937928>
 882:	2ec5                	jal	c72 <TMR0_TimerInit>
c:\Users\LRNA\Desktop\code\mounriver\ch592\ScienceOlympiadEV\obj/../User/Sandbox.c:23
    TMR0_ITCfg(ENABLE, TMR0_3_IT_CYC_END);
 884:	40002737          	lui	a4,0x40002
 888:	00274783          	lbu	a5,2(a4) # 40002002 <_eusrstack+0x1fffb802>
c:\Users\LRNA\Desktop\code\mounriver\ch592\ScienceOlympiadEV\obj/../User/Sandbox.c:25
    PFIC_EnableIRQ(TMR3_IRQn);
    DelayMs(200);
 88c:	0c800513          	li	a0,200
c:\Users\LRNA\Desktop\code\mounriver\ch592\ScienceOlympiadEV\obj/../User/Sandbox.c:23
    TMR0_ITCfg(ENABLE, TMR0_3_IT_CYC_END);
 890:	0017e793          	ori	a5,a5,1
 894:	00f70123          	sb	a5,2(a4)
PFIC_EnableIRQ():
c:/Users/LRNA/Desktop/code/mounriver/ch592/ScienceOlympiadEV/RVMSIS/core_riscv.h:144
 *
 * @param   IRQn    - Interrupt Numbers
 */
__attribute__((always_inline)) RV_STATIC_INLINE void PFIC_EnableIRQ(IRQn_Type IRQn)
{
    PFIC->IENR[((uint32_t)(IRQn) >> 5)] = (1 << ((uint32_t)(IRQn)&0x1F));
 898:	e000e7b7          	lui	a5,0xe000e
 89c:	4705                	li	a4,1
 89e:	10e7a223          	sw	a4,260(a5) # e000e104 <_eusrstack+0xc0007904>
main():
c:\Users\LRNA\Desktop\code\mounriver\ch592\ScienceOlympiadEV\obj/../User/Sandbox.c:25
    DelayMs(200);
 8a2:	20000097          	auipc	ra,0x20000
 8a6:	ac0080e7          	jalr	-1344(ra) # 20000362 <mDelaymS>
c:\Users\LRNA\Desktop\code\mounriver\ch592\ScienceOlympiadEV\obj/../User/Sandbox.c:26
    OLED_Init();
 8aa:	22dd                	jal	a90 <OLED_Init>
c:\Users\LRNA\Desktop\code\mounriver\ch592\ScienceOlympiadEV\obj/../User/Sandbox.c:27
    OLED_ShowString(0,0, "ABCDEFGH");
 8ac:	00000617          	auipc	a2,0x0
 8b0:	3e460613          	addi	a2,a2,996 # c90 <TMR0_TimerInit+0x1e>
 8b4:	4581                	li	a1,0
 8b6:	4501                	li	a0,0
 8b8:	24ed                	jal	ba2 <OLED_ShowString>
c:\Users\LRNA\Desktop\code\mounriver\ch592\ScienceOlympiadEV\obj/../User/Sandbox.c:29 (discriminator 1)
    while (1) {
        DelayMs(10);
 8ba:	4529                	li	a0,10
 8bc:	20000097          	auipc	ra,0x20000
 8c0:	aa6080e7          	jalr	-1370(ra) # 20000362 <mDelaymS>
c:\Users\LRNA\Desktop\code\mounriver\ch592\ScienceOlympiadEV\obj/../User/Sandbox.c:28 (discriminator 1)
    while (1) {
 8c4:	bfdd                	j	8ba <main+0x50>

000008c6 <I2C_Delay>:
I2C_Delay():
c:\Users\LRNA\Desktop\code\mounriver\ch592\ScienceOlympiadEV\obj/../User/oled_driver.c:70
};

// --- Bit-Bang I2C Helpers ---

// Tiny delay loop
void I2C_Delay(void) {
 8c6:	1141                	addi	sp,sp,-16
c:\Users\LRNA\Desktop\code\mounriver\ch592\ScienceOlympiadEV\obj/../User/oled_driver.c:71
    volatile uint8_t i = 10;
 8c8:	47a9                	li	a5,10
 8ca:	00f107a3          	sb	a5,15(sp)
c:\Users\LRNA\Desktop\code\mounriver\ch592\ScienceOlympiadEV\obj/../User/oled_driver.c:72 (discriminator 1)
    while(i--);
 8ce:	00f14703          	lbu	a4,15(sp)
 8d2:	fff70793          	addi	a5,a4,-1
 8d6:	0ff7f793          	zext.b	a5,a5
 8da:	00f107a3          	sb	a5,15(sp)
 8de:	fb65                	bnez	a4,8ce <I2C_Delay+0x8>
c:\Users\LRNA\Desktop\code\mounriver\ch592\ScienceOlympiadEV\obj/../User/oled_driver.c:73
}
 8e0:	0141                	addi	sp,sp,16
 8e2:	8082                	ret

000008e4 <I2C_Start>:
I2C_Start():
c:\Users\LRNA\Desktop\code\mounriver\ch592\ScienceOlympiadEV\obj/../User/oled_driver.c:75

void I2C_Start(void) {
 8e4:	1141                	addi	sp,sp,-16
 8e6:	c422                	sw	s0,8(sp)
c:\Users\LRNA\Desktop\code\mounriver\ch592\ScienceOlympiadEV\obj/../User/oled_driver.c:76
    GPIOB_SetBits(I2C_SDA_PIN);
 8e8:	40001437          	lui	s0,0x40001
 8ec:	0c840793          	addi	a5,s0,200 # 400010c8 <_eusrstack+0x1fffa8c8>
 8f0:	4398                	lw	a4,0(a5)
c:\Users\LRNA\Desktop\code\mounriver\ch592\ScienceOlympiadEV\obj/../User/oled_driver.c:75
void I2C_Start(void) {
 8f2:	c606                	sw	ra,12(sp)
c:\Users\LRNA\Desktop\code\mounriver\ch592\ScienceOlympiadEV\obj/../User/oled_driver.c:79
    GPIOB_SetBits(I2C_SCL_PIN);
    I2C_Delay();
    GPIOB_ResetBits(I2C_SDA_PIN);
 8f4:	0cc40413          	addi	s0,s0,204
c:\Users\LRNA\Desktop\code\mounriver\ch592\ScienceOlympiadEV\obj/../User/oled_driver.c:76
    GPIOB_SetBits(I2C_SDA_PIN);
 8f8:	01076713          	ori	a4,a4,16
 8fc:	c398                	sw	a4,0(a5)
c:\Users\LRNA\Desktop\code\mounriver\ch592\ScienceOlympiadEV\obj/../User/oled_driver.c:77
    GPIOB_SetBits(I2C_SCL_PIN);
 8fe:	4398                	lw	a4,0(a5)
 900:	08076713          	ori	a4,a4,128
 904:	c398                	sw	a4,0(a5)
c:\Users\LRNA\Desktop\code\mounriver\ch592\ScienceOlympiadEV\obj/../User/oled_driver.c:78
    I2C_Delay();
 906:	37c1                	jal	8c6 <I2C_Delay>
c:\Users\LRNA\Desktop\code\mounriver\ch592\ScienceOlympiadEV\obj/../User/oled_driver.c:79
    GPIOB_ResetBits(I2C_SDA_PIN);
 908:	401c                	lw	a5,0(s0)
 90a:	0107e793          	ori	a5,a5,16
 90e:	c01c                	sw	a5,0(s0)
c:\Users\LRNA\Desktop\code\mounriver\ch592\ScienceOlympiadEV\obj/../User/oled_driver.c:80
    I2C_Delay();
 910:	3f5d                	jal	8c6 <I2C_Delay>
c:\Users\LRNA\Desktop\code\mounriver\ch592\ScienceOlympiadEV\obj/../User/oled_driver.c:81
    GPIOB_ResetBits(I2C_SCL_PIN);
 912:	401c                	lw	a5,0(s0)
c:\Users\LRNA\Desktop\code\mounriver\ch592\ScienceOlympiadEV\obj/../User/oled_driver.c:82
}
 914:	40b2                	lw	ra,12(sp)
c:\Users\LRNA\Desktop\code\mounriver\ch592\ScienceOlympiadEV\obj/../User/oled_driver.c:81
    GPIOB_ResetBits(I2C_SCL_PIN);
 916:	0807e793          	ori	a5,a5,128
 91a:	c01c                	sw	a5,0(s0)
c:\Users\LRNA\Desktop\code\mounriver\ch592\ScienceOlympiadEV\obj/../User/oled_driver.c:82
}
 91c:	4422                	lw	s0,8(sp)
 91e:	0141                	addi	sp,sp,16
 920:	8082                	ret

00000922 <I2C_Stop>:
I2C_Stop():
c:\Users\LRNA\Desktop\code\mounriver\ch592\ScienceOlympiadEV\obj/../User/oled_driver.c:84

void I2C_Stop(void) {
 922:	1141                	addi	sp,sp,-16
 924:	c422                	sw	s0,8(sp)
c:\Users\LRNA\Desktop\code\mounriver\ch592\ScienceOlympiadEV\obj/../User/oled_driver.c:85
    GPIOB_ResetBits(I2C_SDA_PIN);
 926:	40001437          	lui	s0,0x40001
 92a:	0cc40713          	addi	a4,s0,204 # 400010cc <_eusrstack+0x1fffa8cc>
 92e:	431c                	lw	a5,0(a4)
c:\Users\LRNA\Desktop\code\mounriver\ch592\ScienceOlympiadEV\obj/../User/oled_driver.c:84
void I2C_Stop(void) {
 930:	c606                	sw	ra,12(sp)
c:\Users\LRNA\Desktop\code\mounriver\ch592\ScienceOlympiadEV\obj/../User/oled_driver.c:86
    GPIOB_SetBits(I2C_SCL_PIN);
 932:	0c840413          	addi	s0,s0,200
c:\Users\LRNA\Desktop\code\mounriver\ch592\ScienceOlympiadEV\obj/../User/oled_driver.c:85
    GPIOB_ResetBits(I2C_SDA_PIN);
 936:	0107e793          	ori	a5,a5,16
 93a:	c31c                	sw	a5,0(a4)
c:\Users\LRNA\Desktop\code\mounriver\ch592\ScienceOlympiadEV\obj/../User/oled_driver.c:86
    GPIOB_SetBits(I2C_SCL_PIN);
 93c:	401c                	lw	a5,0(s0)
 93e:	0807e793          	ori	a5,a5,128
 942:	c01c                	sw	a5,0(s0)
c:\Users\LRNA\Desktop\code\mounriver\ch592\ScienceOlympiadEV\obj/../User/oled_driver.c:87
    I2C_Delay();
 944:	3749                	jal	8c6 <I2C_Delay>
c:\Users\LRNA\Desktop\code\mounriver\ch592\ScienceOlympiadEV\obj/../User/oled_driver.c:88
    GPIOB_SetBits(I2C_SDA_PIN);
 946:	401c                	lw	a5,0(s0)
c:\Users\LRNA\Desktop\code\mounriver\ch592\ScienceOlympiadEV\obj/../User/oled_driver.c:90
    I2C_Delay();
}
 948:	40b2                	lw	ra,12(sp)
c:\Users\LRNA\Desktop\code\mounriver\ch592\ScienceOlympiadEV\obj/../User/oled_driver.c:88
    GPIOB_SetBits(I2C_SDA_PIN);
 94a:	0107e793          	ori	a5,a5,16
 94e:	c01c                	sw	a5,0(s0)
c:\Users\LRNA\Desktop\code\mounriver\ch592\ScienceOlympiadEV\obj/../User/oled_driver.c:90
}
 950:	4422                	lw	s0,8(sp)
 952:	0141                	addi	sp,sp,16
c:\Users\LRNA\Desktop\code\mounriver\ch592\ScienceOlympiadEV\obj/../User/oled_driver.c:89
    I2C_Delay();
 954:	bf8d                	j	8c6 <I2C_Delay>

00000956 <I2C_SendByte>:
I2C_SendByte():
c:\Users\LRNA\Desktop\code\mounriver\ch592\ScienceOlympiadEV\obj/../User/oled_driver.c:92

void I2C_SendByte(uint8_t byte) {
 956:	1101                	addi	sp,sp,-32
 958:	cc22                	sw	s0,24(sp)
 95a:	c84a                	sw	s2,16(sp)
 95c:	c452                	sw	s4,8(sp)
 95e:	ce06                	sw	ra,28(sp)
 960:	ca26                	sw	s1,20(sp)
 962:	c64e                	sw	s3,12(sp)
 964:	842a                	mv	s0,a0
 966:	4921                	li	s2,8
c:\Users\LRNA\Desktop\code\mounriver\ch592\ScienceOlympiadEV\obj/../User/oled_driver.c:96
    uint8_t i;
    for(i = 0; i < 8; i++) {
        if(byte & 0x80) GPIOB_SetBits(I2C_SDA_PIN);
        else            GPIOB_ResetBits(I2C_SDA_PIN);
 968:	40001a37          	lui	s4,0x40001
c:\Users\LRNA\Desktop\code\mounriver\ch592\ScienceOlympiadEV\obj/../User/oled_driver.c:95
        if(byte & 0x80) GPIOB_SetBits(I2C_SDA_PIN);
 96c:	01841793          	slli	a5,s0,0x18
 970:	87e1                	srai	a5,a5,0x18
 972:	0c8a0713          	addi	a4,s4,200 # 400010c8 <_eusrstack+0x1fffa8c8>
 976:	0007c463          	bltz	a5,97e <I2C_SendByte+0x28>
c:\Users\LRNA\Desktop\code\mounriver\ch592\ScienceOlympiadEV\obj/../User/oled_driver.c:96
        else            GPIOB_ResetBits(I2C_SDA_PIN);
 97a:	0cca0713          	addi	a4,s4,204
 97e:	431c                	lw	a5,0(a4)
c:\Users\LRNA\Desktop\code\mounriver\ch592\ScienceOlympiadEV\obj/../User/oled_driver.c:100
        
        byte <<= 1;
        I2C_Delay();
        GPIOB_SetBits(I2C_SCL_PIN);
 980:	0c8a0493          	addi	s1,s4,200
c:\Users\LRNA\Desktop\code\mounriver\ch592\ScienceOlympiadEV\obj/../User/oled_driver.c:94
    for(i = 0; i < 8; i++) {
 984:	197d                	addi	s2,s2,-1
c:\Users\LRNA\Desktop\code\mounriver\ch592\ScienceOlympiadEV\obj/../User/oled_driver.c:96
        else            GPIOB_ResetBits(I2C_SDA_PIN);
 986:	0107e793          	ori	a5,a5,16
 98a:	c31c                	sw	a5,0(a4)
c:\Users\LRNA\Desktop\code\mounriver\ch592\ScienceOlympiadEV\obj/../User/oled_driver.c:99
        I2C_Delay();
 98c:	3f2d                	jal	8c6 <I2C_Delay>
c:\Users\LRNA\Desktop\code\mounriver\ch592\ScienceOlympiadEV\obj/../User/oled_driver.c:100
        GPIOB_SetBits(I2C_SCL_PIN);
 98e:	409c                	lw	a5,0(s1)
c:\Users\LRNA\Desktop\code\mounriver\ch592\ScienceOlympiadEV\obj/../User/oled_driver.c:98
        byte <<= 1;
 990:	0406                	slli	s0,s0,0x1
c:\Users\LRNA\Desktop\code\mounriver\ch592\ScienceOlympiadEV\obj/../User/oled_driver.c:94
    for(i = 0; i < 8; i++) {
 992:	0ff97913          	zext.b	s2,s2
c:\Users\LRNA\Desktop\code\mounriver\ch592\ScienceOlympiadEV\obj/../User/oled_driver.c:100
        GPIOB_SetBits(I2C_SCL_PIN);
 996:	0807e793          	ori	a5,a5,128
 99a:	c09c                	sw	a5,0(s1)
c:\Users\LRNA\Desktop\code\mounriver\ch592\ScienceOlympiadEV\obj/../User/oled_driver.c:101
        I2C_Delay();
 99c:	372d                	jal	8c6 <I2C_Delay>
c:\Users\LRNA\Desktop\code\mounriver\ch592\ScienceOlympiadEV\obj/../User/oled_driver.c:102
        GPIOB_ResetBits(I2C_SCL_PIN);
 99e:	0cca2783          	lw	a5,204(s4)
c:\Users\LRNA\Desktop\code\mounriver\ch592\ScienceOlympiadEV\obj/../User/oled_driver.c:98
        byte <<= 1;
 9a2:	0ff47413          	zext.b	s0,s0
c:\Users\LRNA\Desktop\code\mounriver\ch592\ScienceOlympiadEV\obj/../User/oled_driver.c:102
        GPIOB_ResetBits(I2C_SCL_PIN);
 9a6:	0807e793          	ori	a5,a5,128
 9aa:	0cfa2623          	sw	a5,204(s4)
c:\Users\LRNA\Desktop\code\mounriver\ch592\ScienceOlympiadEV\obj/../User/oled_driver.c:94
    for(i = 0; i < 8; i++) {
 9ae:	fa091fe3          	bnez	s2,96c <I2C_SendByte+0x16>
c:\Users\LRNA\Desktop\code\mounriver\ch592\ScienceOlympiadEV\obj/../User/oled_driver.c:106
    }
    
    // Ack cycle (we just ignore the ack bit)
    GPIOB_SetBits(I2C_SDA_PIN); // Release line
 9b2:	409c                	lw	a5,0(s1)
 9b4:	0107e793          	ori	a5,a5,16
 9b8:	c09c                	sw	a5,0(s1)
c:\Users\LRNA\Desktop\code\mounriver\ch592\ScienceOlympiadEV\obj/../User/oled_driver.c:107
    I2C_Delay();
 9ba:	3731                	jal	8c6 <I2C_Delay>
c:\Users\LRNA\Desktop\code\mounriver\ch592\ScienceOlympiadEV\obj/../User/oled_driver.c:108
    GPIOB_SetBits(I2C_SCL_PIN);
 9bc:	409c                	lw	a5,0(s1)
 9be:	0807e793          	ori	a5,a5,128
 9c2:	c09c                	sw	a5,0(s1)
c:\Users\LRNA\Desktop\code\mounriver\ch592\ScienceOlympiadEV\obj/../User/oled_driver.c:109
    I2C_Delay();
 9c4:	3709                	jal	8c6 <I2C_Delay>
c:\Users\LRNA\Desktop\code\mounriver\ch592\ScienceOlympiadEV\obj/../User/oled_driver.c:110
    GPIOB_ResetBits(I2C_SCL_PIN);
 9c6:	0cca2783          	lw	a5,204(s4)
c:\Users\LRNA\Desktop\code\mounriver\ch592\ScienceOlympiadEV\obj/../User/oled_driver.c:111
}
 9ca:	40f2                	lw	ra,28(sp)
 9cc:	4462                	lw	s0,24(sp)
c:\Users\LRNA\Desktop\code\mounriver\ch592\ScienceOlympiadEV\obj/../User/oled_driver.c:110
    GPIOB_ResetBits(I2C_SCL_PIN);
 9ce:	0807e793          	ori	a5,a5,128
 9d2:	0cfa2623          	sw	a5,204(s4)
c:\Users\LRNA\Desktop\code\mounriver\ch592\ScienceOlympiadEV\obj/../User/oled_driver.c:111
}
 9d6:	44d2                	lw	s1,20(sp)
 9d8:	4942                	lw	s2,16(sp)
 9da:	49b2                	lw	s3,12(sp)
 9dc:	4a22                	lw	s4,8(sp)
 9de:	6105                	addi	sp,sp,32
 9e0:	8082                	ret

000009e2 <OLED_WriteCmd>:
OLED_WriteCmd():
c:\Users\LRNA\Desktop\code\mounriver\ch592\ScienceOlympiadEV\obj/../User/oled_driver.c:113

void OLED_WriteCmd(uint8_t cmd) {
 9e2:	1141                	addi	sp,sp,-16
 9e4:	c606                	sw	ra,12(sp)
 9e6:	c422                	sw	s0,8(sp)
 9e8:	842a                	mv	s0,a0
c:\Users\LRNA\Desktop\code\mounriver\ch592\ScienceOlympiadEV\obj/../User/oled_driver.c:114
    I2C_Start();
 9ea:	3ded                	jal	8e4 <I2C_Start>
c:\Users\LRNA\Desktop\code\mounriver\ch592\ScienceOlympiadEV\obj/../User/oled_driver.c:115
    I2C_SendByte(0x78); // Address
 9ec:	07800513          	li	a0,120
 9f0:	379d                	jal	956 <I2C_SendByte>
c:\Users\LRNA\Desktop\code\mounriver\ch592\ScienceOlympiadEV\obj/../User/oled_driver.c:116
    I2C_SendByte(0x00); // Command Mode
 9f2:	4501                	li	a0,0
 9f4:	378d                	jal	956 <I2C_SendByte>
c:\Users\LRNA\Desktop\code\mounriver\ch592\ScienceOlympiadEV\obj/../User/oled_driver.c:117
    I2C_SendByte(cmd);
 9f6:	8522                	mv	a0,s0
 9f8:	3fb9                	jal	956 <I2C_SendByte>
c:\Users\LRNA\Desktop\code\mounriver\ch592\ScienceOlympiadEV\obj/../User/oled_driver.c:119
    I2C_Stop();
}
 9fa:	4422                	lw	s0,8(sp)
 9fc:	40b2                	lw	ra,12(sp)
 9fe:	0141                	addi	sp,sp,16
c:\Users\LRNA\Desktop\code\mounriver\ch592\ScienceOlympiadEV\obj/../User/oled_driver.c:118
    I2C_Stop();
 a00:	b70d                	j	922 <I2C_Stop>

00000a02 <OLED_WriteData>:
OLED_WriteData():
c:\Users\LRNA\Desktop\code\mounriver\ch592\ScienceOlympiadEV\obj/../User/oled_driver.c:121

void OLED_WriteData(uint8_t data) {
 a02:	1141                	addi	sp,sp,-16
 a04:	c606                	sw	ra,12(sp)
 a06:	c422                	sw	s0,8(sp)
 a08:	842a                	mv	s0,a0
c:\Users\LRNA\Desktop\code\mounriver\ch592\ScienceOlympiadEV\obj/../User/oled_driver.c:122
    I2C_Start();
 a0a:	3de9                	jal	8e4 <I2C_Start>
c:\Users\LRNA\Desktop\code\mounriver\ch592\ScienceOlympiadEV\obj/../User/oled_driver.c:123
    I2C_SendByte(0x78); // Address
 a0c:	07800513          	li	a0,120
 a10:	3799                	jal	956 <I2C_SendByte>
c:\Users\LRNA\Desktop\code\mounriver\ch592\ScienceOlympiadEV\obj/../User/oled_driver.c:124
    I2C_SendByte(0x40); // Data Mode
 a12:	04000513          	li	a0,64
 a16:	3781                	jal	956 <I2C_SendByte>
c:\Users\LRNA\Desktop\code\mounriver\ch592\ScienceOlympiadEV\obj/../User/oled_driver.c:125
    I2C_SendByte(data);
 a18:	8522                	mv	a0,s0
 a1a:	3f35                	jal	956 <I2C_SendByte>
c:\Users\LRNA\Desktop\code\mounriver\ch592\ScienceOlympiadEV\obj/../User/oled_driver.c:127
    I2C_Stop();
}
 a1c:	4422                	lw	s0,8(sp)
 a1e:	40b2                	lw	ra,12(sp)
 a20:	0141                	addi	sp,sp,16
c:\Users\LRNA\Desktop\code\mounriver\ch592\ScienceOlympiadEV\obj/../User/oled_driver.c:126
    I2C_Stop();
 a22:	b701                	j	922 <I2C_Stop>

00000a24 <OLED_SetCursor>:
OLED_SetCursor():
c:\Users\LRNA\Desktop\code\mounriver\ch592\ScienceOlympiadEV\obj/../User/oled_driver.c:168
    OLED_Clear();
}

// Sets cursor to a specific page (row 0-3) and column (0-127)
void OLED_SetCursor(uint8_t page, uint8_t col) {
    OLED_WriteCmd(0xB0 + page);
 a24:	fb050513          	addi	a0,a0,-80
c:\Users\LRNA\Desktop\code\mounriver\ch592\ScienceOlympiadEV\obj/../User/oled_driver.c:167
void OLED_SetCursor(uint8_t page, uint8_t col) {
 a28:	1141                	addi	sp,sp,-16
c:\Users\LRNA\Desktop\code\mounriver\ch592\ScienceOlympiadEV\obj/../User/oled_driver.c:168
    OLED_WriteCmd(0xB0 + page);
 a2a:	0ff57513          	zext.b	a0,a0
c:\Users\LRNA\Desktop\code\mounriver\ch592\ScienceOlympiadEV\obj/../User/oled_driver.c:167
void OLED_SetCursor(uint8_t page, uint8_t col) {
 a2e:	c606                	sw	ra,12(sp)
 a30:	c422                	sw	s0,8(sp)
 a32:	842e                	mv	s0,a1
c:\Users\LRNA\Desktop\code\mounriver\ch592\ScienceOlympiadEV\obj/../User/oled_driver.c:168
    OLED_WriteCmd(0xB0 + page);
 a34:	377d                	jal	9e2 <OLED_WriteCmd>
c:\Users\LRNA\Desktop\code\mounriver\ch592\ScienceOlympiadEV\obj/../User/oled_driver.c:169
    OLED_WriteCmd(0x00 | (col & 0x0F));
 a36:	00f47513          	andi	a0,s0,15
 a3a:	3765                	jal	9e2 <OLED_WriteCmd>
c:\Users\LRNA\Desktop\code\mounriver\ch592\ScienceOlympiadEV\obj/../User/oled_driver.c:170
    OLED_WriteCmd(0x10 | ((col >> 4) & 0x0F));
 a3c:	00445513          	srli	a0,s0,0x4
c:\Users\LRNA\Desktop\code\mounriver\ch592\ScienceOlympiadEV\obj/../User/oled_driver.c:171
}
 a40:	4422                	lw	s0,8(sp)
 a42:	40b2                	lw	ra,12(sp)
c:\Users\LRNA\Desktop\code\mounriver\ch592\ScienceOlympiadEV\obj/../User/oled_driver.c:170
    OLED_WriteCmd(0x10 | ((col >> 4) & 0x0F));
 a44:	01056513          	ori	a0,a0,16
c:\Users\LRNA\Desktop\code\mounriver\ch592\ScienceOlympiadEV\obj/../User/oled_driver.c:171
}
 a48:	0141                	addi	sp,sp,16
c:\Users\LRNA\Desktop\code\mounriver\ch592\ScienceOlympiadEV\obj/../User/oled_driver.c:170
    OLED_WriteCmd(0x10 | ((col >> 4) & 0x0F));
 a4a:	bf61                	j	9e2 <OLED_WriteCmd>

00000a4c <OLED_Clear>:
OLED_Clear():
c:\Users\LRNA\Desktop\code\mounriver\ch592\ScienceOlympiadEV\obj/../User/oled_driver.c:173

void OLED_Clear(void) {
 a4c:	1141                	addi	sp,sp,-16
 a4e:	c422                	sw	s0,8(sp)
 a50:	c04a                	sw	s2,0(sp)
 a52:	c606                	sw	ra,12(sp)
 a54:	c226                	sw	s1,4(sp)
 a56:	0b000413          	li	s0,176
c:\Users\LRNA\Desktop\code\mounriver\ch592\ScienceOlympiadEV\obj/../User/oled_driver.c:175
    uint8_t i, n;
    for(i = 0; i < 4; i++) { // 4 Pages (32 rows / 8)
 a5a:	0b400913          	li	s2,180
c:\Users\LRNA\Desktop\code\mounriver\ch592\ScienceOlympiadEV\obj/../User/oled_driver.c:176
        OLED_WriteCmd(0xB0 + i); // Set Page
 a5e:	8522                	mv	a0,s0
 a60:	3749                	jal	9e2 <OLED_WriteCmd>
c:\Users\LRNA\Desktop\code\mounriver\ch592\ScienceOlympiadEV\obj/../User/oled_driver.c:177
        OLED_WriteCmd(0x00);     // Set Lower Column Start
 a62:	4501                	li	a0,0
 a64:	3fbd                	jal	9e2 <OLED_WriteCmd>
c:\Users\LRNA\Desktop\code\mounriver\ch592\ScienceOlympiadEV\obj/../User/oled_driver.c:178
        OLED_WriteCmd(0x10);     // Set Higher Column Start
 a66:	4541                	li	a0,16
 a68:	3fad                	jal	9e2 <OLED_WriteCmd>
 a6a:	08000493          	li	s1,128
c:\Users\LRNA\Desktop\code\mounriver\ch592\ScienceOlympiadEV\obj/../User/oled_driver.c:179 (discriminator 3)
        for(n = 0; n < 128; n++) {
 a6e:	14fd                	addi	s1,s1,-1
c:\Users\LRNA\Desktop\code\mounriver\ch592\ScienceOlympiadEV\obj/../User/oled_driver.c:180 (discriminator 3)
            OLED_WriteData(0x00);
 a70:	4501                	li	a0,0
c:\Users\LRNA\Desktop\code\mounriver\ch592\ScienceOlympiadEV\obj/../User/oled_driver.c:179 (discriminator 3)
        for(n = 0; n < 128; n++) {
 a72:	0ff4f493          	zext.b	s1,s1
c:\Users\LRNA\Desktop\code\mounriver\ch592\ScienceOlympiadEV\obj/../User/oled_driver.c:180 (discriminator 3)
            OLED_WriteData(0x00);
 a76:	3771                	jal	a02 <OLED_WriteData>
c:\Users\LRNA\Desktop\code\mounriver\ch592\ScienceOlympiadEV\obj/../User/oled_driver.c:179 (discriminator 3)
        for(n = 0; n < 128; n++) {
 a78:	f8fd                	bnez	s1,a6e <OLED_Clear+0x22>
c:\Users\LRNA\Desktop\code\mounriver\ch592\ScienceOlympiadEV\obj/../User/oled_driver.c:175 (discriminator 2)
    for(i = 0; i < 4; i++) { // 4 Pages (32 rows / 8)
 a7a:	0405                	addi	s0,s0,1
 a7c:	0ff47413          	zext.b	s0,s0
 a80:	fd241fe3          	bne	s0,s2,a5e <OLED_Clear+0x12>
c:\Users\LRNA\Desktop\code\mounriver\ch592\ScienceOlympiadEV\obj/../User/oled_driver.c:183
        }
    }
}
 a84:	40b2                	lw	ra,12(sp)
 a86:	4422                	lw	s0,8(sp)
 a88:	4492                	lw	s1,4(sp)
 a8a:	4902                	lw	s2,0(sp)
 a8c:	0141                	addi	sp,sp,16
 a8e:	8082                	ret

00000a90 <OLED_Init>:
OLED_Init():
c:\Users\LRNA\Desktop\code\mounriver\ch592\ScienceOlympiadEV\obj/../User/oled_driver.c:131
void OLED_Init(void) {
 a90:	1141                	addi	sp,sp,-16
c:\Users\LRNA\Desktop\code\mounriver\ch592\ScienceOlympiadEV\obj/../User/oled_driver.c:132
    GPIOB_ModeCfg(I2C_SDA_PIN | I2C_SCL_PIN, GPIO_ModeOut_PP_5mA);
 a92:	458d                	li	a1,3
 a94:	09000513          	li	a0,144
c:\Users\LRNA\Desktop\code\mounriver\ch592\ScienceOlympiadEV\obj/../User/oled_driver.c:131
void OLED_Init(void) {
 a98:	c606                	sw	ra,12(sp)
c:\Users\LRNA\Desktop\code\mounriver\ch592\ScienceOlympiadEV\obj/../User/oled_driver.c:132
    GPIOB_ModeCfg(I2C_SDA_PIN | I2C_SCL_PIN, GPIO_ModeOut_PP_5mA);
 a9a:	2a2d                	jal	bd4 <GPIOB_ModeCfg>
c:\Users\LRNA\Desktop\code\mounriver\ch592\ScienceOlympiadEV\obj/../User/oled_driver.c:133
    GPIOB_SetBits(I2C_SDA_PIN | I2C_SCL_PIN); // Idle High
 a9c:	400017b7          	lui	a5,0x40001
 aa0:	0c878793          	addi	a5,a5,200 # 400010c8 <_eusrstack+0x1fffa8c8>
 aa4:	4398                	lw	a4,0(a5)
c:\Users\LRNA\Desktop\code\mounriver\ch592\ScienceOlympiadEV\obj/../User/oled_driver.c:136
    OLED_WriteCmd(0xAE); // Display Off
 aa6:	0ae00513          	li	a0,174
c:\Users\LRNA\Desktop\code\mounriver\ch592\ScienceOlympiadEV\obj/../User/oled_driver.c:133
    GPIOB_SetBits(I2C_SDA_PIN | I2C_SCL_PIN); // Idle High
 aaa:	09076713          	ori	a4,a4,144
 aae:	c398                	sw	a4,0(a5)
c:\Users\LRNA\Desktop\code\mounriver\ch592\ScienceOlympiadEV\obj/../User/oled_driver.c:136
    OLED_WriteCmd(0xAE); // Display Off
 ab0:	3f0d                	jal	9e2 <OLED_WriteCmd>
c:\Users\LRNA\Desktop\code\mounriver\ch592\ScienceOlympiadEV\obj/../User/oled_driver.c:137
    OLED_WriteCmd(0x20); // Set Memory Addressing Mode
 ab2:	02000513          	li	a0,32
 ab6:	3735                	jal	9e2 <OLED_WriteCmd>
c:\Users\LRNA\Desktop\code\mounriver\ch592\ScienceOlympiadEV\obj/../User/oled_driver.c:138
    OLED_WriteCmd(0x00); // 00 = Horizontal Addressing Mode (Good for text)
 ab8:	4501                	li	a0,0
 aba:	3725                	jal	9e2 <OLED_WriteCmd>
c:\Users\LRNA\Desktop\code\mounriver\ch592\ScienceOlympiadEV\obj/../User/oled_driver.c:139
    OLED_WriteCmd(0xC8); // Set COM Output Scan Direction
 abc:	0c800513          	li	a0,200
 ac0:	370d                	jal	9e2 <OLED_WriteCmd>
c:\Users\LRNA\Desktop\code\mounriver\ch592\ScienceOlympiadEV\obj/../User/oled_driver.c:140
    OLED_WriteCmd(0x00); // Set Low Column Address
 ac2:	4501                	li	a0,0
 ac4:	3f39                	jal	9e2 <OLED_WriteCmd>
c:\Users\LRNA\Desktop\code\mounriver\ch592\ScienceOlympiadEV\obj/../User/oled_driver.c:141
    OLED_WriteCmd(0x10); // Set High Column Address
 ac6:	4541                	li	a0,16
 ac8:	3f29                	jal	9e2 <OLED_WriteCmd>
c:\Users\LRNA\Desktop\code\mounriver\ch592\ScienceOlympiadEV\obj/../User/oled_driver.c:142
    OLED_WriteCmd(0x40); // Set Start Line
 aca:	04000513          	li	a0,64
 ace:	3f11                	jal	9e2 <OLED_WriteCmd>
c:\Users\LRNA\Desktop\code\mounriver\ch592\ScienceOlympiadEV\obj/../User/oled_driver.c:143
    OLED_WriteCmd(0x81); // Contrast Control
 ad0:	08100513          	li	a0,129
 ad4:	3739                	jal	9e2 <OLED_WriteCmd>
c:\Users\LRNA\Desktop\code\mounriver\ch592\ScienceOlympiadEV\obj/../User/oled_driver.c:144
    OLED_WriteCmd(0xFF);
 ad6:	0ff00513          	li	a0,255
 ada:	3721                	jal	9e2 <OLED_WriteCmd>
c:\Users\LRNA\Desktop\code\mounriver\ch592\ScienceOlympiadEV\obj/../User/oled_driver.c:145
    OLED_WriteCmd(0xA1); // Set Segment Re-map
 adc:	0a100513          	li	a0,161
 ae0:	3709                	jal	9e2 <OLED_WriteCmd>
c:\Users\LRNA\Desktop\code\mounriver\ch592\ScienceOlympiadEV\obj/../User/oled_driver.c:146
    OLED_WriteCmd(0xA6); // Normal Display
 ae2:	0a600513          	li	a0,166
 ae6:	3df5                	jal	9e2 <OLED_WriteCmd>
c:\Users\LRNA\Desktop\code\mounriver\ch592\ScienceOlympiadEV\obj/../User/oled_driver.c:147
    OLED_WriteCmd(0xA8); // Multiplex Ratio
 ae8:	0a800513          	li	a0,168
 aec:	3ddd                	jal	9e2 <OLED_WriteCmd>
c:\Users\LRNA\Desktop\code\mounriver\ch592\ScienceOlympiadEV\obj/../User/oled_driver.c:148
    OLED_WriteCmd(0x1F); // 32 rows -> 31
 aee:	457d                	li	a0,31
 af0:	3dcd                	jal	9e2 <OLED_WriteCmd>
c:\Users\LRNA\Desktop\code\mounriver\ch592\ScienceOlympiadEV\obj/../User/oled_driver.c:149
    OLED_WriteCmd(0xD3); // Display Offset
 af2:	0d300513          	li	a0,211
 af6:	35f5                	jal	9e2 <OLED_WriteCmd>
c:\Users\LRNA\Desktop\code\mounriver\ch592\ScienceOlympiadEV\obj/../User/oled_driver.c:150
    OLED_WriteCmd(0x00);
 af8:	4501                	li	a0,0
 afa:	35e5                	jal	9e2 <OLED_WriteCmd>
c:\Users\LRNA\Desktop\code\mounriver\ch592\ScienceOlympiadEV\obj/../User/oled_driver.c:151
    OLED_WriteCmd(0xD5); // Display Clock Divide
 afc:	0d500513          	li	a0,213
 b00:	35cd                	jal	9e2 <OLED_WriteCmd>
c:\Users\LRNA\Desktop\code\mounriver\ch592\ScienceOlympiadEV\obj/../User/oled_driver.c:152
    OLED_WriteCmd(0xF0);
 b02:	0f000513          	li	a0,240
 b06:	3df1                	jal	9e2 <OLED_WriteCmd>
c:\Users\LRNA\Desktop\code\mounriver\ch592\ScienceOlympiadEV\obj/../User/oled_driver.c:153
    OLED_WriteCmd(0xD9); // Pre-charge Period
 b08:	0d900513          	li	a0,217
 b0c:	3dd9                	jal	9e2 <OLED_WriteCmd>
c:\Users\LRNA\Desktop\code\mounriver\ch592\ScienceOlympiadEV\obj/../User/oled_driver.c:154
    OLED_WriteCmd(0x22);
 b0e:	02200513          	li	a0,34
 b12:	3dc1                	jal	9e2 <OLED_WriteCmd>
c:\Users\LRNA\Desktop\code\mounriver\ch592\ScienceOlympiadEV\obj/../User/oled_driver.c:155
    OLED_WriteCmd(0xDA); // COM Pins Config
 b14:	0da00513          	li	a0,218
 b18:	35e9                	jal	9e2 <OLED_WriteCmd>
c:\Users\LRNA\Desktop\code\mounriver\ch592\ScienceOlympiadEV\obj/../User/oled_driver.c:156
    OLED_WriteCmd(0x02);
 b1a:	4509                	li	a0,2
 b1c:	35d9                	jal	9e2 <OLED_WriteCmd>
c:\Users\LRNA\Desktop\code\mounriver\ch592\ScienceOlympiadEV\obj/../User/oled_driver.c:157
    OLED_WriteCmd(0xDB); // VCOMH Deselect Level
 b1e:	0db00513          	li	a0,219
 b22:	35c1                	jal	9e2 <OLED_WriteCmd>
c:\Users\LRNA\Desktop\code\mounriver\ch592\ScienceOlympiadEV\obj/../User/oled_driver.c:158
    OLED_WriteCmd(0x20);
 b24:	02000513          	li	a0,32
 b28:	3d6d                	jal	9e2 <OLED_WriteCmd>
c:\Users\LRNA\Desktop\code\mounriver\ch592\ScienceOlympiadEV\obj/../User/oled_driver.c:159
    OLED_WriteCmd(0x8D); // Charge Pump
 b2a:	08d00513          	li	a0,141
 b2e:	3d55                	jal	9e2 <OLED_WriteCmd>
c:\Users\LRNA\Desktop\code\mounriver\ch592\ScienceOlympiadEV\obj/../User/oled_driver.c:160
    OLED_WriteCmd(0x14); // Enable
 b30:	4551                	li	a0,20
 b32:	3d45                	jal	9e2 <OLED_WriteCmd>
c:\Users\LRNA\Desktop\code\mounriver\ch592\ScienceOlympiadEV\obj/../User/oled_driver.c:161
    OLED_WriteCmd(0xAF); // Display ON
 b34:	0af00513          	li	a0,175
 b38:	356d                	jal	9e2 <OLED_WriteCmd>
c:\Users\LRNA\Desktop\code\mounriver\ch592\ScienceOlympiadEV\obj/../User/oled_driver.c:164
}
 b3a:	40b2                	lw	ra,12(sp)
 b3c:	0141                	addi	sp,sp,16
c:\Users\LRNA\Desktop\code\mounriver\ch592\ScienceOlympiadEV\obj/../User/oled_driver.c:163
    OLED_Clear();
 b3e:	b739                	j	a4c <OLED_Clear>

00000b40 <OLED_ShowChar>:
OLED_ShowChar():
c:\Users\LRNA\Desktop\code\mounriver\ch592\ScienceOlympiadEV\obj/../User/oled_driver.c:186

// Show a single character
void OLED_ShowChar(uint8_t x, uint8_t y, char chr) {
 b40:	1101                	addi	sp,sp,-32
 b42:	cc22                	sw	s0,24(sp)
 b44:	87aa                	mv	a5,a0
c:\Users\LRNA\Desktop\code\mounriver\ch592\ScienceOlympiadEV\obj/../User/oled_driver.c:189
    uint8_t i;
    // Offset for ASCII (Space is 32, our array starts at 0)
    uint8_t char_index = chr - ' '; 
 b46:	fe060413          	addi	s0,a2,-32
c:\Users\LRNA\Desktop\code\mounriver\ch592\ScienceOlympiadEV\obj/../User/oled_driver.c:186
void OLED_ShowChar(uint8_t x, uint8_t y, char chr) {
 b4a:	ce06                	sw	ra,28(sp)
 b4c:	ca26                	sw	s1,20(sp)
 b4e:	c84a                	sw	s2,16(sp)
 b50:	c64e                	sw	s3,12(sp)
c:\Users\LRNA\Desktop\code\mounriver\ch592\ScienceOlympiadEV\obj/../User/oled_driver.c:191
    
    if(x > 120) { x = 0; y++; } // Wrap if too wide
 b52:	07800713          	li	a4,120
c:\Users\LRNA\Desktop\code\mounriver\ch592\ScienceOlympiadEV\obj/../User/oled_driver.c:186
void OLED_ShowChar(uint8_t x, uint8_t y, char chr) {
 b56:	852e                	mv	a0,a1
c:\Users\LRNA\Desktop\code\mounriver\ch592\ScienceOlympiadEV\obj/../User/oled_driver.c:189
    uint8_t char_index = chr - ' '; 
 b58:	0ff47413          	zext.b	s0,s0
c:\Users\LRNA\Desktop\code\mounriver\ch592\ScienceOlympiadEV\obj/../User/oled_driver.c:191
    if(x > 120) { x = 0; y++; } // Wrap if too wide
 b5c:	00f77763          	bgeu	a4,a5,b6a <OLED_ShowChar+0x2a>
c:\Users\LRNA\Desktop\code\mounriver\ch592\ScienceOlympiadEV\obj/../User/oled_driver.c:191 (discriminator 1)
 b60:	00158513          	addi	a0,a1,1
 b64:	0ff57513          	zext.b	a0,a0
 b68:	4781                	li	a5,0
c:\Users\LRNA\Desktop\code\mounriver\ch592\ScienceOlympiadEV\obj/../User/oled_driver.c:193

    OLED_SetCursor(y, x);
 b6a:	85be                	mv	a1,a5
 b6c:	3d65                	jal	a24 <OLED_SetCursor>
c:\Users\LRNA\Desktop\code\mounriver\ch592\ScienceOlympiadEV\obj/../User/oled_driver.c:195
    
    for(i = 0; i < 5; i++) {
 b6e:	4795                	li	a5,5
 b70:	02f40433          	mul	s0,s0,a5
c:\Users\LRNA\Desktop\code\mounriver\ch592\ScienceOlympiadEV\obj/../User/oled_driver.c:193
    OLED_SetCursor(y, x);
 b74:	4481                	li	s1,0
c:\Users\LRNA\Desktop\code\mounriver\ch592\ScienceOlympiadEV\obj/../User/oled_driver.c:196
        OLED_WriteData(FONT5x7[char_index][i]);
 b76:	00000997          	auipc	s3,0x0
 b7a:	12698993          	addi	s3,s3,294 # c9c <FONT5x7>
c:\Users\LRNA\Desktop\code\mounriver\ch592\ScienceOlympiadEV\obj/../User/oled_driver.c:195
    for(i = 0; i < 5; i++) {
 b7e:	4915                	li	s2,5
c:\Users\LRNA\Desktop\code\mounriver\ch592\ScienceOlympiadEV\obj/../User/oled_driver.c:196 (discriminator 3)
        OLED_WriteData(FONT5x7[char_index][i]);
 b80:	008487b3          	add	a5,s1,s0
 b84:	97ce                	add	a5,a5,s3
 b86:	0007c503          	lbu	a0,0(a5)
c:\Users\LRNA\Desktop\code\mounriver\ch592\ScienceOlympiadEV\obj/../User/oled_driver.c:195 (discriminator 3)
    for(i = 0; i < 5; i++) {
 b8a:	0485                	addi	s1,s1,1
c:\Users\LRNA\Desktop\code\mounriver\ch592\ScienceOlympiadEV\obj/../User/oled_driver.c:196 (discriminator 3)
        OLED_WriteData(FONT5x7[char_index][i]);
 b8c:	3d9d                	jal	a02 <OLED_WriteData>
c:\Users\LRNA\Desktop\code\mounriver\ch592\ScienceOlympiadEV\obj/../User/oled_driver.c:195 (discriminator 3)
    for(i = 0; i < 5; i++) {
 b8e:	ff2499e3          	bne	s1,s2,b80 <OLED_ShowChar+0x40>
c:\Users\LRNA\Desktop\code\mounriver\ch592\ScienceOlympiadEV\obj/../User/oled_driver.c:200
    }
    // Add 1 pixel spacing
    OLED_WriteData(0x00);
}
 b92:	4462                	lw	s0,24(sp)
 b94:	40f2                	lw	ra,28(sp)
 b96:	44d2                	lw	s1,20(sp)
 b98:	4942                	lw	s2,16(sp)
 b9a:	49b2                	lw	s3,12(sp)
c:\Users\LRNA\Desktop\code\mounriver\ch592\ScienceOlympiadEV\obj/../User/oled_driver.c:199
    OLED_WriteData(0x00);
 b9c:	4501                	li	a0,0
c:\Users\LRNA\Desktop\code\mounriver\ch592\ScienceOlympiadEV\obj/../User/oled_driver.c:200
}
 b9e:	6105                	addi	sp,sp,32
c:\Users\LRNA\Desktop\code\mounriver\ch592\ScienceOlympiadEV\obj/../User/oled_driver.c:199
    OLED_WriteData(0x00);
 ba0:	b58d                	j	a02 <OLED_WriteData>

00000ba2 <OLED_ShowString>:
OLED_ShowString():
c:\Users\LRNA\Desktop\code\mounriver\ch592\ScienceOlympiadEV\obj/../User/oled_driver.c:203

// Show a string
void OLED_ShowString(uint8_t x, uint8_t y, char *str) {
 ba2:	1141                	addi	sp,sp,-16
 ba4:	c422                	sw	s0,8(sp)
 ba6:	c226                	sw	s1,4(sp)
 ba8:	c04a                	sw	s2,0(sp)
 baa:	c606                	sw	ra,12(sp)
 bac:	842a                	mv	s0,a0
 bae:	892e                	mv	s2,a1
 bb0:	84b2                	mv	s1,a2
c:\Users\LRNA\Desktop\code\mounriver\ch592\ScienceOlympiadEV\obj/../User/oled_driver.c:204
    while(*str) {
 bb2:	00048603          	lb	a2,0(s1)
 bb6:	e619                	bnez	a2,bc4 <OLED_ShowString+0x22>
c:\Users\LRNA\Desktop\code\mounriver\ch592\ScienceOlympiadEV\obj/../User/oled_driver.c:209
        OLED_ShowChar(x, y, *str);
        x += 6; // 5 width + 1 space
        str++;
    }
 bb8:	40b2                	lw	ra,12(sp)
 bba:	4422                	lw	s0,8(sp)
 bbc:	4492                	lw	s1,4(sp)
 bbe:	4902                	lw	s2,0(sp)
 bc0:	0141                	addi	sp,sp,16
 bc2:	8082                	ret
c:\Users\LRNA\Desktop\code\mounriver\ch592\ScienceOlympiadEV\obj/../User/oled_driver.c:205
        OLED_ShowChar(x, y, *str);
 bc4:	8522                	mv	a0,s0
 bc6:	85ca                	mv	a1,s2
c:\Users\LRNA\Desktop\code\mounriver\ch592\ScienceOlympiadEV\obj/../User/oled_driver.c:206
        x += 6; // 5 width + 1 space
 bc8:	0419                	addi	s0,s0,6
c:\Users\LRNA\Desktop\code\mounriver\ch592\ScienceOlympiadEV\obj/../User/oled_driver.c:205
        OLED_ShowChar(x, y, *str);
 bca:	3f9d                	jal	b40 <OLED_ShowChar>
c:\Users\LRNA\Desktop\code\mounriver\ch592\ScienceOlympiadEV\obj/../User/oled_driver.c:206
        x += 6; // 5 width + 1 space
 bcc:	0ff47413          	zext.b	s0,s0
c:\Users\LRNA\Desktop\code\mounriver\ch592\ScienceOlympiadEV\obj/../User/oled_driver.c:207
        str++;
 bd0:	0485                	addi	s1,s1,1
 bd2:	b7c5                	j	bb2 <OLED_ShowString+0x10>

00000bd4 <GPIOB_ModeCfg>:
GPIOB_ModeCfg():
c:\Users\LRNA\Desktop\code\mounriver\ch592\ScienceOlympiadEV\obj/../StdPeriphDriver/CH59x_gpio.c:74
 *
 * @return  none
 */
void GPIOB_ModeCfg(uint32_t pin, GPIOModeTypeDef mode)
{
    switch(mode)
 bd4:	4791                	li	a5,4
 bd6:	08b7ea63          	bltu	a5,a1,c6a <GPIOB_ModeCfg+0x96>
 bda:	00000797          	auipc	a5,0x0
 bde:	1ea78793          	addi	a5,a5,490 # dc4 <FONT5x7+0x128>
 be2:	058a                	slli	a1,a1,0x2
 be4:	95be                	add	a1,a1,a5
 be6:	4198                	lw	a4,0(a1)
 be8:	973e                	add	a4,a4,a5
 bea:	400017b7          	lui	a5,0x40001
 bee:	0d478793          	addi	a5,a5,212 # 400010d4 <_eusrstack+0x1fffa8d4>
 bf2:	8702                	jr	a4
c:\Users\LRNA\Desktop\code\mounriver\ch592\ScienceOlympiadEV\obj/../StdPeriphDriver/CH59x_gpio.c:77
    {
        case GPIO_ModeIN_Floating:
            R32_PB_PD_DRV &= ~pin;
 bf4:	4394                	lw	a3,0(a5)
 bf6:	fff54513          	not	a0,a0
 bfa:	40001737          	lui	a4,0x40001
 bfe:	8ee9                	and	a3,a3,a0
 c00:	c394                	sw	a3,0(a5)
c:\Users\LRNA\Desktop\code\mounriver\ch592\ScienceOlympiadEV\obj/../StdPeriphDriver/CH59x_gpio.c:78
            R32_PB_PU &= ~pin;
 c02:	0d070693          	addi	a3,a4,208 # 400010d0 <_eusrstack+0x1fffa8d0>
 c06:	429c                	lw	a5,0(a3)
c:\Users\LRNA\Desktop\code\mounriver\ch592\ScienceOlympiadEV\obj/../StdPeriphDriver/CH59x_gpio.c:90
            R32_PB_DIR &= ~pin;
            break;

        case GPIO_ModeIN_PD:
            R32_PB_PD_DRV |= pin;
            R32_PB_PU &= ~pin;
 c08:	8fe9                	and	a5,a5,a0
 c0a:	c29c                	sw	a5,0(a3)
c:\Users\LRNA\Desktop\code\mounriver\ch592\ScienceOlympiadEV\obj/../StdPeriphDriver/CH59x_gpio.c:91
            R32_PB_DIR &= ~pin;
 c0c:	0c070793          	addi	a5,a4,192
 c10:	4398                	lw	a4,0(a5)
 c12:	8d79                	and	a0,a0,a4
 c14:	c388                	sw	a0,0(a5)
c:\Users\LRNA\Desktop\code\mounriver\ch592\ScienceOlympiadEV\obj/../StdPeriphDriver/CH59x_gpio.c:92
            break;
 c16:	8082                	ret
c:\Users\LRNA\Desktop\code\mounriver\ch592\ScienceOlympiadEV\obj/../StdPeriphDriver/CH59x_gpio.c:83
            R32_PB_PD_DRV &= ~pin;
 c18:	4390                	lw	a2,0(a5)
 c1a:	fff54693          	not	a3,a0
 c1e:	40001737          	lui	a4,0x40001
 c22:	8e75                	and	a2,a2,a3
 c24:	c390                	sw	a2,0(a5)
c:\Users\LRNA\Desktop\code\mounriver\ch592\ScienceOlympiadEV\obj/../StdPeriphDriver/CH59x_gpio.c:84
            R32_PB_PU |= pin;
 c26:	0d070613          	addi	a2,a4,208 # 400010d0 <_eusrstack+0x1fffa8d0>
 c2a:	421c                	lw	a5,0(a2)
 c2c:	8fc9                	or	a5,a5,a0
 c2e:	c21c                	sw	a5,0(a2)
c:\Users\LRNA\Desktop\code\mounriver\ch592\ScienceOlympiadEV\obj/../StdPeriphDriver/CH59x_gpio.c:85
            R32_PB_DIR &= ~pin;
 c30:	0c070793          	addi	a5,a4,192
 c34:	4398                	lw	a4,0(a5)
 c36:	8ef9                	and	a3,a3,a4
 c38:	c394                	sw	a3,0(a5)
c:\Users\LRNA\Desktop\code\mounriver\ch592\ScienceOlympiadEV\obj/../StdPeriphDriver/CH59x_gpio.c:86
            break;
 c3a:	8082                	ret
c:\Users\LRNA\Desktop\code\mounriver\ch592\ScienceOlympiadEV\obj/../StdPeriphDriver/CH59x_gpio.c:89
            R32_PB_PD_DRV |= pin;
 c3c:	4394                	lw	a3,0(a5)
 c3e:	40001737          	lui	a4,0x40001
 c42:	8ec9                	or	a3,a3,a0
 c44:	c394                	sw	a3,0(a5)
c:\Users\LRNA\Desktop\code\mounriver\ch592\ScienceOlympiadEV\obj/../StdPeriphDriver/CH59x_gpio.c:90
            R32_PB_PU &= ~pin;
 c46:	0d070693          	addi	a3,a4,208 # 400010d0 <_eusrstack+0x1fffa8d0>
 c4a:	429c                	lw	a5,0(a3)
 c4c:	fff54513          	not	a0,a0
 c50:	bf65                	j	c08 <GPIOB_ModeCfg+0x34>
c:\Users\LRNA\Desktop\code\mounriver\ch592\ScienceOlympiadEV\obj/../StdPeriphDriver/CH59x_gpio.c:95

        case GPIO_ModeOut_PP_5mA:
            R32_PB_PD_DRV &= ~pin;
 c52:	4394                	lw	a3,0(a5)
 c54:	fff54713          	not	a4,a0
 c58:	8f75                	and	a4,a4,a3
c:\Users\LRNA\Desktop\code\mounriver\ch592\ScienceOlympiadEV\obj/../StdPeriphDriver/CH59x_gpio.c:100
            R32_PB_DIR |= pin;
            break;

        case GPIO_ModeOut_PP_20mA:
            R32_PB_PD_DRV |= pin;
 c5a:	c398                	sw	a4,0(a5)
c:\Users\LRNA\Desktop\code\mounriver\ch592\ScienceOlympiadEV\obj/../StdPeriphDriver/CH59x_gpio.c:101
            R32_PB_DIR |= pin;
 c5c:	400017b7          	lui	a5,0x40001
 c60:	0c078793          	addi	a5,a5,192 # 400010c0 <_eusrstack+0x1fffa8c0>
 c64:	4398                	lw	a4,0(a5)
 c66:	8f49                	or	a4,a4,a0
 c68:	c398                	sw	a4,0(a5)
c:\Users\LRNA\Desktop\code\mounriver\ch592\ScienceOlympiadEV\obj/../StdPeriphDriver/CH59x_gpio.c:107
            break;

        default:
            break;
    }
}
 c6a:	8082                	ret
c:\Users\LRNA\Desktop\code\mounriver\ch592\ScienceOlympiadEV\obj/../StdPeriphDriver/CH59x_gpio.c:100
            R32_PB_PD_DRV |= pin;
 c6c:	4398                	lw	a4,0(a5)
 c6e:	8f49                	or	a4,a4,a0
 c70:	b7ed                	j	c5a <GPIOB_ModeCfg+0x86>

00000c72 <TMR0_TimerInit>:
TMR0_TimerInit():
c:\Users\LRNA\Desktop\code\mounriver\ch592\ScienceOlympiadEV\obj/../StdPeriphDriver/CH59x_timer0.c:26
 *
 * @return  none
 */
void TMR0_TimerInit(uint32_t t)
{
    R32_TMR0_CNT_END = t;
 c72:	400027b7          	lui	a5,0x40002
 c76:	c7c8                	sw	a0,12(a5)
c:\Users\LRNA\Desktop\code\mounriver\ch592\ScienceOlympiadEV\obj/../StdPeriphDriver/CH59x_timer0.c:27
    R8_TMR0_CTRL_MOD = RB_TMR_ALL_CLEAR;
 c78:	4709                	li	a4,2
 c7a:	00e78023          	sb	a4,0(a5) # 40002000 <_eusrstack+0x1fffb800>
c:\Users\LRNA\Desktop\code\mounriver\ch592\ScienceOlympiadEV\obj/../StdPeriphDriver/CH59x_timer0.c:28
    R8_TMR0_CTRL_MOD = RB_TMR_COUNT_EN;
 c7e:	4711                	li	a4,4
 c80:	00e78023          	sb	a4,0(a5)
c:\Users\LRNA\Desktop\code\mounriver\ch592\ScienceOlympiadEV\obj/../StdPeriphDriver/CH59x_timer0.c:29
}
 c84:	8082                	ret
 c86:	0000                	unimp
 c88:	6954                	.2byte	0x6954
 c8a:	656d                	lui	a0,0x1b
 c8c:	0072                	c.slli	zero,0x1c
 c8e:	0000                	unimp
 c90:	4241                	li	tp,16
 c92:	46454443          	.4byte	0x46454443
 c96:	00004847          	.4byte	0x4847
	...

00000c9c <FONT5x7>:
 c9c:	00000000 5f000000 07000000 14000700     ......._........
 cac:	147f147f 2a7f2a24 08132312 49366264     ....$*.*.#..db6I
 cbc:	00502255 00000305 41221c00 22410000     U"P......."A..A"
 ccc:	0814001c 0814083e 08083e08 00305000     ....>....>...P0.
 cdc:	08080800 60000808 20000060 02040810     .......``.. ....
 cec:	4549513e 7f42003e 61420040 21464951     >QIE>.B.@.BaQIF!
 cfc:	314b4541 7f121418 45452710 4a3c3945     AEK1.....'EEE9<J
 d0c:	01304949 03050971 49494936 49490636     II0.q...6III6.II
 d1c:	36001e29 00000036 00003656 41221408     )..66...V6...."A
 d2c:	14141400 41001414 02081422 06095101     .......A"....Q..
 d3c:	41794932 11117e3e 497f7e11 3e364949     2IyA>~...~.III6>
 d4c:	22414141 2241417f 49497f1c 097f4149     AAA".AA"..IIIA..
 d5c:	3e010909 7a494941 0808087f 7f41007f     ...>AIIz......A.
 d6c:	40200041 7f013f41 41221408 4040407f     A. @A?...."A.@@@
 d7c:	0c027f40 047f7f02 3e7f1008 3e414141     @..........>AAA>
 d8c:	0909097f 51413e06 097f5e21 46462919     .....>AQ!^...)FF
 d9c:	31494949 017f0101 40403f01 201f3f40     III1.....?@@@?. 
 dac:	3f1f2040 3f403840 14081463 70080763     @ .?@8@?c...c..p
 dbc:	51610708 00434549 fffffe30 fffffe54     ..aQIEC.0...T...
 dcc:	fffffe78 fffffe8e fffffea8              x...........
