
rx_led.elf:     file format elf32-littleriscv


Disassembly of section .init:

00000000 <InterruptVector>:
	void InterruptVector()         __attribute__((naked)) __attribute((section(".init"))) __attribute((weak,alias("InterruptVectorDefault"))) __attribute((naked));
	void InterruptVectorDefault()  __attribute__((naked)) __attribute((section(".init"))) __attribute((naked));
	void InterruptVectorDefault( void )
	{
		#if !defined(FUNCONF_TINYVECTOR) || !FUNCONF_TINYVECTOR
			asm volatile( DEFAULT_INTERRUPT_VECTOR_CONTENTS );
   0:	16c0006f          	j	16c <handle_reset>
   4:	0000                	unimp
   6:	0000                	unimp
   8:	01ee                	slli	gp,gp,0x1b
   a:	0000                	unimp
   c:	01ee                	slli	gp,gp,0x1b
   e:	0000                	unimp
  10:	bda9                	j	fffffe6a <_eusrstack+0xdfffce6a>
  12:	f3f9                	bnez	a5,ffffffd8 <_eusrstack+0xdfffcfd8>
  14:	01ee                	slli	gp,gp,0x1b
	...
  1e:	0000                	unimp
  20:	01ee                	slli	gp,gp,0x1b
  22:	0000                	unimp
  24:	01ee                	slli	gp,gp,0x1b
	...
  2e:	0000                	unimp
  30:	01ee                	slli	gp,gp,0x1b
  32:	0000                	unimp
  34:	0000                	unimp
  36:	0000                	unimp
  38:	01ee                	slli	gp,gp,0x1b
  3a:	0000                	unimp
  3c:	0000                	unimp
  3e:	0000                	unimp
  40:	01ee                	slli	gp,gp,0x1b
  42:	0000                	unimp
  44:	01ee                	slli	gp,gp,0x1b
  46:	0000                	unimp
  48:	01ee                	slli	gp,gp,0x1b
  4a:	0000                	unimp
  4c:	01ee                	slli	gp,gp,0x1b
  4e:	0000                	unimp
  50:	01ee                	slli	gp,gp,0x1b
  52:	0000                	unimp
  54:	0798                	addi	a4,sp,960
  56:	0000                	unimp
  58:	01ee                	slli	gp,gp,0x1b
  5a:	0000                	unimp
  5c:	0000                	unimp
  5e:	0000                	unimp
  60:	01ee                	slli	gp,gp,0x1b
  62:	0000                	unimp
  64:	01ee                	slli	gp,gp,0x1b
  66:	0000                	unimp
  68:	01ee                	slli	gp,gp,0x1b
  6a:	0000                	unimp
  6c:	01ee                	slli	gp,gp,0x1b
  6e:	0000                	unimp
  70:	01ee                	slli	gp,gp,0x1b
  72:	0000                	unimp
  74:	01ee                	slli	gp,gp,0x1b
  76:	0000                	unimp
  78:	01ee                	slli	gp,gp,0x1b
  7a:	0000                	unimp
  7c:	01ee                	slli	gp,gp,0x1b
  7e:	0000                	unimp
  80:	01ee                	slli	gp,gp,0x1b
  82:	0000                	unimp
  84:	01ee                	slli	gp,gp,0x1b
  86:	0000                	unimp
  88:	01ee                	slli	gp,gp,0x1b
  8a:	0000                	unimp
  8c:	01ee                	slli	gp,gp,0x1b
	...

Disassembly of section .text:

00000090 <DevSetMode>:
	NVIC->VTFIDR[3] = 0x14;
}

void DevSetMode(uint16_t mode) {
#if !defined(CH571_CH573)
	if(mode) {
  90:	fffd07b7          	lui	a5,0xfffd0
		BB->CTRL_CFG = DEVSETMODE_ON;
  94:	4000c6b7          	lui	a3,0x4000c
  98:	fff78713          	addi	a4,a5,-1 # fffcffff <_eusrstack+0xdffccfff>
  9c:	1006a783          	lw	a5,256(a3) # 4000c100 <_eusrstack+0x20009100>
  a0:	8ff9                	and	a5,a5,a4
	if(mode) {
  a2:	c11d                	beqz	a0,c8 <DevSetMode+0x38>
		BB->CTRL_CFG = DEVSETMODE_ON;
  a4:	00020737          	lui	a4,0x20
  a8:	8fd9                	or	a5,a5,a4
  aa:	10f6a023          	sw	a5,256(a3)
		RF->RF2 |= 0x330000;
  ae:	4000d737          	lui	a4,0x4000d
  b2:	471c                	lw	a5,8(a4)
  b4:	003306b7          	lui	a3,0x330
  b8:	8fd5                	or	a5,a5,a3
  ba:	c71c                	sw	a5,8(a4)
	mode = (mode == 0) ? 0x80 : mode;
#elif !defined(CH32V208)
	mode |= 0x30000;
#endif
#endif // ! CH571_CH573
	LL->CTRL_MOD = mode;
  bc:	4000c7b7          	lui	a5,0x4000c
  c0:	20078793          	addi	a5,a5,512 # 4000c200 <_eusrstack+0x20009200>
  c4:	cba8                	sw	a0,80(a5)
}
  c6:	8082                	ret
		BB->CTRL_CFG = DEVSETMODE_OFF;
  c8:	6741                	lui	a4,0x10
  ca:	8fd9                	or	a5,a5,a4
  cc:	10f6a023          	sw	a5,256(a3) # 330100 <rx_led.c.eedc55c1+0x32e356>
		RF->RF2 &= 0xffcdffff;
  d0:	4000d6b7          	lui	a3,0x4000d
  d4:	469c                	lw	a5,8(a3)
  d6:	ffce0737          	lui	a4,0xffce0
  da:	177d                	addi	a4,a4,-1
  dc:	8ff9                	and	a5,a5,a4
  de:	c69c                	sw	a5,8(a3)
  e0:	bff1                	j	bc <DevSetMode+0x2c>

000000e2 <RFEND_TXCTune>:

uint32_t RFEND_TXCTune(uint8_t channel) {
	// 0xbf = 2401 MHz
	RF->RF1 &= 0xfffffffe;
  e2:	4000d737          	lui	a4,0x4000d
  e6:	435c                	lw	a5,4(a4)
	RF->TXTUNE_CTRL = (RF->TXTUNE_CTRL & 0xfffe00ff) | (0xbf00 + (channel_map[channel] << 8));
  e8:	6685                	lui	a3,0x1
  ea:	82468693          	addi	a3,a3,-2012 # 824 <channel_map>
	RF->RF1 &= 0xfffffffe;
  ee:	9bf9                	andi	a5,a5,-2
	RF->TXTUNE_CTRL = (RF->TXTUNE_CTRL & 0xfffe00ff) | (0xbf00 + (channel_map[channel] << 8));
  f0:	96aa                	add	a3,a3,a0
	RF->RF1 &= 0xfffffffe;
  f2:	c35c                	sw	a5,4(a4)
	RF->TXTUNE_CTRL = (RF->TXTUNE_CTRL & 0xfffe00ff) | (0xbf00 + (channel_map[channel] << 8));
  f4:	0006c783          	lbu	a5,0(a3)
  f8:	66b1                	lui	a3,0xc
  fa:	5f10                	lw	a2,56(a4)
  fc:	f0068693          	addi	a3,a3,-256 # bf00 <rx_led.c.eedc55c1+0xa156>
 100:	07a2                	slli	a5,a5,0x8
 102:	97b6                	add	a5,a5,a3
 104:	7681                	lui	a3,0xfffe0
 106:	0ff68693          	addi	a3,a3,255 # fffe00ff <_eusrstack+0xdffdd0ff>
 10a:	8e75                	and	a2,a2,a3
 10c:	8fd1                	or	a5,a5,a2
 10e:	df1c                	sw	a5,56(a4)
	RF->RF1 |= 1;
 110:	435c                	lw	a5,4(a4)

	LL->TMR = 8000;
	while(!(RF->TXCTUNE_CO_CTRL & (1 << 25)) || !(RF->TXCTUNE_CO_CTRL & (1 << 26))) {
 112:	02000637          	lui	a2,0x2000
 116:	040006b7          	lui	a3,0x4000
	RF->RF1 |= 1;
 11a:	0017e793          	ori	a5,a5,1
 11e:	c35c                	sw	a5,4(a4)
	LL->TMR = 8000;
 120:	4000c7b7          	lui	a5,0x4000c
 124:	6709                	lui	a4,0x2
 126:	f4070713          	addi	a4,a4,-192 # 1f40 <rx_led.c.eedc55c1+0x196>
 12a:	20078793          	addi	a5,a5,512 # 4000c200 <_eusrstack+0x20009200>
 12e:	d3f8                	sw	a4,100(a5)
		if(LL->TMR == 0) {
 130:	4000c5b7          	lui	a1,0x4000c
	while(!(RF->TXCTUNE_CO_CTRL & (1 << 25)) || !(RF->TXCTUNE_CO_CTRL & (1 << 26))) {
 134:	4000d737          	lui	a4,0x4000d
 138:	09072783          	lw	a5,144(a4) # 4000d090 <_eusrstack+0x2000a090>
 13c:	8ff1                	and	a5,a5,a2
 13e:	c789                	beqz	a5,148 <RFEND_TXCTune+0x66>
 140:	09072783          	lw	a5,144(a4)
 144:	8ff5                	and	a5,a5,a3
 146:	e789                	bnez	a5,150 <RFEND_TXCTune+0x6e>
		if(LL->TMR == 0) {
 148:	20058793          	addi	a5,a1,512 # 4000c200 <_eusrstack+0x20009200>
 14c:	53fc                	lw	a5,100(a5)
 14e:	f7ed                	bnez	a5,138 <RFEND_TXCTune+0x56>
			break;
		}
	}

	uint8_t nCO = (uint8_t)RF->TXCTUNE_CO_CTRL & 0x3f;
 150:	4000d7b7          	lui	a5,0x4000d
 154:	0907a503          	lw	a0,144(a5) # 4000d090 <_eusrstack+0x2000a090>
	uint8_t nGA = (uint8_t)(RF->TXCTUNE_GA_CTRL >> 10) & 0x7f;
 158:	0947a783          	lw	a5,148(a5)

	// printf("nCO,nGA ch:%u idx:%u %u,%u\n", channel, channel_map[channel], nCO,nGA);

	return (nGA << 24) | nCO;
 15c:	03f57513          	andi	a0,a0,63
	uint8_t nGA = (uint8_t)(RF->TXCTUNE_GA_CTRL >> 10) & 0x7f;
 160:	83a9                	srli	a5,a5,0xa
	return (nGA << 24) | nCO;
 162:	07f7f793          	andi	a5,a5,127
 166:	07e2                	slli	a5,a5,0x18
}
 168:	8d5d                	or	a0,a0,a5
 16a:	8082                	ret

0000016c <handle_reset>:

#elif defined(CH32V10x) || defined(CH32V20x) || defined(CH32V30x) || defined(CH32L103) ||  defined(CH5xx)

void handle_reset( void )
{
	asm volatile( "\n\
 16c:	20000197          	auipc	gp,0x20000
 170:	29018193          	addi	gp,gp,656 # 200003fc <__global_pointer$>
 174:	20003117          	auipc	sp,0x20003
 178:	e8c10113          	addi	sp,sp,-372 # 20003000 <_eusrstack>
#endif
			);

	// Careful: Use registers to prevent overwriting of self-data.
	// This clears out BSS.
	asm volatile(
 17c:	c0418513          	addi	a0,gp,-1020 # 20000000 <rx_ready>
 180:	05018593          	addi	a1,gp,80 # 2000044c <_ebss>
 184:	00b57763          	bgeu	a0,a1,192 <handle_reset+0x26>
 188:	00052023          	sw	zero,0(a0)
 18c:	0511                	addi	a0,a0,4
 18e:	feb56de3          	bltu	a0,a1,188 <handle_reset+0x1c>
 192:	00000517          	auipc	a0,0x0
 196:	6ba50513          	addi	a0,a0,1722 # 84c <_data_lma>
 19a:	c0418593          	addi	a1,gp,-1020 # 20000000 <rx_ready>
 19e:	c0418613          	addi	a2,gp,-1020 # 20000000 <rx_ready>
 1a2:	00c58a63          	beq	a1,a2,1b6 <handle_reset+0x4a>
 1a6:	00052283          	lw	t0,0(a0)
 1aa:	0055a023          	sw	t0,0(a1)
 1ae:	0511                	addi	a0,a0,4
 1b0:	0591                	addi	a1,a1,4
 1b2:	fec5eae3          	bltu	a1,a2,1a6 <handle_reset+0x3a>
#endif
: "a0", "a1", "a2", "a3", "memory"
);

	// Setup the interrupt vector, processor status and INTSYSCR.
	asm volatile(
 1b6:	00000793          	li	a5,0
 1ba:	42fd                	li	t0,31
 1bc:	bc029073          	csrw	0xbc0,t0
 1c0:	6289                	lui	t0,0x2
 1c2:	88828293          	addi	t0,t0,-1912 # 1888 <ch32fun.c.b64b58d4+0x829>
 1c6:	3002a073          	csrs	mstatus,t0
 1ca:	00000297          	auipc	t0,0x0
 1ce:	e3628293          	addi	t0,t0,-458 # 0 <InterruptVector>
 1d2:	0032e293          	ori	t0,t0,3
 1d6:	30529073          	csrw	mtvec,t0
	csrw mtvec, t0\n"
	: : [InterruptVector]"r"(InterruptVector) : "t0", "memory"
	);

#if defined( FUNCONF_SYSTICK_USE_HCLK ) && FUNCONF_SYSTICK_USE_HCLK && !defined(CH32V10x)
	SysTick->CTLR = 5;
 1da:	e000f7b7          	lui	a5,0xe000f
 1de:	4715                	li	a4,5
 1e0:	c398                	sw	a4,0(a5)
#else
	SysTick->CTLR = 1;
#endif

	// set mepc to be main as the root app.
	asm volatile(
 1e2:	26a00793          	li	a5,618
 1e6:	34179073          	csrw	mepc,a5
 1ea:	30200073          	mret

000001ee <ADC1_2_IRQHandler>:
	asm volatile( "1: j 1b" );
 1ee:	a001                	j	1ee <ADC1_2_IRQHandler>

000001f0 <memset>:
WEAK void *memset(void *dest, int c, size_t n) { unsigned char *s = dest; for (; n; n--, s++) *s = c; return dest; }
 1f0:	962a                	add	a2,a2,a0
 1f2:	87aa                	mv	a5,a0
 1f4:	00c79363          	bne	a5,a2,1fa <memset+0xa>
 1f8:	8082                	ret
 1fa:	00b78023          	sb	a1,0(a5) # e000f000 <_eusrstack+0xc000c000>
 1fe:	0785                	addi	a5,a5,1
 200:	bfd5                	j	1f4 <memset+0x4>

00000202 <SystemInit>:
	}
	else
	{
		if((sc & RB_CLK_SYS_MOD) == 0x40) // PLL div
		{
			SYS_SAFE_ACCESS(
 202:	400017b7          	lui	a5,0x40001
 206:	05700593          	li	a1,87
 20a:	04b78023          	sb	a1,64(a5) # 40001040 <_eusrstack+0x1fffe040>
 20e:	fa800613          	li	a2,-88
 212:	04c78023          	sb	a2,64(a5)
 216:	0001                	nop
 218:	0001                	nop
 21a:	00a7c703          	lbu	a4,10(a5)
 21e:	400026b7          	lui	a3,0x40002
 222:	0ff77713          	andi	a4,a4,255
 226:	01076713          	ori	a4,a4,16
 22a:	00e78523          	sb	a4,10(a5)
 22e:	4705                	li	a4,1
 230:	80e683a3          	sb	a4,-2041(a3) # 40001807 <_eusrstack+0x1fffe807>
 234:	8056c703          	lbu	a4,-2043(a3)
 238:	0ff77713          	andi	a4,a4,255
 23c:	01076713          	ori	a4,a4,16
 240:	80e682a3          	sb	a4,-2043(a3)
 244:	04078023          	sb	zero,64(a5)
 248:	0001                	nop
 24a:	0001                	nop
		{
			SYS_SAFE_ACCESS(
				R8_FLASH_CFG = (sc & 0x1F) ? 0x02 : 0x07;
			);
		}
		SYS_SAFE_ACCESS(
 24c:	04b78023          	sb	a1,64(a5)
 250:	04c78023          	sb	a2,64(a5)
 254:	0001                	nop
 256:	0001                	nop
 258:	04a00713          	li	a4,74
 25c:	00e78423          	sb	a4,8(a5)
 260:	04078023          	sb	zero,64(a5)
 264:	0001                	nop
 266:	0001                	nop
	SetupDebugPrintf();
#endif
#if defined(FUNCONF_SUPPORT_CONSTRUCTORS) && FUNCONF_SUPPORT_CONSTRUCTORS
	CallConstructors();
#endif
}
 268:	8082                	ret

0000026a <main>:
    funDigitalWrite(LED_PIN, FUN_LOW);
    Delay_Ms(100); 
    funDigitalWrite(LED_PIN, FUN_HIGH);
}

int main() {
 26a:	7119                	addi	sp,sp,-128
 26c:	de86                	sw	ra,124(sp)
 26e:	dca2                	sw	s0,120(sp)
 270:	daa6                	sw	s1,116(sp)
 272:	d8ca                	sw	s2,112(sp)
 274:	d6ce                	sw	s3,108(sp)
 276:	d4d2                	sw	s4,104(sp)
 278:	d2d6                	sw	s5,100(sp)
 27a:	d0da                	sw	s6,96(sp)
 27c:	cede                	sw	s7,92(sp)
 27e:	cce2                	sw	s8,88(sp)
 280:	cae6                	sw	s9,84(sp)
 282:	c8ea                	sw	s10,80(sp)
 284:	c6ee                	sw	s11,76(sp)
    SystemInit();
 286:	3fb5                	jal	202 <SystemInit>
		*(&R32_PA_PD_DRV + OFFSET_FOR_GPIOB(pin)) |= (pin & ~PB);
		*(&R32_PA_PU + OFFSET_FOR_GPIOB(pin))     &= ~(pin & ~PB);
		*(&R32_PA_DIR + OFFSET_FOR_GPIOB(pin))    &= ~(pin & ~PB);
		break;
	case GPIO_ModeOut_PP_5mA:
		*(&R32_PA_PD_DRV + OFFSET_FOR_GPIOB(pin)) &= ~(pin & ~PB);
 288:	400017b7          	lui	a5,0x40001
 28c:	08078793          	addi	a5,a5,128 # 40001080 <_eusrstack+0x1fffe080>
 290:	5bd8                	lw	a4,52(a5)
	LL->LL5 = 0x8c;
 292:	4000c6b7          	lui	a3,0x4000c
	LL->LL7 = 0x76;
 296:	07600613          	li	a2,118
 29a:	dff77713          	andi	a4,a4,-513
 29e:	dbd8                	sw	a4,52(a5)
		*(&R32_PA_DIR + OFFSET_FOR_GPIOB(pin))    |= (pin & ~PB);
 2a0:	5398                	lw	a4,32(a5)
	RF->RF10 = 0x480;
 2a2:	4000d437          	lui	s0,0x4000d
 2a6:	20076713          	ori	a4,a4,512
 2aa:	d398                	sw	a4,32(a5)
    DCDCEnable();
    
    // Init LED
    funGpioInitAll();
    funPinMode(LED_PIN, GPIO_CFGLR_OUT_2Mhz_PP);
    funDigitalWrite(LED_PIN, FUN_HIGH); // Ensure Off
 2ac:	5798                	lw	a4,40(a5)
	BB->BB14 = 0x2020c;
 2ae:	000204b7          	lui	s1,0x20
	NVIC->VTFIDR[3] = 0x14;
 2b2:	4ad1                	li	s5,20
 2b4:	20076713          	ori	a4,a4,512
 2b8:	d798                	sw	a4,40(a5)
	LL->LL5 = 0x8c;
 2ba:	20068793          	addi	a5,a3,512 # 4000c200 <_eusrstack+0x20009200>
 2be:	08c00713          	li	a4,140
 2c2:	cbd8                	sw	a4,20(a5)
	LL->LL7 = 0x76;
 2c4:	cfd0                	sw	a2,28(a5)
	LL->LL9 = 0x8c;
 2c6:	d3d8                	sw	a4,36(a5)
	LL->LL13 = 0x8c;
 2c8:	dbd8                	sw	a4,52(a5)
	LL->LL17 = 0x8c;
 2ca:	c3f8                	sw	a4,68(a5)
	LL->LL19 = 0x76;
 2cc:	c7f0                	sw	a2,76(a5)
	LL->LL11 = 0x6c;
 2ce:	06c00713          	li	a4,108
 2d2:	d7d8                	sw	a4,44(a5)
	LL->LL15 = 0x6c;
 2d4:	dfd8                	sw	a4,60(a5)
	LL->LL1 = 0x78;
 2d6:	07800713          	li	a4,120
 2da:	c3d8                	sw	a4,4(a5)
	LL->INT_EN = 0x16000f;
 2dc:	00160737          	lui	a4,0x160
	LL->LL21 = 0;
 2e0:	0407aa23          	sw	zero,84(a5)
	LL->INT_EN = 0x16000f;
 2e4:	073d                	addi	a4,a4,15
 2e6:	c7d8                	sw	a4,12(a5)
	LL->STATE_BUF = (uint32_t)LLE_BUF;
 2e8:	c1018713          	addi	a4,gp,-1008 # 2000000c <LLE_BUF>
 2ec:	dff8                	sw	a4,124(a5)
	LL->STATUS = 0xffffffff;
 2ee:	577d                	li	a4,-1
 2f0:	c798                	sw	a4,8(a5)
	RF->RF10 = 0x480;
 2f2:	48000793          	li	a5,1152
 2f6:	d41c                	sw	a5,40(s0)
	RF->RF12 &= 0xfff9ffff;
 2f8:	581c                	lw	a5,48(s0)
 2fa:	fffa0737          	lui	a4,0xfffa0
 2fe:	177d                	addi	a4,a4,-1
 300:	8ff9                	and	a5,a5,a4
 302:	d81c                	sw	a5,48(s0)
	RF->RF12 |= 0x70000000;
 304:	581c                	lw	a5,48(s0)
 306:	70000737          	lui	a4,0x70000
	RF->RF15 = (RF->RF15 & 0xf8ffffff) | 0x2000000;
 30a:	02000637          	lui	a2,0x2000
	RF->RF12 |= 0x70000000;
 30e:	8fd9                	or	a5,a5,a4
 310:	d81c                	sw	a5,48(s0)
	RF->RF15 = (RF->RF15 & 0xf8ffffff) | 0x2000000;
 312:	5c58                	lw	a4,60(s0)
 314:	f90007b7          	lui	a5,0xf9000
 318:	17fd                	addi	a5,a5,-1
 31a:	8f7d                	and	a4,a4,a5
 31c:	8f51                	or	a4,a4,a2
 31e:	dc58                	sw	a4,60(s0)
	RF->RF15 = (RF->RF15 & 0x1fffffff) | 0x40000000;
 320:	5c5c                	lw	a5,60(s0)
 322:	40000737          	lui	a4,0x40000
	BB->CTRL_TX = (BB->CTRL_TX & 0x1ffffff) | (TxPower | 0x40) << 0x19;
 326:	167d                	addi	a2,a2,-1
	RF->RF15 = (RF->RF15 & 0x1fffffff) | 0x40000000;
 328:	078e                	slli	a5,a5,0x3
 32a:	838d                	srli	a5,a5,0x3
 32c:	8fd9                	or	a5,a5,a4
 32e:	dc5c                	sw	a5,60(s0)
	RF->RF18 &= 0xfff8ffff;
 330:	443c                	lw	a5,72(s0)
 332:	fff90737          	lui	a4,0xfff90
 336:	177d                	addi	a4,a4,-1
 338:	8ff9                	and	a5,a5,a4
 33a:	c43c                	sw	a5,72(s0)
	RF->RF20 = (RF->RF20 & 0xfffff8ff) | 0x300;
 33c:	4838                	lw	a4,80(s0)
	RF->RF3 = (RF->RF3 & 0xfffffeff) | 0x100;
	RF->RF1 = (RF->RF1 & 0xfffeffff) | 0x100000;
}

void RegInit() {
	DevSetMode(DEVSETMODE_TUNE);
 33e:	55800513          	li	a0,1368
 342:	c1018913          	addi	s2,gp,-1008 # 2000000c <LLE_BUF>
	RF->RF20 = (RF->RF20 & 0xfffff8ff) | 0x300;
 346:	8ff77713          	andi	a4,a4,-1793
 34a:	30076713          	ori	a4,a4,768
 34e:	c838                	sw	a4,80(s0)
	RF->RF23 |= 0x70000;
 350:	4c7c                	lw	a5,92(s0)
 352:	00070737          	lui	a4,0x70
 356:	8fd9                	or	a5,a5,a4
 358:	cc7c                	sw	a5,92(s0)
	RF->RF23 |= 0x700000;
 35a:	4c7c                	lw	a5,92(s0)
 35c:	00700737          	lui	a4,0x700
 360:	8fd9                	or	a5,a5,a4
 362:	cc7c                	sw	a5,92(s0)
	BB->BB14 = 0x2020c;
 364:	10068713          	addi	a4,a3,256
 368:	20c48793          	addi	a5,s1,524 # 2020c <rx_led.c.eedc55c1+0x1e462>
 36c:	df1c                	sw	a5,56(a4)
	BB->BB15 = 0x50;
 36e:	05000793          	li	a5,80
 372:	df5c                	sw	a5,60(a4)
	BB->CTRL_TX = (BB->CTRL_TX & 0x1ffffff) | (TxPower | 0x40) << 0x19;
 374:	5b5c                	lw	a5,52(a4)
 376:	8ff1                	and	a5,a5,a2
 378:	a4000637          	lui	a2,0xa4000
 37c:	8fd1                	or	a5,a5,a2
 37e:	db5c                	sw	a5,52(a4)
	BB->CTRL_CFG &= 0xfffffcff;
 380:	1006a703          	lw	a4,256(a3)
	NVIC->VTFIDR[3] = 0x14;
 384:	e000e7b7          	lui	a5,0xe000e
	BB->CTRL_CFG &= 0xfffffcff;
 388:	cff77713          	andi	a4,a4,-769
 38c:	10e6a023          	sw	a4,256(a3)
	NVIC->VTFIDR[3] = 0x14;
 390:	055789a3          	sb	s5,83(a5) # e000e053 <_eusrstack+0xc000b053>
	DevSetMode(DEVSETMODE_TUNE);
 394:	39f5                	jal	90 <DevSetMode>
	RF->RF1 &= 0xfffffeff;
 396:	4058                	lw	a4,4(s0)
	RF->RF10 &= 0xffffefff;
 398:	76fd                	lui	a3,0xfffff
 39a:	16fd                	addi	a3,a3,-1
	RF->RF1 &= 0xfffffeff;
 39c:	eff77713          	andi	a4,a4,-257
 3a0:	c058                	sw	a4,4(s0)
	RF->RF10 &= 0xffffefff;
 3a2:	5418                	lw	a4,40(s0)
	uint32_t tune2401 = RFEND_TXCTune(37);
 3a4:	02500513          	li	a0,37
	RF->RF10 &= 0xffffefff;
 3a8:	8f75                	and	a4,a4,a3
 3aa:	d418                	sw	a4,40(s0)
	RF->RF11 &= 0xffffffef;
 3ac:	5458                	lw	a4,44(s0)
 3ae:	9b3d                	andi	a4,a4,-17
 3b0:	d458                	sw	a4,44(s0)
	RF->RF2 |= 0x20000;
 3b2:	441c                	lw	a5,8(s0)
 3b4:	8fc5                	or	a5,a5,s1
 3b6:	c41c                	sw	a5,8(s0)
	RF->RF1 |= 0x10;
 3b8:	405c                	lw	a5,4(s0)
 3ba:	0107e793          	ori	a5,a5,16
 3be:	c05c                	sw	a5,4(s0)
	uint32_t tune2401 = RFEND_TXCTune(37);
 3c0:	330d                	jal	e2 <RFEND_TXCTune>
 3c2:	842a                	mv	s0,a0
	uint8_t nGA2401 = (uint8_t)(tune2401 >> 24) & 0x7f;
 3c4:	01855a13          	srli	s4,a0,0x18
	uint32_t tune2480 = RFEND_TXCTune(39);
 3c8:	02700513          	li	a0,39
 3cc:	3b19                	jal	e2 <RFEND_TXCTune>
 3ce:	8b2a                	mv	s6,a0
	uint8_t nGA2480 = (uint8_t)(tune2480 >> 24) & 0x7f;
 3d0:	01855c13          	srli	s8,a0,0x18
	uint32_t tune2440 = RFEND_TXCTune(18);
 3d4:	4549                	li	a0,18
 3d6:	3331                	jal	e2 <RFEND_TXCTune>
	uint8_t nCO2440 = (uint8_t)(tune2440 & 0x3f);
 3d8:	03f57b93          	andi	s7,a0,63
	uint8_t nGA2440 = (uint8_t)(tune2440 >> 24) & 0x7f;
 3dc:	01855993          	srli	s3,a0,0x18
	uint8_t txctune_co[sizeof(RF->TXCTUNE_CO)] = {0};
 3e0:	02400613          	li	a2,36
 3e4:	4581                	li	a1,0
	uint32_t tune2440 = RFEND_TXCTune(18);
 3e6:	84aa                	mv	s1,a0
	uint32_t dCO0140 = nCO2401 - nCO2440;
 3e8:	03f47413          	andi	s0,s0,63
	uint8_t txctune_co[sizeof(RF->TXCTUNE_CO)] = {0};
 3ec:	0868                	addi	a0,sp,28
	uint32_t dCO0140 = nCO2401 - nCO2440;
 3ee:	41740433          	sub	s0,s0,s7
	uint8_t txctune_co[sizeof(RF->TXCTUNE_CO)] = {0};
 3f2:	cc02                	sw	zero,24(sp)
 3f4:	3bf5                	jal	1f0 <memset>
 3f6:	03540733          	mul	a4,s0,s5
	uint32_t dCO4080 = nCO2440 - nCO2480;
 3fa:	03fb7b13          	andi	s6,s6,63
		txctune_co[f] = tune | (tune << 4);
 3fe:	6605                	lui	a2,0x1
	uint8_t nGA2401 = (uint8_t)(tune2401 >> 24) & 0x7f;
 400:	07fa7a13          	andi	s4,s4,127
	uint8_t nGA2480 = (uint8_t)(tune2480 >> 24) & 0x7f;
 404:	07fc7c13          	andi	s8,s8,127
	uint8_t nGA2440 = (uint8_t)(tune2440 >> 24) & 0x7f;
 408:	07f9f993          	andi	s3,s3,127
	uint32_t dCO4080 = nCO2440 - nCO2480;
 40c:	416b8b33          	sub	s6,s7,s6
	for(int f = 0; f < int_points; f++) {
 410:	4781                	li	a5,0
		tune = (dCO0140 * (int_points -f)) / int_points;
 412:	45d1                	li	a1,20
		txctune_co[f] = tune | (tune << 4);
 414:	1641                	addi	a2,a2,-16
		tune = (dCO0140 * (int_points -f)) / int_points;
 416:	02b75533          	divu	a0,a4,a1
		txctune_co[f] = tune | (tune << 4);
 41a:	0834                	addi	a3,sp,24
 41c:	00f68833          	add	a6,a3,a5
	for(int f = 0; f < int_points; f++) {
 420:	0785                	addi	a5,a5,1
 422:	8f01                	sub	a4,a4,s0
		txctune_co[f] = tune | (tune << 4);
 424:	00451693          	slli	a3,a0,0x4
 428:	8ef1                	and	a3,a3,a2
 42a:	8ec9                	or	a3,a3,a0
 42c:	00d80023          	sb	a3,0(a6)
	for(int f = 0; f < int_points; f++) {
 430:	feb793e3          	bne	a5,a1,416 <main+0x1ac>
		txctune_co[f] = tune | (tune << 4);
 434:	6605                	lui	a2,0x1
	for(int f = 0; f < int_points; f++) {
 436:	4681                	li	a3,0
		tune = (dCO4080 * (f -int_points)) / int_points;
 438:	48d1                	li	a7,20
		txctune_co[f] = tune | (tune << 4);
 43a:	1641                	addi	a2,a2,-16
	for(int f = int_points; f < sizeof(RF->TXCTUNE_CO); f++) {
 43c:	02800513          	li	a0,40
		tune = (dCO4080 * (f -int_points)) / int_points;
 440:	0316d5b3          	divu	a1,a3,a7
		txctune_co[f] = tune | (tune << 4);
 444:	0838                	addi	a4,sp,24
 446:	00f70833          	add	a6,a4,a5
	for(int f = int_points; f < sizeof(RF->TXCTUNE_CO); f++) {
 44a:	0785                	addi	a5,a5,1
 44c:	96da                	add	a3,a3,s6
		txctune_co[f] = tune | (tune << 4);
 44e:	00459713          	slli	a4,a1,0x4
 452:	8f71                	and	a4,a4,a2
 454:	8f4d                	or	a4,a4,a1
 456:	00e80023          	sb	a4,0(a6)
	for(int f = int_points; f < sizeof(RF->TXCTUNE_CO); f++) {
 45a:	fea793e3          	bne	a5,a0,440 <main+0x1d6>
 45e:	083c                	addi	a5,sp,24
	for(int i = 0; i < sizeof(txctune_co) /4; i++) {
 460:	4681                	li	a3,0
		RF->TXCTUNE_CO[i] = ((uint32_t*)txctune_co)[i];
 462:	4000d537          	lui	a0,0x4000d
	for(int i = 0; i < sizeof(txctune_co) /4; i++) {
 466:	4629                	li	a2,10
		RF->TXCTUNE_CO[i] = ((uint32_t*)txctune_co)[i];
 468:	438c                	lw	a1,0(a5)
 46a:	02868713          	addi	a4,a3,40 # fffff028 <_eusrstack+0xdfffc028>
 46e:	070a                	slli	a4,a4,0x2
 470:	972a                	add	a4,a4,a0
 472:	c30c                	sw	a1,0(a4)
	for(int i = 0; i < sizeof(txctune_co) /4; i++) {
 474:	0685                	addi	a3,a3,1
 476:	0791                	addi	a5,a5,4
 478:	fec698e3          	bne	a3,a2,468 <main+0x1fe>
	uint32_t dGA0140 = nGA2401 - nGA2440;
 47c:	413a0a33          	sub	s4,s4,s3
	uint32_t dGA4080 = nGA2440 - nGA2480;
 480:	4695                	li	a3,5
 482:	02da06b3          	mul	a3,s4,a3
		txctune_ga[f] = tune | (tune << 4);
 486:	6705                	lui	a4,0x1
	uint32_t dGA4080 = nGA2440 - nGA2480;
 488:	418989b3          	sub	s3,s3,s8
	uint8_t txctune_ga[sizeof(RF->TXCTUNE_GA)] = {0};
 48c:	c602                	sw	zero,12(sp)
 48e:	c802                	sw	zero,16(sp)
 490:	ca02                	sw	zero,20(sp)
	for(int f = 1; f < int_points; f++) {
 492:	4785                	li	a5,1
		tune = (dGA0140 * (int_points -f)) / int_points;
 494:	4599                	li	a1,6
		txctune_ga[f] = tune | (tune << 4);
 496:	1741                	addi	a4,a4,-16
 498:	0070                	addi	a2,sp,12
		tune = (dGA0140 * (int_points -f)) / int_points;
 49a:	02b6d533          	divu	a0,a3,a1
		txctune_ga[f] = tune | (tune << 4);
 49e:	00f60833          	add	a6,a2,a5
	for(int f = 1; f < int_points; f++) {
 4a2:	0785                	addi	a5,a5,1
 4a4:	414686b3          	sub	a3,a3,s4
		txctune_ga[f] = tune | (tune << 4);
 4a8:	00451613          	slli	a2,a0,0x4
 4ac:	8e79                	and	a2,a2,a4
 4ae:	8e49                	or	a2,a2,a0
 4b0:	00c80023          	sb	a2,0(a6)
	for(int f = 1; f < int_points; f++) {
 4b4:	feb792e3          	bne	a5,a1,498 <main+0x22e>
		txctune_ga[f] = tune | (tune << 4);
 4b8:	6605                	lui	a2,0x1
	for(int f = 1; f < int_points; f++) {
 4ba:	4701                	li	a4,0
		tune = (dGA4080 * (f -int_points)) / int_points;
 4bc:	4319                	li	t1,6
		txctune_ga[f] = tune | (tune << 4);
 4be:	ff060893          	addi	a7,a2,-16 # ff0 <_data_lma+0x7a4>
	for(int f = int_points; f < sizeof(RF->TXCTUNE_GA) -1; f++) {
 4c2:	452d                	li	a0,11
		tune = (dGA4080 * (f -int_points)) / int_points;
 4c4:	026755b3          	divu	a1,a4,t1
		txctune_ga[f] = tune | (tune << 4);
 4c8:	0074                	addi	a3,sp,12
 4ca:	00f68833          	add	a6,a3,a5
	for(int f = int_points; f < sizeof(RF->TXCTUNE_GA) -1; f++) {
 4ce:	0785                	addi	a5,a5,1
 4d0:	974e                	add	a4,a4,s3
		txctune_ga[f] = tune | (tune << 4);
 4d2:	00459693          	slli	a3,a1,0x4
 4d6:	0116f6b3          	and	a3,a3,a7
 4da:	8ecd                	or	a3,a3,a1
 4dc:	00d80023          	sb	a3,0(a6)
	for(int f = int_points; f < sizeof(RF->TXCTUNE_GA) -1; f++) {
 4e0:	fea792e3          	bne	a5,a0,4c4 <main+0x25a>
		RF->TXCTUNE_GA[i] = ((uint32_t*)txctune_ga)[i];
 4e4:	46b2                	lw	a3,12(sp)
 4e6:	4000d7b7          	lui	a5,0x4000d
 4ea:	08078713          	addi	a4,a5,128 # 4000d080 <_eusrstack+0x2000a080>
 4ee:	c734                	sw	a3,72(a4)
 4f0:	46c2                	lw	a3,16(sp)
	RF->TXTUNE_CTRL = (RF->TXTUNE_CTRL & 0x80ffffff) | (tune2440 & 0x7f000000);
 4f2:	7f000537          	lui	a0,0x7f000
 4f6:	8ce9                	and	s1,s1,a0
		RF->TXCTUNE_GA[i] = ((uint32_t*)txctune_ga)[i];
 4f8:	c774                	sw	a3,76(a4)
 4fa:	46d2                	lw	a3,20(sp)
 4fc:	cb34                	sw	a3,80(a4)
	RF->RF1 &= 0xffffffef;
 4fe:	43d8                	lw	a4,4(a5)
	RF->TXTUNE_CTRL = (RF->TXTUNE_CTRL & 0x80ffffff) | (tune2440 & 0x7f000000);
 500:	810006b7          	lui	a3,0x81000
 504:	16fd                	addi	a3,a3,-1
	RF->RF1 &= 0xffffffef;
 506:	9b3d                	andi	a4,a4,-17
 508:	c3d8                	sw	a4,4(a5)
	RF->RF1 &= 0xfffffffe;
 50a:	43d8                	lw	a4,4(a5)
 50c:	9b79                	andi	a4,a4,-2
 50e:	c3d8                	sw	a4,4(a5)
	RF->RF10 |= 0x1000;
 510:	5798                	lw	a4,40(a5)
 512:	8f51                	or	a4,a4,a2
 514:	d798                	sw	a4,40(a5)
	RF->RF11 |= 0x10;
 516:	57d8                	lw	a4,44(a5)
 518:	01076713          	ori	a4,a4,16
 51c:	d7d8                	sw	a4,44(a5)
	RF->TXTUNE_CTRL = (RF->TXTUNE_CTRL & 0xffffffc0) | (tune2440 & 0x3f);
 51e:	5f98                	lw	a4,56(a5)
 520:	fc077713          	andi	a4,a4,-64
 524:	01776733          	or	a4,a4,s7
 528:	df98                	sw	a4,56(a5)
	RF->TXTUNE_CTRL = (RF->TXTUNE_CTRL & 0x80ffffff) | (tune2440 & 0x7f000000);
 52a:	5f98                	lw	a4,56(a5)
 52c:	8f75                	and	a4,a4,a3
 52e:	8cd9                	or	s1,s1,a4
 530:	df84                	sw	s1,56(a5)
	RF->RF1 |= 0x100;
 532:	43d8                	lw	a4,4(a5)
	RF->RF20 &= 0xfffeffff;
 534:	76c1                	lui	a3,0xffff0
 536:	16fd                	addi	a3,a3,-1
	RF->RF1 |= 0x100;
 538:	10076713          	ori	a4,a4,256
 53c:	c3d8                	sw	a4,4(a5)
	RF->RF20 &= 0xfffeffff;
 53e:	4bb8                	lw	a4,80(a5)
 540:	8f75                	and	a4,a4,a3
 542:	cbb8                	sw	a4,80(a5)
	RF->RF2 |= 0x200000;
 544:	4798                	lw	a4,8(a5)
 546:	002006b7          	lui	a3,0x200
 54a:	8f55                	or	a4,a4,a3
 54c:	c798                	sw	a4,8(a5)
	RF->RF3 = (RF->RF3 & 0xffffffef) | 0x10;
 54e:	47d8                	lw	a4,12(a5)
	while(LL->TMR && ((RF->RXTUNE >> 8) & 1));
 550:	4000c6b7          	lui	a3,0x4000c
	RF->RF3 = (RF->RF3 & 0xffffffef) | 0x10;
 554:	01076713          	ori	a4,a4,16
 558:	c7d8                	sw	a4,12(a5)
	RF->RF1 |= 0x1000;
 55a:	43d8                	lw	a4,4(a5)
 55c:	8f51                	or	a4,a4,a2
 55e:	c3d8                	sw	a4,4(a5)
	LL->TMR = 100;
 560:	4000c7b7          	lui	a5,0x4000c
 564:	06400713          	li	a4,100
 568:	20078793          	addi	a5,a5,512 # 4000c200 <_eusrstack+0x20009200>
 56c:	d3f8                	sw	a4,100(a5)
	while(LL->TMR && ((RF->RXTUNE >> 8) & 1));
 56e:	4000d737          	lui	a4,0x4000d
 572:	20068793          	addi	a5,a3,512 # 4000c200 <_eusrstack+0x20009200>
 576:	53fc                	lw	a5,100(a5)
 578:	c791                	beqz	a5,584 <main+0x31a>
 57a:	09c72783          	lw	a5,156(a4) # 4000d09c <_eusrstack+0x2000a09c>
 57e:	1007f793          	andi	a5,a5,256
 582:	fbe5                	bnez	a5,572 <main+0x308>
	tuneFilter = RF->RXTUNE & 0x1f;
 584:	4000d7b7          	lui	a5,0x4000d
 588:	08078713          	addi	a4,a5,128 # 4000d080 <_eusrstack+0x2000a080>
 58c:	4f58                	lw	a4,28(a4)
 58e:	c0818693          	addi	a3,gp,-1016 # 20000004 <tuneFilter>
 592:	8b7d                	andi	a4,a4,31
 594:	c298                	sw	a4,0(a3)
	RF->RF20 |= 0x10000;
 596:	4bb8                	lw	a4,80(a5)
 598:	6641                	lui	a2,0x10
 59a:	c0818993          	addi	s3,gp,-1016 # 20000004 <tuneFilter>
 59e:	8f51                	or	a4,a4,a2
 5a0:	cbb8                	sw	a4,80(a5)
	RF->RF20 = (RF->RF20 & 0xffffffe0) | tuneFilter;
 5a2:	4bb8                	lw	a4,80(a5)
 5a4:	4290                	lw	a2,0(a3)
 5a6:	9b01                	andi	a4,a4,-32
 5a8:	8f51                	or	a4,a4,a2
 5aa:	cbb8                	sw	a4,80(a5)
	RF->RF2 &= 0xffdfffff;
 5ac:	4798                	lw	a4,8(a5)
 5ae:	ffe00637          	lui	a2,0xffe00
 5b2:	167d                	addi	a2,a2,-1
 5b4:	8f71                	and	a4,a4,a2
 5b6:	c798                	sw	a4,8(a5)
	tuneFilter2M = (tuneFilter +2 < 0x1f) ? (tuneFilter +2) : 0x1f;
 5b8:	4298                	lw	a4,0(a3)
 5ba:	46f9                	li	a3,30
 5bc:	47fd                	li	a5,31
 5be:	0709                	addi	a4,a4,2
 5c0:	00e6e563          	bltu	a3,a4,5ca <main+0x360>
 5c4:	0009a783          	lw	a5,0(s3)
 5c8:	0789                	addi	a5,a5,2
 5ca:	c0f1a623          	sw	a5,-1012(gp) # 20000008 <tuneFilter2M>
	RF->RF22 &= 0xfffeffff;
 5ce:	4000d7b7          	lui	a5,0x4000d
 5d2:	4fb8                	lw	a4,88(a5)
 5d4:	76c1                	lui	a3,0xffff0
 5d6:	16fd                	addi	a3,a3,-1
 5d8:	8f75                	and	a4,a4,a3
 5da:	cfb8                	sw	a4,88(a5)
	RF->RF2 |= 0x10000;
 5dc:	4798                	lw	a4,8(a5)
 5de:	66c1                	lui	a3,0x10
	RFEND_TXTune();
	RFEND_RXTune();
	DevSetMode(0);
 5e0:	4501                	li	a0,0
	RF->RF2 |= 0x10000;
 5e2:	8f55                	or	a4,a4,a3
 5e4:	c798                	sw	a4,8(a5)
	RF->RF3 = (RF->RF3 & 0xfffffeff) | 0x100;
 5e6:	47d8                	lw	a4,12(a5)
	RF->RF1 = (RF->RF1 & 0xfffeffff) | 0x100000;
 5e8:	ffef06b7          	lui	a3,0xffef0
 5ec:	16fd                	addi	a3,a3,-1
	RF->RF3 = (RF->RF3 & 0xfffffeff) | 0x100;
 5ee:	10076713          	ori	a4,a4,256
 5f2:	c7d8                	sw	a4,12(a5)
	RF->RF1 = (RF->RF1 & 0xfffeffff) | 0x100000;
 5f4:	43d8                	lw	a4,4(a5)
	BB->CTRL_CFG = (phy_mode == PHY_2M) ? CTRL_CFG_PHY_2M:
										  CTRL_CFG_PHY_1M; // default 1M for now
#endif

#ifdef CH570_CH572
	BB->BB9 = (BB->BB9 & 0xf9ffffff) | ((phy_mode == PHY_2M) ? 0 : 0x2000000);
 5f6:	fa000bb7          	lui	s7,0xfa000
	RF->RF20 = (RF->RF20 & 0xffffffe0) | ((phy_mode == PHY_2M) ? (tuneFilter2M & 0x1f) : (tuneFilter & 0x1f));
	BB->BB5 = (BB->BB5 & 0xffffffc0) | ((phy_mode == PHY_2M) ? 0xd : 0xb);
	BB->BB7 = (BB->BB7 & 0xff00fc00) | ((phy_mode == PHY_2M) ? 0x7f00a0 : 0x79009c);
 5fa:	ff010c37          	lui	s8,0xff010
	RF->RF1 = (RF->RF1 & 0xfffeffff) | 0x100000;
 5fe:	8f75                	and	a4,a4,a3
 600:	001006b7          	lui	a3,0x100
 604:	8f55                	or	a4,a4,a3
 606:	c3d8                	sw	a4,4(a5)
	DevSetMode(0);
 608:	3461                	jal	90 <DevSetMode>
	NVIC->IPRIOR[0x15] |= 0x80;
 60a:	e000e737          	lui	a4,0xe000e
 60e:	41574783          	lbu	a5,1045(a4) # e000e415 <_eusrstack+0xc000b415>
	BB->BB7 = (BB->BB7 & 0xff00fc00) | ((phy_mode == PHY_2M) ? 0x7f00a0 : 0x79009c);
 612:	00790cb7          	lui	s9,0x790
#elif defined(CH584_CH585) || defined(CH591_CH592)
	BB->BB6 = (BB->BB6 & 0xfffffc00) | ((phy_mode == PHY_2M) ? 0x13a : 0x132);
	BB->BB4 = (BB->BB4 & 0x00ffffff) | ((phy_mode == PHY_2M) ? 0x78000000 : 0x7f000000);
#endif

	BB->ACCESSADDRESS1 = 0x8E89BED6; // access address
 616:	8e89ca37          	lui	s4,0x8e89c
	NVIC->IPRIOR[0x15] |= 0x80;
 61a:	f807e793          	ori	a5,a5,-128
 61e:	0ff7f793          	andi	a5,a5,255
 622:	40f70aa3          	sb	a5,1045(a4)
	BB->CRCINIT1 = 0x555555; // crc init
 626:	00555ab7          	lui	s5,0x555
	NVIC->IENR[((uint32_t)(IRQn) >> 5)] = (1 << ((uint32_t)(IRQn) & 0x1F));
 62a:	002007b7          	lui	a5,0x200
#ifdef CH570_CH572
	BB->ACCESSADDRESS2 = 0x8E89BED6;
	BB->CRCINIT2 = 0x555555;
	BB->CRCPOLY1 = (BB->CRCPOLY1 & 0xff000000) | 0x80032d; // crc poly
 62e:	00800b37          	lui	s6,0x800
 632:	10f72023          	sw	a5,256(a4)
	if(LL->LL0 & 3) {
 636:	4000c4b7          	lui	s1,0x4000c
	BB->BB9 = (BB->BB9 & 0xf9ffffff) | ((phy_mode == PHY_2M) ? 0 : 0x2000000);
 63a:	1bfd                	addi	s7,s7,-1
	BB->BB7 = (BB->BB7 & 0xff00fc00) | ((phy_mode == PHY_2M) ? 0x7f00a0 : 0x79009c);
 63c:	c00c0c13          	addi	s8,s8,-1024 # ff00fc00 <_eusrstack+0xdf00cc00>
 640:	09cc8c93          	addi	s9,s9,156 # 79009c <rx_led.c.eedc55c1+0x78e2f2>
	BB->ACCESSADDRESS1 = 0x8E89BED6; // access address
 644:	ed6a0a13          	addi	s4,s4,-298 # 8e89bed6 <_eusrstack+0x6e898ed6>
	BB->CRCINIT1 = 0x555555; // crc init
 648:	555a8a93          	addi	s5,s5,1365 # 555555 <rx_led.c.eedc55c1+0x5537ab>
	BB->CRCPOLY1 = (BB->CRCPOLY1 & 0xff000000) | 0x80032d; // crc poly
 64c:	32db0b13          	addi	s6,s6,813 # 80032d <rx_led.c.eedc55c1+0x7fe583>
	DevSetMode(0);
 650:	4501                	li	a0,0
 652:	3c3d                	jal	90 <DevSetMode>
	if(LL->LL0 & 3) {
 654:	2004a783          	lw	a5,512(s1) # 4000c200 <_eusrstack+0x20009200>
 658:	20048713          	addi	a4,s1,512
 65c:	8b8d                	andi	a5,a5,3
 65e:	cb99                	beqz	a5,674 <main+0x40a>
		LL->CTRL_MOD &= CTRL_MOD_RFSTOP;
 660:	4b3c                	lw	a5,80(a4)
 662:	8ff7f793          	andi	a5,a5,-1793
 666:	cb3c                	sw	a5,80(a4)
		LL->LL0 |= 0x08;
 668:	2004a783          	lw	a5,512(s1)
 66c:	0087e793          	ori	a5,a5,8
 670:	20f4a023          	sw	a5,512(s1)
	LL->TMR = 0;
 674:	20048793          	addi	a5,s1,512
 678:	0607a223          	sw	zero,100(a5) # 200064 <rx_led.c.eedc55c1+0x1fe2ba>
	RF->RF11 &= 0xfffffffd;
 67c:	4000ddb7          	lui	s11,0x4000d
 680:	02cda783          	lw	a5,44(s11) # 4000d02c <_eusrstack+0x2000a02c>
	DevSetMode(DEVSETMODE_RX);
 684:	15800513          	li	a0,344
	BB->CTRL_CFG = (BB->CTRL_CFG & 0xffffff80) | (channel & 0x7f);
 688:	10048413          	addi	s0,s1,256
	RF->RF11 &= 0xfffffffd;
 68c:	9bf5                	andi	a5,a5,-3
 68e:	02fda623          	sw	a5,44(s11)
	BB->CTRL_CFG = (BB->CTRL_CFG & 0xffffff80) | (channel & 0x7f);
 692:	1004a783          	lw	a5,256(s1)
 696:	f807f793          	andi	a5,a5,-128
 69a:	0257e793          	ori	a5,a5,37
 69e:	10f4a023          	sw	a5,256(s1)
	DevSetMode(DEVSETMODE_RX);
 6a2:	32fd                	jal	90 <DevSetMode>
										  CTRL_CFG_PHY_1M; // default 1M for now
 6a4:	1004a783          	lw	a5,256(s1)
	BB->BB9 = (BB->BB9 & 0xf9ffffff) | ((phy_mode == PHY_2M) ? 0 : 0x2000000);
 6a8:	02000737          	lui	a4,0x2000
	BB->CRCPOLY1 = (BB->CRCPOLY1 & 0xff000000) | 0x80032d; // crc poly
 6ac:	ff0006b7          	lui	a3,0xff000
										  CTRL_CFG_PHY_1M; // default 1M for now
 6b0:	cff7f793          	andi	a5,a5,-769
	BB->CTRL_CFG = (phy_mode == PHY_2M) ? CTRL_CFG_PHY_2M:
 6b4:	1007e793          	ori	a5,a5,256
 6b8:	10f4a023          	sw	a5,256(s1)
	BB->BB9 = (BB->BB9 & 0xf9ffffff) | ((phy_mode == PHY_2M) ? 0 : 0x2000000);
 6bc:	505c                	lw	a5,36(s0)
 6be:	0177f7b3          	and	a5,a5,s7
 6c2:	8fd9                	or	a5,a5,a4
 6c4:	d05c                	sw	a5,36(s0)
	RF->RF20 = (RF->RF20 & 0xffffffe0) | ((phy_mode == PHY_2M) ? (tuneFilter2M & 0x1f) : (tuneFilter & 0x1f));
 6c6:	050da783          	lw	a5,80(s11)
 6ca:	0009a703          	lw	a4,0(s3)
 6ce:	9b81                	andi	a5,a5,-32
 6d0:	8b7d                	andi	a4,a4,31
 6d2:	8fd9                	or	a5,a5,a4
 6d4:	04fda823          	sw	a5,80(s11)
	BB->BB5 = (BB->BB5 & 0xffffffc0) | ((phy_mode == PHY_2M) ? 0xd : 0xb);
 6d8:	485c                	lw	a5,20(s0)
 6da:	fc07f793          	andi	a5,a5,-64
 6de:	00b7e793          	ori	a5,a5,11
 6e2:	c85c                	sw	a5,20(s0)
	BB->BB7 = (BB->BB7 & 0xff00fc00) | ((phy_mode == PHY_2M) ? 0x7f00a0 : 0x79009c);
 6e4:	4c5c                	lw	a5,28(s0)
 6e6:	0187f7b3          	and	a5,a5,s8
 6ea:	0197e7b3          	or	a5,a5,s9
 6ee:	cc5c                	sw	a5,28(s0)
	BB->ACCESSADDRESS1 = 0x8E89BED6; // access address
 6f0:	01442623          	sw	s4,12(s0) # 4000d00c <_eusrstack+0x2000a00c>
	BB->CRCINIT1 = 0x555555; // crc init
 6f4:	01542223          	sw	s5,4(s0)
	BB->ACCESSADDRESS2 = 0x8E89BED6;
 6f8:	07442023          	sw	s4,96(s0)
	BB->CRCINIT2 = 0x555555;
 6fc:	05542c23          	sw	s5,88(s0)
	BB->CRCPOLY1 = (BB->CRCPOLY1 & 0xff000000) | 0x80032d; // crc poly
 700:	4418                	lw	a4,8(s0)
 702:	8f75                	and	a4,a4,a3
 704:	01676733          	or	a4,a4,s6
 708:	c418                	sw	a4,8(s0)
	BB->CRCPOLY2 = (BB->CRCPOLY2 & 0xff000000) | 0x80032d;
 70a:	4c7c                	lw	a5,92(s0)
 70c:	c0418713          	addi	a4,gp,-1020 # 20000000 <rx_ready>
 710:	8ff5                	and	a5,a5,a3
 712:	0167e7b3          	or	a5,a5,s6
 716:	cc7c                	sw	a5,92(s0)
#endif

	//LL->LL1 = (LL->LL1 & 0xfffffffe) | 1; // 1: AUTO mode, to swap between RX <-> TX when either happened. 0: BASIC
	//LL->FRAME_BUF = (uint32_t)frame_info; // also this only in AUTO mode

	LL->LL0 = 1; // Not sure what this does, but on TX it's 2
 718:	4785                	li	a5,1
 71a:	20f4a023          	sw	a5,512(s1)
	rx_ready = 0;
 71e:	c0418793          	addi	a5,gp,-1020 # 20000000 <rx_ready>
 722:	0007a023          	sw	zero,0(a5)
        // Start RX
        // Frame_RX sets rx_ready = 0 and enables RX mode
        Frame_RX(NULL, 37, PHY_1M);
        
        // Wait for packet reception
        while(!rx_ready);
 726:	431c                	lw	a5,0(a4)
 728:	dffd                	beqz	a5,726 <main+0x4bc>
        // pBuf[0] is Header
        // pBuf[1] is Length
        // pBuf[2...] is Payload
        
        // We look for 0xCA 0xFE 0xBA 0xBE at the start of payload
        if (pBuf[2] == 0xCA && pBuf[3] == 0xFE && pBuf[4] == 0xBA && pBuf[5] == 0xBE) {
 72a:	00294703          	lbu	a4,2(s2)
 72e:	0ca00793          	li	a5,202
 732:	f0f71fe3          	bne	a4,a5,650 <main+0x3e6>
 736:	00394703          	lbu	a4,3(s2)
 73a:	0fe00793          	li	a5,254
 73e:	f0f719e3          	bne	a4,a5,650 <main+0x3e6>
 742:	00494703          	lbu	a4,4(s2)
 746:	0ba00793          	li	a5,186
 74a:	f0f713e3          	bne	a4,a5,650 <main+0x3e6>
 74e:	00594703          	lbu	a4,5(s2)
 752:	0be00793          	li	a5,190
 756:	eef71de3          	bne	a4,a5,650 <main+0x3e6>
    funDigitalWrite(LED_PIN, FUN_LOW);
 75a:	40001737          	lui	a4,0x40001
 75e:	0ac72783          	lw	a5,172(a4) # 400010ac <_eusrstack+0x1fffe0ac>
	while( ((int32_t)( SysTick->CNTL - targend )) < 0 );
 762:	e000f6b7          	lui	a3,0xe000f
 766:	2007e793          	ori	a5,a5,512
 76a:	0af72623          	sw	a5,172(a4)
	uint32_t targend = SysTick->CNTL + n;
 76e:	e000f7b7          	lui	a5,0xe000f
 772:	4798                	lw	a4,8(a5)
 774:	005b97b7          	lui	a5,0x5b9
 778:	d8078793          	addi	a5,a5,-640 # 5b8d80 <rx_led.c.eedc55c1+0x5b6fd6>
 77c:	973e                	add	a4,a4,a5
	while( ((int32_t)( SysTick->CNTL - targend )) < 0 );
 77e:	469c                	lw	a5,8(a3)
 780:	8f99                	sub	a5,a5,a4
 782:	fe07cee3          	bltz	a5,77e <main+0x514>
    funDigitalWrite(LED_PIN, FUN_HIGH);
 786:	40001737          	lui	a4,0x40001
 78a:	0a872783          	lw	a5,168(a4) # 400010a8 <_eusrstack+0x1fffe0a8>
 78e:	2007e793          	ori	a5,a5,512
 792:	0af72423          	sw	a5,168(a4)
 796:	bd6d                	j	650 <main+0x3e6>

00000798 <LLE_IRQHandler>:
void LLE_IRQHandler() {
 798:	715d                	addi	sp,sp,-80
 79a:	dc26                	sw	s1,56(sp)
		LL->STATUS &= LL->INT_EN;
 79c:	4000c4b7          	lui	s1,0x4000c
void LLE_IRQHandler() {
 7a0:	de22                	sw	s0,60(sp)
		LL->STATUS &= LL->INT_EN;
 7a2:	20048413          	addi	s0,s1,512 # 4000c200 <_eusrstack+0x20009200>
void LLE_IRQHandler() {
 7a6:	d23a                	sw	a4,36(sp)
 7a8:	d03e                	sw	a5,32(sp)
		LL->STATUS &= LL->INT_EN;
 7aa:	4458                	lw	a4,12(s0)
 7ac:	441c                	lw	a5,8(s0)
void LLE_IRQHandler() {
 7ae:	da2a                	sw	a0,52(sp)
 7b0:	c686                	sw	ra,76(sp)
 7b2:	c496                	sw	t0,72(sp)
 7b4:	c29a                	sw	t1,68(sp)
 7b6:	c09e                	sw	t2,64(sp)
 7b8:	d82e                	sw	a1,48(sp)
 7ba:	d632                	sw	a2,44(sp)
 7bc:	d436                	sw	a3,40(sp)
 7be:	ce42                	sw	a6,28(sp)
 7c0:	cc46                	sw	a7,24(sp)
 7c2:	ca72                	sw	t3,20(sp)
 7c4:	c876                	sw	t4,16(sp)
 7c6:	c67a                	sw	t5,12(sp)
 7c8:	c47e                	sw	t6,8(sp)
		LL->STATUS &= LL->INT_EN;
 7ca:	8ff9                	and	a5,a5,a4
 7cc:	c41c                	sw	a5,8(s0)
		BB->CTRL_TX = (BB->CTRL_TX & 0xfffffffc) | 1;
 7ce:	10048713          	addi	a4,s1,256
 7d2:	5b5c                	lw	a5,52(a4)
	DevSetMode(0);
 7d4:	4501                	li	a0,0
		BB->CTRL_TX = (BB->CTRL_TX & 0xfffffffc) | 1;
 7d6:	9bf1                	andi	a5,a5,-4
 7d8:	0017e793          	ori	a5,a5,1
 7dc:	db5c                	sw	a5,52(a4)
	DevSetMode(0);
 7de:	384d                	jal	90 <DevSetMode>
	LL->CTRL_MOD &= CTRL_MOD_RFSTOP;
 7e0:	483c                	lw	a5,80(s0)
	rx_ready = 1;
 7e2:	4705                	li	a4,1
}
 7e4:	40b6                	lw	ra,76(sp)
	LL->CTRL_MOD &= CTRL_MOD_RFSTOP;
 7e6:	8ff7f793          	andi	a5,a5,-1793
 7ea:	c83c                	sw	a5,80(s0)
	LL->LL0 |= 0x08;
 7ec:	2004a783          	lw	a5,512(s1)
}
 7f0:	5472                	lw	s0,60(sp)
 7f2:	42a6                	lw	t0,72(sp)
	LL->LL0 |= 0x08;
 7f4:	0087e793          	ori	a5,a5,8
 7f8:	20f4a023          	sw	a5,512(s1)
	rx_ready = 1;
 7fc:	c0e1a223          	sw	a4,-1020(gp) # 20000000 <rx_ready>
}
 800:	4316                	lw	t1,68(sp)
 802:	4386                	lw	t2,64(sp)
 804:	54e2                	lw	s1,56(sp)
 806:	5552                	lw	a0,52(sp)
 808:	55c2                	lw	a1,48(sp)
 80a:	5632                	lw	a2,44(sp)
 80c:	56a2                	lw	a3,40(sp)
 80e:	5712                	lw	a4,36(sp)
 810:	5782                	lw	a5,32(sp)
 812:	4872                	lw	a6,28(sp)
 814:	48e2                	lw	a7,24(sp)
 816:	4e52                	lw	t3,20(sp)
 818:	4ec2                	lw	t4,16(sp)
 81a:	4f32                	lw	t5,12(sp)
 81c:	4fa2                	lw	t6,8(sp)
 81e:	6161                	addi	sp,sp,80
 820:	30200073          	mret

00000824 <channel_map>:
 824:	04030201 08070605 0d0c0a09 11100f0e     ................
 834:	15141312 19181716 1d1c1b1a 21201f1e     .............. !
 844:	25242322 270b0026                       "#$%&..'
