
Discarded input sections

 .text          0x0000000000000000        0x0 C:\Users\LRNA\AppData\Local\Temp\drv8835controller.elf.CeAO5w.ltrans0.ltrans.o
 .data          0x0000000000000000        0x0 C:\Users\LRNA\AppData\Local\Temp\drv8835controller.elf.CeAO5w.ltrans0.ltrans.o
 .bss           0x0000000000000000        0x0 C:\Users\LRNA\AppData\Local\Temp\drv8835controller.elf.CeAO5w.ltrans0.ltrans.o
 .text.mini_pad
                0x0000000000000000       0xa0 C:\Users\LRNA\AppData\Local\Temp\drv8835controller.elf.CeAO5w.ltrans0.ltrans.o
 .text._puts    0x0000000000000000       0x42 C:\Users\LRNA\AppData\Local\Temp\drv8835controller.elf.CeAO5w.ltrans0.ltrans.o
 .text.mini_itoa.part.0
                0x0000000000000000       0x8e C:\Users\LRNA\AppData\Local\Temp\drv8835controller.elf.CeAO5w.ltrans0.ltrans.o
 .text.__puts_uart
                0x0000000000000000       0x20 C:\Users\LRNA\AppData\Local\Temp\drv8835controller.elf.CeAO5w.ltrans0.ltrans.o
 .text.strlen   0x0000000000000000       0x12 C:\Users\LRNA\AppData\Local\Temp\drv8835controller.elf.CeAO5w.ltrans0.ltrans.o
 .text.mini_vpprintf
                0x0000000000000000      0x1d6 C:\Users\LRNA\AppData\Local\Temp\drv8835controller.elf.CeAO5w.ltrans0.ltrans.o
 .text.printf   0x0000000000000000       0x30 C:\Users\LRNA\AppData\Local\Temp\drv8835controller.elf.CeAO5w.ltrans0.ltrans.o
 .text.vprintf  0x0000000000000000       0x16 C:\Users\LRNA\AppData\Local\Temp\drv8835controller.elf.CeAO5w.ltrans0.ltrans.o
 .text.mini_vsnprintf
                0x0000000000000000       0x3a C:\Users\LRNA\AppData\Local\Temp\drv8835controller.elf.CeAO5w.ltrans0.ltrans.o
 .text.snprintf
                0x0000000000000000       0x20 C:\Users\LRNA\AppData\Local\Temp\drv8835controller.elf.CeAO5w.ltrans0.ltrans.o
 .text.sprintf  0x0000000000000000       0x2c C:\Users\LRNA\AppData\Local\Temp\drv8835controller.elf.CeAO5w.ltrans0.ltrans.o
 .text.strcpy   0x0000000000000000       0x14 C:\Users\LRNA\AppData\Local\Temp\drv8835controller.elf.CeAO5w.ltrans0.ltrans.o
 .text.strncpy  0x0000000000000000       0x1c C:\Users\LRNA\AppData\Local\Temp\drv8835controller.elf.CeAO5w.ltrans0.ltrans.o
 .text.strcmp   0x0000000000000000       0x1a C:\Users\LRNA\AppData\Local\Temp\drv8835controller.elf.CeAO5w.ltrans0.ltrans.o
 .text.strncmp  0x0000000000000000       0x2e C:\Users\LRNA\AppData\Local\Temp\drv8835controller.elf.CeAO5w.ltrans0.ltrans.o
 .text.strchr   0x0000000000000000       0x16 C:\Users\LRNA\AppData\Local\Temp\drv8835controller.elf.CeAO5w.ltrans0.ltrans.o
 .text.strrchr  0x0000000000000000       0x3c C:\Users\LRNA\AppData\Local\Temp\drv8835controller.elf.CeAO5w.ltrans0.ltrans.o
 .text.memcmp   0x0000000000000000       0x26 C:\Users\LRNA\AppData\Local\Temp\drv8835controller.elf.CeAO5w.ltrans0.ltrans.o
 .text.memmove  0x0000000000000000       0x5e C:\Users\LRNA\AppData\Local\Temp\drv8835controller.elf.CeAO5w.ltrans0.ltrans.o
 .text.memchr   0x0000000000000000       0x1c C:\Users\LRNA\AppData\Local\Temp\drv8835controller.elf.CeAO5w.ltrans0.ltrans.o
 .text.strnlen  0x0000000000000000       0x2a C:\Users\LRNA\AppData\Local\Temp\drv8835controller.elf.CeAO5w.ltrans0.ltrans.o
 .text.twoway_strstr
                0x0000000000000000      0x254 C:\Users\LRNA\AppData\Local\Temp\drv8835controller.elf.CeAO5w.ltrans0.ltrans.o
 .text.strstr   0x0000000000000000      0x13a C:\Users\LRNA\AppData\Local\Temp\drv8835controller.elf.CeAO5w.ltrans0.ltrans.o
 .rodata.puts.str1.4
                0x0000000000000000        0x2 C:\Users\LRNA\AppData\Local\Temp\drv8835controller.elf.CeAO5w.ltrans0.ltrans.o
 .text.puts     0x0000000000000000       0x40 C:\Users\LRNA\AppData\Local\Temp\drv8835controller.elf.CeAO5w.ltrans0.ltrans.o
 .sbss.usb_debug
                0x0000000000000000        0x1 C:\Users\LRNA\AppData\Local\Temp\drv8835controller.elf.CeAO5w.ltrans0.ltrans.o
 .comment       0x0000000000000000       0x13 C:\Users\LRNA\AppData\Local\Temp\drv8835controller.elf.CeAO5w.ltrans0.ltrans.o
 .comment       0x0000000000000000       0x13 C:\Users\LRNA\AppData\Local\Temp\ccm0oPBl.debug.temp.o
 .comment       0x0000000000000000       0x13 C:\Users\LRNA\AppData\Local\Temp\cc0eNbVM.debug.temp.o

Memory Configuration

Name             Origin             Length             Attributes
FLASH            0x0000000000000000 0x000000000003c000 xr
RAM              0x0000000020000000 0x0000000000003000 xrw
*default*        0x0000000000000000 0xffffffffffffffff

Linker script and memory map

LOAD C:\Users\LRNA\AppData\Local\Temp\ccpKwfTo.o
LOAD C:\Users\LRNA\AppData\Local\Temp\drv8835controller.elf.CeAO5w.ltrans0.ltrans.o
LOAD C:\Users\LRNA\AppData\Local\Temp\ccm0oPBl.debug.temp.o
LOAD C:\Users\LRNA\AppData\Local\Temp\cc0eNbVM.debug.temp.o
LOAD C:\Users\LRNA\AppData\Local\Temp\cc7yOElE.o
LOAD c:/sysgcc/risc-v/bin/../lib/gcc/riscv64-unknown-elf/10.1.0/rv32imac/ilp32\libgcc.a

.init           0x0000000000000000       0x90
                0x0000000000000000                _sinit = .
                0x0000000000000000                . = ALIGN (0x4)
 *(SORT_NONE(.init))
 .init          0x0000000000000000       0x90 C:\Users\LRNA\AppData\Local\Temp\drv8835controller.elf.CeAO5w.ltrans0.ltrans.o
                0x0000000000000000                InterruptVector
                0x0000000000000090                . = ALIGN (0x4)
                0x0000000000000090                _einit = .

.highcodelalign
                0x0000000000000090        0x0
                0x0000000000000090                . = ALIGN (0x4)
                0x0000000000000090                PROVIDE (_highcode_lma = .)

.highcode       0x0000000020000000      0x40c load address 0x0000000000000090
                0x0000000020000000                . = ALIGN (0x4)
                0x0000000020000000                PROVIDE (_highcode_vma_start = .)
 *(.highcode*)
 .highcode      0x0000000020000000      0x40c C:\Users\LRNA\AppData\Local\Temp\drv8835controller.elf.CeAO5w.ltrans0.ltrans.o
                0x0000000020000000                HandleDataOut
                0x0000000020000140                iSLERRSSI
                0x0000000020000150                iSLERCRCOK
                0x0000000020000168                iSLERTX
                0x00000000200002b4                iSLERRX
                0x000000002000040c                . = ALIGN (0x4)
                0x000000002000040c                PROVIDE (_highcode_vma_end = .)

.text           0x000000000000049c      0xe48
                0x000000000000049c                . = ALIGN (0x4)
 *(.text)
 *(.text.*)
 .text.DelaySysTick
                0x000000000000049c       0x16 C:\Users\LRNA\AppData\Local\Temp\drv8835controller.elf.CeAO5w.ltrans0.ltrans.o
 .text.USBFS_InternalFinishSetup
                0x00000000000004b2       0x54 C:\Users\LRNA\AppData\Local\Temp\drv8835controller.elf.CeAO5w.ltrans0.ltrans.o
 .text.DevSetMode
                0x0000000000000506       0x52 C:\Users\LRNA\AppData\Local\Temp\drv8835controller.elf.CeAO5w.ltrans0.ltrans.o
 .text.RFEND_TXCTune
                0x0000000000000558       0x8a C:\Users\LRNA\AppData\Local\Temp\drv8835controller.elf.CeAO5w.ltrans0.ltrans.o
 .text.DevSetChannel
                0x00000000000005e2       0x22 C:\Users\LRNA\AppData\Local\Temp\drv8835controller.elf.CeAO5w.ltrans0.ltrans.o
 .text.handle_reset
                0x0000000000000604       0xac C:\Users\LRNA\AppData\Local\Temp\drv8835controller.elf.CeAO5w.ltrans0.ltrans.o
                0x0000000000000604                handle_reset
 .text.vector_handler
                0x00000000000006b0      0x472 C:\Users\LRNA\AppData\Local\Temp\drv8835controller.elf.CeAO5w.ltrans0.ltrans.o
                0x00000000000006b0                EXTI2_IRQHandler
                0x00000000000006b0                TIM8_TRG_COM_IRQHandler
                0x00000000000006b0                TIM8_CC_IRQHandler
                0x00000000000006b0                USART_WKUP_IRQHandler
                0x00000000000006b0                UART8_IRQHandler
                0x00000000000006b0                SPI4_IRQHandler
                0x00000000000006b0                NFC_IRQHandler
                0x00000000000006b0                DFSDM0_IRQHandler
                0x00000000000006b0                TIM1_CC_IRQHandler
                0x00000000000006b0                HardFault_Handler
                0x00000000000006b0                TIM10_IRQHandler
                0x00000000000006b0                GPIOB_IRQHandler
                0x00000000000006b0                IPC_CH2_Handler
                0x00000000000006b0                USBPD_IRQHandler
                0x00000000000006b0                TIM6_IRQHandler
                0x00000000000006b0                GPIOA_IRQHandler
                0x00000000000006b0                SysTick_Handler
                0x00000000000006b0                CAN3_RX1_IRQHandler
                0x00000000000006b0                I3C_ER_IRQHandler
                0x00000000000006b0                PVD_IRQHandler
                0x00000000000006b0                SDIO_IRQHandler
                0x00000000000006b0                TIM9_BRK_IRQHandler
                0x00000000000006b0                DMA2_Channel8_IRQHandler
                0x00000000000006b0                NMI_Handler
                0x00000000000006b0                CAN2_RX1_IRQHandler
                0x00000000000006b0                EXTI3_IRQHandler
                0x00000000000006b0                HSEM_Handler
                0x00000000000006b0                UART1_IRQHandler
                0x00000000000006b0                USBHS_IRQHandler
                0x00000000000006b0                LPTIM2_IRQHandler
                0x00000000000006b0                DMA2_Channel9_IRQHandler
                0x00000000000006b0                TIM10_CC_IRQHandler
                0x00000000000006b0                EXTI25_16_IRQHandler
                0x00000000000006b0                I2C3_ER_IRQHandler
                0x00000000000006b0                USBFS_IRQHandler
                0x00000000000006b0                UART0_IRQHandler
                0x00000000000006b0                USART8_IRQHandler
                0x00000000000006b0                EXTI0_IRQHandler
                0x00000000000006b0                I2C2_EV_IRQHandler
                0x00000000000006b0                TIM10_TRG_COM_IRQHandler
                0x00000000000006b0                LPTIM_IRQHandler
                0x00000000000006b0                CAN1_RX0_IRQHandler
                0x00000000000006b0                CAN3_SCE_IRQHandler
                0x00000000000006b0                CAN2_SCE_IRQHandler
                0x00000000000006b0                ADC1_2_IRQHandler
                0x00000000000006b0                BB_IRQHandler
                0x00000000000006b0                Break_Point_Handler
                0x00000000000006b0                IPC_CH0_Handler
                0x00000000000006b0                TIM2_CC_IRQHandler
                0x00000000000006b0                SPI1_IRQHandler
                0x00000000000006b0                USART5_IRQHandler
                0x00000000000006b0                TAMPER_IRQHandler
                0x00000000000006b0                TMR0_IRQHandler
                0x00000000000006b0                AWU_IRQHandler
                0x00000000000006b0                EXTI7_0_IRQHandler
                0x00000000000006b0                CAN2_RX0_IRQHandler
                0x00000000000006b0                OSCWakeUp_IRQHandler
                0x00000000000006b0                TIM8_UP_IRQHandler
                0x00000000000006b0                Ecall_M_Mode_Handler
                0x00000000000006b0                ECDC_IRQHandler
                0x00000000000006b0                SDMMC_IRQHandler
                0x00000000000006b0                USART7_IRQHandler
                0x00000000000006b0                DMA2_Channel2_IRQHandler
                0x00000000000006b0                DMA1_Channel4_IRQHandler
                0x00000000000006b0                ADC1_IRQHandler
                0x00000000000006b0                TIM2_BRK_IRQHandler
                0x00000000000006b0                USART6_IRQHandler
                0x00000000000006b0                CAN3_RX0_IRQHandler
                0x00000000000006b0                HSADC_IRQHandler
                0x00000000000006b0                TIM9_UP_IRQHandler
                0x00000000000006b0                USART3_IRQHandler
                0x00000000000006b0                RTC_IRQHandler
                0x00000000000006b0                DMA1_Channel7_IRQHandler
                0x00000000000006b0                LED_IRQHandler
                0x00000000000006b0                CAN1_RX1_IRQHandler
                0x00000000000006b0                DVP_IRQHandler
                0x00000000000006b0                UART5_IRQHandler
                0x00000000000006b0                USBSS_IRQHandler
                0x00000000000006b0                SWPMI_IRQHandler
                0x00000000000006b0                USBPDWakeUp_IRQHandler
                0x00000000000006b0                EXTI15_8_IRQHandler
                0x00000000000006b0                TIM4_IRQHandler
                0x00000000000006b0                DMA2_Channel1_IRQHandler
                0x00000000000006b0                SWPMI_WKUP_IRQHandler
                0x00000000000006b0                USBPD_WKUP_IRQHandler
                0x00000000000006b0                I2C1_EV_IRQHandler
                0x00000000000006b0                USBSSWakeup_IRQHandler
                0x00000000000006b0                UART2_IRQHandler
                0x00000000000006b0                USART4_IRQHandler
                0x00000000000006b0                PWMX_IRQHandler
                0x00000000000006b0                DMA1_Channel6_IRQHandler
                0x00000000000006b0                UART4_IRQHandler
                0x00000000000006b0                DMA2_Channel4_IRQHandler
                0x00000000000006b0                TIM3_IRQHandler
                0x00000000000006b0                RCC_IRQHandler
                0x00000000000006b0                TIM1_TRG_COM_IRQHandler
                0x00000000000006b0                DMA1_Channel1_IRQHandler
                0x00000000000006b0                DMA2_Channel7_IRQHandler
                0x00000000000006b0                QSPI1_IRQHandler
                0x00000000000006b0                EXTI15_10_IRQHandler
                0x00000000000006b0                ADC_IRQHandler
                0x00000000000006b0                IPC_CH3_Handler
                0x00000000000006b0                DMA1_Channel8_IRQHandler
                0x00000000000006b0                I3C_EV_IRQHandler
                0x00000000000006b0                TMR2_IRQHandler
                0x00000000000006b0                I3C_WKUP_IRQHandler
                0x00000000000006b0                DefaultIRQHandler
                0x00000000000006b0                TIM12_IRQHandler
                0x00000000000006b0                TIM7_IRQHandler
                0x00000000000006b0                CAN2_TX_IRQHandler
                0x00000000000006b0                TIM5_IRQHandler
                0x00000000000006b0                I2C3_EV_IRQHandler
                0x00000000000006b0                EXTI9_5_IRQHandler
                0x00000000000006b0                PIOC_IRQHandler
                0x00000000000006b0                TIM9_IRQHandler
                0x00000000000006b0                LTDC_IRQHandler
                0x00000000000006b0                SAI_IRQHandler
                0x00000000000006b0                SPI2_IRQHandler
                0x00000000000006b0                OSC32KCal_IRQHandler
                0x00000000000006b0                IPC_CH1_Handler
                0x00000000000006b0                I2C_IRQHandler
                0x00000000000006b0                LPTIM1_WKUP_IRQHandler
                0x00000000000006b0                TIM10_BRK_IRQHandler
                0x00000000000006b0                TIM9_CC_IRQHandler
                0x00000000000006b0                CAN1_TX_IRQHandler
                0x00000000000006b0                DMA2_Channel5_IRQHandler
                0x00000000000006b0                USB2_IRQHandler
                0x00000000000006b0                USBHSWakeUp_IRQHandler
                0x00000000000006b0                DMA1_Channel5_IRQHandler
                0x00000000000006b0                EXTI4_IRQHandler
                0x00000000000006b0                USB_LP_CAN1_RX0_IRQHandler
                0x00000000000006b0                QSPI2_IRQHandler
                0x00000000000006b0                RNG_IRQHandler
                0x00000000000006b0                USB_HP_CAN1_TX_IRQHandler
                0x00000000000006b0                CMPWakeUp_IRQHandler
                0x00000000000006b0                DMA1_Channel3_IRQHandler
                0x00000000000006b0                FSMC_IRQHandler
                0x00000000000006b0                ETH_IRQHandler
                0x00000000000006b0                TIM1_UP_IRQHandler
                0x00000000000006b0                LPTIMWakeUp_IRQHandler
                0x00000000000006b0                WWDG_IRQHandler
                0x00000000000006b0                USBHSWakeup_IRQHandler
                0x00000000000006b0                DMA2_Channel11_IRQHandler
                0x00000000000006b0                WDOG_BAT_IRQHandler
                0x00000000000006b0                Ecall_U_Mode_Handler
                0x00000000000006b0                I2C4_EV_IRQHandler
                0x00000000000006b0                CAN3_TX_IRQHandler
                0x00000000000006b0                TMR3_IRQHandler
                0x00000000000006b0                DMA2_Channel6_IRQHandler
                0x00000000000006b0                TIM2_IRQHandler
                0x00000000000006b0                SW_Handler
                0x00000000000006b0                TIM1_BRK_IRQHandler
                0x00000000000006b0                GPHA_IRQHandler
                0x00000000000006b0                OPA_IRQHandler
                0x00000000000006b0                DMA2_Channel10_IRQHandler
                0x00000000000006b0                EXTI1_IRQHandler
                0x00000000000006b0                SPI0_IRQHandler
                0x00000000000006b0                USB2_HOST_IRQHandler
                0x00000000000006b0                LPTIM2_WKUP_IRQHandler
                0x00000000000006b0                RTCAlarm_IRQHandler
                0x00000000000006b0                TIM11_IRQHandler
                0x00000000000006b0                TIM10_UP_IRQHandler
                0x00000000000006b0                TIM9_TRG_COM_IRQHandler
                0x00000000000006b0                UART7_IRQHandler
                0x00000000000006b0                USART2_IRQHandler
                0x00000000000006b0                UART6_IRQHandler
                0x00000000000006b0                UHSIF_IRQHandler
                0x00000000000006b0                ETHWakeUp_IRQHandler
                0x00000000000006b0                I2C2_ER_IRQHandler
                0x00000000000006b0                DMA1_Channel2_IRQHandler
                0x00000000000006b0                TIM8_BRK_IRQHandler
                0x00000000000006b0                TIM2_TRG_IRQHandler
                0x00000000000006b0                CAN1_SCE_IRQHandler
                0x00000000000006b0                FLASH_IRQHandler
                0x00000000000006b0                USBFSWakeUp_IRQHandler
                0x00000000000006b0                USART1_IRQHandler
                0x00000000000006b0                OTG_FS_IRQHandler
                0x00000000000006b0                SPI3_IRQHandler
                0x00000000000006b0                USBFS_WakeUp_IRQHandler
                0x00000000000006b0                UART3_IRQHandler
                0x00000000000006b0                I2C1_ER_IRQHandler
                0x00000000000006b0                FMC_IRQHandler
                0x00000000000006b0                USB2_DEVICE_IRQHandler
                0x00000000000006b0                LPTIM1_IRQHandler
                0x00000000000006b0                DFSDM1_IRQHandler
                0x00000000000006b0                TMR1_IRQHandler
                0x00000000000006b0                I2C4_ER_IRQHandler
                0x00000000000006b0                SERDES_IRQHandler
                0x00000000000006b0                USBSS_LINK_IRQHandler
                0x00000000000006b0                USBWakeUp_IRQHandler
                0x00000000000006b0                DMA2_Channel3_IRQHandler
 .text.memset   0x0000000000000b22       0x12 C:\Users\LRNA\AppData\Local\Temp\drv8835controller.elf.CeAO5w.ltrans0.ltrans.o
                0x0000000000000b22                memset
 .text.memcpy   0x0000000000000b34       0x1c C:\Users\LRNA\AppData\Local\Temp\drv8835controller.elf.CeAO5w.ltrans0.ltrans.o
                0x0000000000000b34                memcpy
 .text.SystemInit
                0x0000000000000b50       0x68 C:\Users\LRNA\AppData\Local\Temp\drv8835controller.elf.CeAO5w.ltrans0.ltrans.o
                0x0000000000000b50                SystemInit
 .text.LLE_IRQHandler
                0x0000000000000bb8       0x9c C:\Users\LRNA\AppData\Local\Temp\drv8835controller.elf.CeAO5w.ltrans0.ltrans.o
 .text.startup.main
                0x0000000000000c54      0x580 C:\Users\LRNA\AppData\Local\Temp\drv8835controller.elf.CeAO5w.ltrans0.ltrans.o
                0x0000000000000c54                main
 *(.rodata)
 *fill*         0x00000000000011d4        0x0 
 .rodata        0x00000000000011d4       0x3c C:\Users\LRNA\AppData\Local\Temp\drv8835controller.elf.CeAO5w.ltrans0.ltrans.o
 *(.rodata*)
 .rodata.vector_handler
                0x0000000000001210       0x30 C:\Users\LRNA\AppData\Local\Temp\drv8835controller.elf.CeAO5w.ltrans0.ltrans.o
 .rodata.channel_map
                0x0000000000001240       0x28 C:\Users\LRNA\AppData\Local\Temp\drv8835controller.elf.CeAO5w.ltrans0.ltrans.o
 .rodata.config_descriptor
                0x0000000000001268       0x20 C:\Users\LRNA\AppData\Local\Temp\drv8835controller.elf.CeAO5w.ltrans0.ltrans.o
 .rodata.descriptor_list
                0x0000000000001288       0x48 C:\Users\LRNA\AppData\Local\Temp\drv8835controller.elf.CeAO5w.ltrans0.ltrans.o
 .rodata.device_descriptor
                0x00000000000012d0       0x12 C:\Users\LRNA\AppData\Local\Temp\drv8835controller.elf.CeAO5w.ltrans0.ltrans.o
 *(.gnu.linkonce.t.*)
                0x00000000000012e4                . = ALIGN (0x4)
 *fill*         0x00000000000012e2        0x2 

.rela.dyn       0x00000000000012e4        0x0
 .rela.text.handle_reset
                0x00000000000012e4        0x0 C:\Users\LRNA\AppData\Local\Temp\drv8835controller.elf.CeAO5w.ltrans0.ltrans.o
 .rela.text.vector_handler
                0x00000000000012e4        0x0 C:\Users\LRNA\AppData\Local\Temp\drv8835controller.elf.CeAO5w.ltrans0.ltrans.o
 .rela.highcode
                0x00000000000012e4        0x0 C:\Users\LRNA\AppData\Local\Temp\drv8835controller.elf.CeAO5w.ltrans0.ltrans.o
 .rela.text.startup.main
                0x00000000000012e4        0x0 C:\Users\LRNA\AppData\Local\Temp\drv8835controller.elf.CeAO5w.ltrans0.ltrans.o

.fini           0x00000000000012e4        0x0
 *(SORT_NONE(.fini))
                0x00000000000012e4                . = ALIGN (0x4)
                [!provide]                        PROVIDE (_etext = .)
                [!provide]                        PROVIDE (_eitcm = .)

.preinit_array  0x00000000000012e4        0x0
                [!provide]                        PROVIDE (__preinit_array_start = .)
 *(.preinit_array)
                [!provide]                        PROVIDE (__preinit_array_end = .)

.init_array     0x00000000000012e4        0x0
                [!provide]                        PROVIDE (__init_array_start = .)
 *(SORT_BY_INIT_PRIORITY(.init_array.*) SORT_BY_INIT_PRIORITY(.ctors.*))
 *(.init_array EXCLUDE_FILE(*crtend?.o *crtend.o *crtbegin?.o *crtbegin.o) .ctors)
                [!provide]                        PROVIDE (__init_array_end = .)

.fini_array     0x00000000000012e4        0x0
                [!provide]                        PROVIDE (__fini_array_start = .)
 *(SORT_BY_INIT_PRIORITY(.fini_array.*) SORT_BY_INIT_PRIORITY(.dtors.*))
 *(.fini_array EXCLUDE_FILE(*crtend?.o *crtend.o *crtbegin?.o *crtbegin.o) .dtors)
                [!provide]                        PROVIDE (__fini_array_end = .)

.ctors
 *crtbegin.o(.ctors)
 *crtbegin?.o(.ctors)
 *(EXCLUDE_FILE(*crtend?.o *crtend.o) .ctors)
 *(SORT_BY_NAME(.ctors.*))
 *(.ctors)

.dtors
 *crtbegin.o(.dtors)
 *crtbegin?.o(.dtors)
 *(EXCLUDE_FILE(*crtend?.o *crtend.o) .dtors)
 *(SORT_BY_NAME(.dtors.*))
 *(.dtors)

.dalign         0x000000002000040c        0x0 load address 0x00000000000012e4
                0x000000002000040c                . = ALIGN (0x4)
                0x000000002000040c                PROVIDE (_data_vma = .)

.dlalign        0x00000000000012e4        0x0
                0x00000000000012e4                . = ALIGN (0x4)
                0x00000000000012e4                PROVIDE (_data_lma = .)

.data           0x000000002000040c        0x4 load address 0x00000000000012e4
                0x000000002000040c                . = ALIGN (0x4)
                0x0000000020000808                __global_pointer$ = (. + 0x3fc)
 *(.gnu.linkonce.r.*)
 *(.data .data.*)
 *(.gnu.linkonce.d.*)
                0x0000000020000410                . = ALIGN (0x8)
 *fill*         0x000000002000040c        0x4 
 *(.sdata .sdata.*)
 *(.sdata2*)
 *(.gnu.linkonce.s.*)
                0x0000000020000410                . = ALIGN (0x8)
 *(.srodata.cst16)
 *(.srodata.cst8)
 *(.srodata.cst4)
 *(.srodata.cst2)
 *(.srodata .srodata.*)
                0x0000000020000410                . = ALIGN (0x4)
                0x0000000020000410                PROVIDE (_edata = .)

.bss            0x0000000020000410      0x574 load address 0x00000000000012e4
                0x0000000020000410                . = ALIGN (0x4)
                0x0000000020000410                PROVIDE (_sbss = .)
 *(.sbss*)
 .sbss.led_state.0
                0x0000000020000410        0x4 C:\Users\LRNA\AppData\Local\Temp\drv8835controller.elf.CeAO5w.ltrans0.ltrans.o
 .sbss.rx_ready
                0x0000000020000414        0x4 C:\Users\LRNA\AppData\Local\Temp\drv8835controller.elf.CeAO5w.ltrans0.ltrans.o
 .sbss.tuneFilter
                0x0000000020000418        0x4 C:\Users\LRNA\AppData\Local\Temp\drv8835controller.elf.CeAO5w.ltrans0.ltrans.o
 .sbss.tuneFilter2M
                0x000000002000041c        0x4 C:\Users\LRNA\AppData\Local\Temp\drv8835controller.elf.CeAO5w.ltrans0.ltrans.o
 *(.gnu.linkonce.sb.*)
 *(.bss*)
 .bss.LLE_BUF   0x0000000020000420      0x440 C:\Users\LRNA\AppData\Local\Temp\drv8835controller.elf.CeAO5w.ltrans0.ltrans.o
 .bss.USBFSCTX  0x0000000020000860       0xe4 C:\Users\LRNA\AppData\Local\Temp\drv8835controller.elf.CeAO5w.ltrans0.ltrans.o
 .bss.gs_usb_data_buf
                0x0000000020000944       0x40 C:\Users\LRNA\AppData\Local\Temp\drv8835controller.elf.CeAO5w.ltrans0.ltrans.o
 *(.gnu.linkonce.b.*)
 *(COMMON*)
                0x0000000020000984                . = ALIGN (0x4)
                0x0000000020000984                PROVIDE (_ebss = .)
                [!provide]                        PROVIDE (_end = _ebss)
                [!provide]                        PROVIDE (end = .)
                0x0000000020003000                PROVIDE (_eusrstack = (ORIGIN (RAM) + LENGTH (RAM)))

/DISCARD/
 *(.note .note.*)
 *(.eh_frame .eh_frame.*)
 *(.comment .comment.*)
 *(.ARM.extab* .gnu.linkonce.armextab.*)
 *(.ARM.exidx*)
OUTPUT(drv8835controller.elf elf32-littleriscv)

.riscv.attributes
                0x0000000000000000       0x2b
 .riscv.attributes
                0x0000000000000000       0x2b C:\Users\LRNA\AppData\Local\Temp\drv8835controller.elf.CeAO5w.ltrans0.ltrans.o

.debug_info     0x0000000000000000     0x3bad
 .debug_info    0x0000000000000000     0x1676 C:\Users\LRNA\AppData\Local\Temp\drv8835controller.elf.CeAO5w.ltrans0.ltrans.o
 .debug_info    0x0000000000001676      0xd4c C:\Users\LRNA\AppData\Local\Temp\ccm0oPBl.debug.temp.o
                0x0000000000001676                ch32fun.c.beaf0083
 .debug_info    0x00000000000023c2     0x17eb C:\Users\LRNA\AppData\Local\Temp\cc0eNbVM.debug.temp.o
                0x00000000000023c2                drv8835controller.c.a2cec625

.debug_abbrev   0x0000000000000000      0x7b8
 .debug_abbrev  0x0000000000000000      0x1cf C:\Users\LRNA\AppData\Local\Temp\drv8835controller.elf.CeAO5w.ltrans0.ltrans.o
 .debug_abbrev  0x00000000000001cf      0x263 C:\Users\LRNA\AppData\Local\Temp\ccm0oPBl.debug.temp.o
 .debug_abbrev  0x0000000000000432      0x386 C:\Users\LRNA\AppData\Local\Temp\cc0eNbVM.debug.temp.o

.debug_loc      0x0000000000000000     0x2e3a
 .debug_loc     0x0000000000000000     0x2e3a C:\Users\LRNA\AppData\Local\Temp\drv8835controller.elf.CeAO5w.ltrans0.ltrans.o

.debug_aranges  0x0000000000000000      0x170
 .debug_aranges
                0x0000000000000000      0x170 C:\Users\LRNA\AppData\Local\Temp\drv8835controller.elf.CeAO5w.ltrans0.ltrans.o

.debug_ranges   0x0000000000000000      0x6b0
 .debug_ranges  0x0000000000000000      0x6b0 C:\Users\LRNA\AppData\Local\Temp\drv8835controller.elf.CeAO5w.ltrans0.ltrans.o

.debug_line     0x0000000000000000     0x4afe
 .debug_line    0x0000000000000000     0x47f3 C:\Users\LRNA\AppData\Local\Temp\drv8835controller.elf.CeAO5w.ltrans0.ltrans.o
 .debug_line    0x00000000000047f3      0x181 C:\Users\LRNA\AppData\Local\Temp\ccm0oPBl.debug.temp.o
 .debug_line    0x0000000000004974      0x18a C:\Users\LRNA\AppData\Local\Temp\cc0eNbVM.debug.temp.o

.debug_str      0x0000000000000000     0x139e
 .debug_str     0x0000000000000000      0x176 C:\Users\LRNA\AppData\Local\Temp\drv8835controller.elf.CeAO5w.ltrans0.ltrans.o
                                        0x191 (size before relaxing)
 .debug_str     0x0000000000000176      0x54a C:\Users\LRNA\AppData\Local\Temp\ccm0oPBl.debug.temp.o
                                        0x62b (size before relaxing)
 .debug_str     0x00000000000006c0      0xcde C:\Users\LRNA\AppData\Local\Temp\cc0eNbVM.debug.temp.o
                                        0xf2b (size before relaxing)

.debug_frame    0x0000000000000000      0x548
 .debug_frame   0x0000000000000000      0x548 C:\Users\LRNA\AppData\Local\Temp\drv8835controller.elf.CeAO5w.ltrans0.ltrans.o
