
drv8835controller.elf:     file format elf32-littleriscv


Disassembly of section .init:

00000000 <InterruptVector>:
	void InterruptVector()         __attribute__((naked)) __attribute((section(".init"))) __attribute((weak,alias("InterruptVectorDefault"))) __attribute((naked));
	void InterruptVectorDefault()  __attribute__((naked)) __attribute((section(".init"))) __attribute((naked));
	void InterruptVectorDefault( void )
	{
		#if !defined(FUNCONF_TINYVECTOR) || !FUNCONF_TINYVECTOR
			asm volatile( DEFAULT_INTERRUPT_VECTOR_CONTENTS );
   0:	6040006f          	j	604 <handle_reset>
   4:	0000                	unimp
   6:	0000                	unimp
   8:	06b0                	addi	a2,sp,840
   a:	0000                	unimp
   c:	06b0                	addi	a2,sp,840
   e:	0000                	unimp
  10:	bda9                	j	fffffe6a <_eusrstack+0xdfffce6a>
  12:	f3f9                	bnez	a5,ffffffd8 <_eusrstack+0xdfffcfd8>
  14:	06b0                	addi	a2,sp,840
	...
  1e:	0000                	unimp
  20:	06b0                	addi	a2,sp,840
  22:	0000                	unimp
  24:	06b0                	addi	a2,sp,840
	...
  2e:	0000                	unimp
  30:	06b0                	addi	a2,sp,840
  32:	0000                	unimp
  34:	0000                	unimp
  36:	0000                	unimp
  38:	06b0                	addi	a2,sp,840
  3a:	0000                	unimp
  3c:	0000                	unimp
  3e:	0000                	unimp
  40:	06b0                	addi	a2,sp,840
  42:	0000                	unimp
  44:	06b0                	addi	a2,sp,840
  46:	0000                	unimp
  48:	06b0                	addi	a2,sp,840
  4a:	0000                	unimp
  4c:	06b0                	addi	a2,sp,840
  4e:	0000                	unimp
  50:	06b0                	addi	a2,sp,840
  52:	0000                	unimp
  54:	0bb8                	addi	a4,sp,472
  56:	0000                	unimp
  58:	06b2                	slli	a3,a3,0xc
  5a:	0000                	unimp
  5c:	0000                	unimp
  5e:	0000                	unimp
  60:	06b0                	addi	a2,sp,840
  62:	0000                	unimp
  64:	06b0                	addi	a2,sp,840
  66:	0000                	unimp
  68:	06b0                	addi	a2,sp,840
  6a:	0000                	unimp
  6c:	06b0                	addi	a2,sp,840
  6e:	0000                	unimp
  70:	06b0                	addi	a2,sp,840
  72:	0000                	unimp
  74:	06b0                	addi	a2,sp,840
  76:	0000                	unimp
  78:	06b0                	addi	a2,sp,840
  7a:	0000                	unimp
  7c:	06b0                	addi	a2,sp,840
  7e:	0000                	unimp
  80:	06b0                	addi	a2,sp,840
  82:	0000                	unimp
  84:	06b0                	addi	a2,sp,840
  86:	0000                	unimp
  88:	06b0                	addi	a2,sp,840
  8a:	0000                	unimp
  8c:	06b0                	addi	a2,sp,840
	...

Disassembly of section .highcode:

20000000 <HandleDataOut>:
int HandleInRequest(struct _USBState *ctx, int endp, uint8_t *data, int len) {
  return 0;
}

__HIGH_CODE
void HandleDataOut(struct _USBState *ctx, int endp, uint8_t *data, int len) {
20000000:	1101                	addi	sp,sp,-32
20000002:	cc22                	sw	s0,24(sp)
20000004:	ce06                	sw	ra,28(sp)
20000006:	ca26                	sw	s1,20(sp)
20000008:	c84a                	sw	s2,16(sp)
2000000a:	c64e                	sw	s3,12(sp)
2000000c:	c452                	sw	s4,8(sp)
2000000e:	c256                	sw	s5,4(sp)
20000010:	c05a                	sw	s6,0(sp)
20000012:	842a                	mv	s0,a0
  // this is actually the data rx handler
  if (endp == 0) {
20000014:	ed89                	bnez	a1,2000002e <HandleDataOut+0x2e>
    // this is in the hsusb.c default handler
    ctx->USBFS_SetupReqLen = 0; // To ACK
20000016:	00051123          	sh	zero,2(a0)
      // Buffer full, drop packet
    }

    ctx->USBFS_Endp_Busy[USB_EP_RX] = 0;
  }
}
2000001a:	40f2                	lw	ra,28(sp)
2000001c:	4462                	lw	s0,24(sp)
2000001e:	44d2                	lw	s1,20(sp)
20000020:	4942                	lw	s2,16(sp)
20000022:	49b2                	lw	s3,12(sp)
20000024:	4a22                	lw	s4,8(sp)
20000026:	4a92                	lw	s5,4(sp)
20000028:	4b02                	lw	s6,0(sp)
2000002a:	6105                	addi	sp,sp,32
2000002c:	8082                	ret
  } else if (endp == USB_EP_RX) {
2000002e:	4789                	li	a5,2
20000030:	fef595e3          	bne	a1,a5,2000001a <HandleDataOut+0x1a>
    if (len == 4 && ((uint32_t *)data)[0] == 0x010001a2) {
20000034:	4791                	li	a5,4
20000036:	0cf69b63          	bne	a3,a5,2000010c <HandleDataOut+0x10c>
2000003a:	4218                	lw	a4,0(a2)
2000003c:	010007b7          	lui	a5,0x1000
20000040:	1a278793          	addi	a5,a5,418 # 10001a2 <drv8835controller.c.a2cec625+0xffdde0>
20000044:	0cf71463          	bne	a4,a5,2000010c <HandleDataOut+0x10c>
}

// Disable Interrupt (by interrupt number)
RV_STATIC_INLINE void NVIC_DisableIRQ(IRQn_Type IRQn)
{
	NVIC->IRER[((uint32_t)(IRQn) >> 5)] = (1 << ((uint32_t)(IRQn) & 0x1F));
20000048:	e000e7b7          	lui	a5,0xe000e
2000004c:	00400737          	lui	a4,0x400
20000050:	18e7a023          	sw	a4,384(a5) # e000e180 <_eusrstack+0xc000b180>
#ifdef CH5xx
void USBFSReset()
{
	NVIC_DisableIRQ( USB_IRQn );
#if defined (CH570_CH572)
	R16_PIN_ALTERNATE &= ~(RB_PIN_USB_EN | RB_UDP_PU_EN);
20000054:	400016b7          	lui	a3,0x40001
20000058:	0186d783          	lhu	a5,24(a3) # 40001018 <_eusrstack+0x1fffe018>
2000005c:	7775                	lui	a4,0xffffd
2000005e:	177d                	addi	a4,a4,-1
20000060:	07c2                	slli	a5,a5,0x10
20000062:	83c1                	srli	a5,a5,0x10
20000064:	8ff9                	and	a5,a5,a4
20000066:	00f69c23          	sh	a5,24(a3)
#elif defined (CH584_CH585)
	R16_PIN_CONFIG &= ~(RB_PIN_USB_EN | RB_UDP_PU_EN);
#else
	R16_PIN_ANALOG_IE &= ~(RB_PIN_USB_IE | RB_PIN_USB_DP_PU);
#endif
	USBFS->BASE_CTRL = USBFS_UC_RESET_SIE | USBFS_UC_CLR_ALL;
2000006a:	4719                	li	a4,6
2000006c:	400087b7          	lui	a5,0x40008
20000070:	00e78023          	sb	a4,0(a5) # 40008000 <_eusrstack+0x20005000>
	USBFS->BASE_CTRL = 0x00;
20000074:	00078023          	sb	zero,0(a5)
	Delay_Us(10);
20000078:	04600513          	li	a0,70
    funDigitalWrite(LED, FUN_LOW);
2000007c:	400019b7          	lui	s3,0x40001
    Delay_Ms(delay);
20000080:	000254b7          	lui	s1,0x25
20000084:	49c000e7          	jalr	1180(zero) # 0 <InterruptVector>
20000088:	4929                	li	s2,10
    funDigitalWrite(LED, FUN_LOW);
2000008a:	0ac98a93          	addi	s5,s3,172 # 400010ac <_eusrstack+0x1fffe0ac>
2000008e:	20000a13          	li	s4,512
20000092:	20000b13          	li	s6,512
    Delay_Ms(delay);
20000096:	9f048493          	addi	s1,s1,-1552 # 249f0 <drv8835controller.c.a2cec625+0x2262e>
2000009a:	8526                	mv	a0,s1
    funDigitalWrite(LED, FUN_LOW);
2000009c:	016aa023          	sw	s6,0(s5)
    Delay_Ms(delay);
200000a0:	49c000e7          	jalr	1180(zero) # 0 <InterruptVector>
    Delay_Ms(delay);
200000a4:	8526                	mv	a0,s1
    funDigitalWrite(LED, FUN_HIGH);
200000a6:	0b49ac23          	sw	s4,184(s3)
  for (int i = 0; i < n; i++) {
200000aa:	197d                	addi	s2,s2,-1
    Delay_Ms(delay);
200000ac:	49c000e7          	jalr	1180(zero) # 0 <InterruptVector>
  for (int i = 0; i < n; i++) {
200000b0:	fe0915e3          	bnez	s2,2000009a <HandleDataOut+0x9a>

}

RV_STATIC_INLINE void jump_isprom()
{
	memcpy((void*)ISPROM_IN_RAM_ADDRESS, (void*)(ISPROM_ADDRESS + ISPROM_START_OFFSET), ISPROM_SIZE); // copy bootloader to ram
200000b4:	0003c5b7          	lui	a1,0x3c
200000b8:	6609                	lui	a2,0x2
200000ba:	0c058593          	addi	a1,a1,192 # 3c0c0 <drv8835controller.c.a2cec625+0x39cfe>
200000be:	20000537          	lui	a0,0x20000
200000c2:	e0001097          	auipc	ra,0xe0001
200000c6:	a72080e7          	jalr	-1422(ra) # b34 <memcpy>
#ifdef CH570_CH572	
	*(int32_t*)(ISPROM_BOOTBUTTON_CHECK_ADDRESS + 0xc) = 0x00014505; // nop \n li a0,1, patch PA1 detection
200000ca:	67d1                	lui	a5,0x14
200000cc:	20000737          	lui	a4,0x20000
200000d0:	50578793          	addi	a5,a5,1285 # 14505 <drv8835controller.c.a2cec625+0x12143>
#elif (defined(CH584_CH585) || defined(CH591_CH592))
	*(int16_t*)(ISPROM_BOOTBUTTON_CHECK_ADDRESS + 0xa) = 0x4505; // li a0,1, patch PB11 (option byte is not read correctly) detection
#endif
	
#if (defined(CH570_CH572) || defined(CH584_CH585) || defined(CH591_CH592))
	memset((void*)ISPROM_BSS_ADDRESS, 0, ISPROM_BSS_SIZE); // clear .bss
200000d4:	20002537          	lui	a0,0x20002
	*(int32_t*)(ISPROM_BOOTBUTTON_CHECK_ADDRESS + 0xc) = 0x00014505; // nop \n li a0,1, patch PA1 detection
200000d8:	10f72623          	sw	a5,268(a4) # 2000010c <HandleDataOut+0x10c>
	memset((void*)ISPROM_BSS_ADDRESS, 0, ISPROM_BSS_SIZE); // clear .bss
200000dc:	47400613          	li	a2,1140
200000e0:	4581                	li	a1,0
200000e2:	ba050513          	addi	a0,a0,-1120 # 20001ba0 <_ebss+0x121c>
200000e6:	e0001097          	auipc	ra,0xe0001
200000ea:	a3c080e7          	jalr	-1476(ra) # b22 <memset>

	asm( "la gp, " ISPROM_IN_RAM_GLOBALPOINTER "\n"
200000ee:	200021b7          	lui	gp,0x20002
200000f2:	39818193          	addi	gp,gp,920 # 20002398 <_ebss+0x1a14>
200000f6:	200012b7          	lui	t0,0x20001
200000fa:	19628293          	addi	t0,t0,406 # 20001196 <_ebss+0x812>
200000fe:	34129073          	csrw	mepc,t0
20000102:	30200073          	mret
    ctx->USBFS_Endp_Busy[USB_EP_RX] = 0;
20000106:	0e040123          	sb	zero,226(s0)
2000010a:	bf01                	j	2000001a <HandleDataOut+0x1a>
    } else if (gs_usb_data_buf[0] == 0) {
2000010c:	13c18793          	addi	a5,gp,316 # 20000944 <gs_usb_data_buf>
20000110:	0007c783          	lbu	a5,0(a5)
20000114:	13c18713          	addi	a4,gp,316 # 20000944 <gs_usb_data_buf>
20000118:	0ff7f793          	andi	a5,a5,255
2000011c:	f7ed                	bnez	a5,20000106 <HandleDataOut+0x106>
      gs_usb_data_buf[0] = len;
2000011e:	0ff6f793          	andi	a5,a3,255
20000122:	00f70023          	sb	a5,0(a4)
      for (int i = 0; i < len; i++) {
20000126:	4781                	li	a5,0
20000128:	fcd7dfe3          	bge	a5,a3,20000106 <HandleDataOut+0x106>
        gs_usb_data_buf[i + 1] = data[i];
2000012c:	0785                	addi	a5,a5,1
2000012e:	00f605b3          	add	a1,a2,a5
20000132:	fff5c503          	lbu	a0,-1(a1)
20000136:	00f705b3          	add	a1,a4,a5
2000013a:	00a58023          	sb	a0,0(a1)
      for (int i = 0; i < len; i++) {
2000013e:	b7ed                	j	20000128 <HandleDataOut+0x128>

20000140 <iSLERRSSI>:
__HIGH_CODE
int iSLERRSSI() {
#ifdef CH570_CH572
  uint8_t *tx_buf = (uint8_t *)LLE_BUF;
  int len = tx_buf[1];
  return (int8_t)tx_buf[len + 4];
20000140:	c1818793          	addi	a5,gp,-1000 # 20000420 <LLE_BUF>
20000144:	0017c703          	lbu	a4,1(a5)
20000148:	97ba                	add	a5,a5,a4
#else
  return (int8_t)(BB->RSSI >> 0xf);
#endif
}
2000014a:	00478503          	lb	a0,4(a5)
2000014e:	8082                	ret

20000150 <iSLERCRCOK>:
__HIGH_CODE
int iSLERCRCOK() {
#ifdef CH570_CH572
  uint8_t *tx_buf = (uint8_t *)LLE_BUF;
  int len = tx_buf[1];
  return (int8_t)!(tx_buf[len + 5] & 0x10);
20000150:	c1818793          	addi	a5,gp,-1000 # 20000420 <LLE_BUF>
20000154:	0017c703          	lbu	a4,1(a5)
20000158:	97ba                	add	a5,a5,a4
2000015a:	0057c503          	lbu	a0,5(a5)
2000015e:	8111                	srli	a0,a0,0x4
20000160:	00154513          	xori	a0,a0,1
#else
  // Unimplemented!
  return -1;
#endif
}
20000164:	8905                	andi	a0,a0,1
20000166:	8082                	ret

20000168 <iSLERTX>:

__HIGH_CODE
void iSLERTX(uint32_t access_address, uint8_t adv[], size_t len,
             uint8_t channel, uint8_t phy_mode) {
20000168:	1101                	addi	sp,sp,-32
2000016a:	ca26                	sw	s1,20(sp)
  BB->CTRL_TX = (BB->CTRL_TX & 0xfffffffc) | 1;
2000016c:	4000c4b7          	lui	s1,0x4000c
             uint8_t channel, uint8_t phy_mode) {
20000170:	cc22                	sw	s0,24(sp)
  BB->CTRL_TX = (BB->CTRL_TX & 0xfffffffc) | 1;
20000172:	10048413          	addi	s0,s1,256 # 4000c100 <_eusrstack+0x20009100>
20000176:	585c                	lw	a5,52(s0)
             uint8_t channel, uint8_t phy_mode) {
20000178:	ce06                	sw	ra,28(sp)
2000017a:	c84a                	sw	s2,16(sp)
  BB->CTRL_TX = (BB->CTRL_TX & 0xfffffffc) | 1;
2000017c:	9bf1                	andi	a5,a5,-4
             uint8_t channel, uint8_t phy_mode) {
2000017e:	c64e                	sw	s3,12(sp)
20000180:	c452                	sw	s4,8(sp)
20000182:	c256                	sw	s5,4(sp)
  BB->CTRL_TX = (BB->CTRL_TX & 0xfffffffc) | 1;
20000184:	0017e793          	ori	a5,a5,1
             uint8_t channel, uint8_t phy_mode) {
20000188:	8a2a                	mv	s4,a0
  BB->CTRL_TX = (BB->CTRL_TX & 0xfffffffc) | 1;
2000018a:	d85c                	sw	a5,52(s0)

  DevSetChannel(channel);
2000018c:	8536                	mv	a0,a3
             uint8_t channel, uint8_t phy_mode) {
2000018e:	8aae                	mv	s5,a1
20000190:	8932                	mv	s2,a2
20000192:	89ba                	mv	s3,a4
  DevSetChannel(channel);
20000194:	5e2000e7          	jalr	1506(zero) # 0 <InterruptVector>

  // Disable whitening - MUST be after DevSetChannel which clears bit 6
  BB->CTRL_CFG |= (1 << 6);
20000198:	1004a783          	lw	a5,256(s1)
  DevSetMode(DEVSETMODE_TX);
2000019c:	25800513          	li	a0,600
#endif

#if defined(CH571_CH573)
  DMA->TXBUF = (uint32_t)adv;
#else
  LL->TXBUF = (uint32_t)adv;
200001a0:	20048493          	addi	s1,s1,512
  BB->CTRL_CFG |= (1 << 6);
200001a4:	0407e793          	ori	a5,a5,64
200001a8:	f0f4a023          	sw	a5,-256(s1)
  DevSetMode(DEVSETMODE_TX);
200001ac:	506000e7          	jalr	1286(zero) # 0 <InterruptVector>
  BB->CRCINIT1 = 0x555555;             // crc init
200001b0:	005557b7          	lui	a5,0x555
  BB->ACCESSADDRESS1 = access_address; // access address
200001b4:	01442623          	sw	s4,12(s0)
  BB->CRCINIT1 = 0x555555;             // crc init
200001b8:	55578793          	addi	a5,a5,1365 # 555555 <drv8835controller.c.a2cec625+0x553193>
200001bc:	c05c                	sw	a5,4(s0)
  BB->ACCESSADDRESS2 = access_address;
200001be:	07442023          	sw	s4,96(s0)
  BB->CRCINIT2 = 0x555555;
200001c2:	cc3c                	sw	a5,88(s0)
  BB->CRCPOLY1 = (BB->CRCPOLY1 & 0xff000000) | 0x80032d; // crc poly
200001c4:	4414                	lw	a3,8(s0)
200001c6:	ff000637          	lui	a2,0xff000
200001ca:	00800737          	lui	a4,0x800
200001ce:	8ef1                	and	a3,a3,a2
200001d0:	32d70713          	addi	a4,a4,813 # 80032d <drv8835controller.c.a2cec625+0x7fdf6b>
200001d4:	8ed9                	or	a3,a3,a4
200001d6:	c414                	sw	a3,8(s0)
  BB->CRCPOLY2 = (BB->CRCPOLY2 & 0xff000000) | 0x80032d;
200001d8:	4c7c                	lw	a5,92(s0)
#endif

  // Wait for tuning bit to clear.
  for (int timeout = 3000; !(RF->RF26 & 0x1000000) && timeout >= 0; timeout--)
200001da:	4000d6b7          	lui	a3,0x4000d
  BB->CRCPOLY2 = (BB->CRCPOLY2 & 0xff000000) | 0x80032d;
200001de:	8ff1                	and	a5,a5,a2
200001e0:	8fd9                	or	a5,a5,a4
200001e2:	cc7c                	sw	a5,92(s0)
  LL->TXBUF = (uint32_t)adv;
200001e4:	6785                	lui	a5,0x1
200001e6:	0754ac23          	sw	s5,120(s1)
200001ea:	bba78793          	addi	a5,a5,-1094 # bba <LLE_IRQHandler+0x2>
  for (int timeout = 3000; !(RF->RF26 & 0x1000000) && timeout >= 0; timeout--)
200001ee:	01000637          	lui	a2,0x1000
200001f2:	56b8                	lw	a4,104(a3)
200001f4:	8f71                	and	a4,a4,a2
200001f6:	e319                	bnez	a4,200001fc <iSLERTX+0x94>
200001f8:	17fd                	addi	a5,a5,-1
200001fa:	ffe5                	bnez	a5,200001f2 <iSLERTX+0x8a>
  }
#elif defined(CH571_CH573)
  BB->CTRL_CFG = CTRL_CFG_PHY_1M; // no 2M PHY on ch571/3
#else
  BB->CTRL_CFG = (phy_mode == PHY_2M) ? CTRL_CFG_PHY_2M
                                      : CTRL_CFG_PHY_1M; // default 1M for now
200001fc:	4789                	li	a5,2
200001fe:	0af99263          	bne	s3,a5,200002a2 <iSLERTX+0x13a>
  BB->CTRL_CFG = (phy_mode == PHY_2M) ? CTRL_CFG_PHY_2M
20000202:	4000c7b7          	lui	a5,0x4000c
20000206:	1007a783          	lw	a5,256(a5) # 4000c100 <_eusrstack+0x20009100>
                                      : CTRL_CFG_PHY_1M; // default 1M for now
2000020a:	cff7f793          	andi	a5,a5,-769
  BB->CTRL_CFG = (phy_mode == PHY_2M) ? CTRL_CFG_PHY_2M
2000020e:	4000c737          	lui	a4,0x4000c
20000212:	10070693          	addi	a3,a4,256 # 4000c100 <_eusrstack+0x20009100>
20000216:	10f72023          	sw	a5,256(a4)
#endif

#if defined(CH570_CH572)
  BB->BB9 = (BB->BB9 & 0xf9ffffff) | ((phy_mode == PHY_2M) ? 0 : 0x2000000);
2000021a:	52dc                	lw	a5,36(a3)
2000021c:	fa000737          	lui	a4,0xfa000
20000220:	177d                	addi	a4,a4,-1
20000222:	4609                	li	a2,2
20000224:	8ff9                	and	a5,a5,a4
20000226:	4701                	li	a4,0
20000228:	00c98463          	beq	s3,a2,20000230 <iSLERTX+0xc8>
2000022c:	02000737          	lui	a4,0x2000
20000230:	8fd9                	or	a5,a5,a4
20000232:	4000c737          	lui	a4,0x4000c
20000236:	d2dc                	sw	a5,36(a3)
#if defined(CH571_CH573)
  BB->BB11 = (BB->BB11 & 0xfffffffc); // |2 for RX
#endif

  // This clears bit 17 (If set, seems to have no impact.)
  LL->LL4 &= 0xfffdffff;
20000238:	20070793          	addi	a5,a4,512 # 4000c200 <_eusrstack+0x20009200>
2000023c:	4b90                	lw	a2,16(a5)
2000023e:	7581                	lui	a1,0xfffe0
20000240:	15fd                	addi	a1,a1,-1
20000242:	8e6d                	and	a2,a2,a1
20000244:	cb90                	sw	a2,16(a5)

#if !defined(CH571_CH573)
  LL->STATUS = LL_STATUS_TX;
20000246:	00020637          	lui	a2,0x20
2000024a:	c790                	sw	a2,8(a5)
#endif
  LL->TMR = (uint32_t)(len * 512); // needs optimisation, per phy mode
2000024c:	0926                	slli	s2,s2,0x9
2000024e:	0727a223          	sw	s2,100(a5)

  BB->CTRL_CFG |= CTRL_CFG_START_TX;
20000252:	10072783          	lw	a5,256(a4)
20000256:	01000637          	lui	a2,0x1000
2000025a:	8fd1                	or	a5,a5,a2
2000025c:	10f72023          	sw	a5,256(a4)
  BB->CTRL_TX &= 0xfffffffc;
20000260:	5adc                	lw	a5,52(a3)
20000262:	9bf1                	andi	a5,a5,-4
20000264:	dadc                	sw	a5,52(a3)

  LL->LL0 = 2; // Not sure what this does, but on RX it's 1
20000266:	4789                	li	a5,2
20000268:	20f72023          	sw	a5,512(a4)

  while (LL->TMR)
2000026c:	20070413          	addi	s0,a4,512
20000270:	507c                	lw	a5,100(s0)
20000272:	ffed                	bnez	a5,2000026c <iSLERTX+0x104>
    ; // wait for tx buffer to empty
  DevSetMode(0);
20000274:	4501                	li	a0,0
20000276:	506000e7          	jalr	1286(zero) # 0 <InterruptVector>
  if (LL->LL0 & 3) {
2000027a:	401c                	lw	a5,0(s0)
2000027c:	8b8d                	andi	a5,a5,3
2000027e:	cb89                	beqz	a5,20000290 <iSLERTX+0x128>
    LL->CTRL_MOD &= CTRL_MOD_RFSTOP;
20000280:	483c                	lw	a5,80(s0)
20000282:	8ff7f793          	andi	a5,a5,-1793
20000286:	c83c                	sw	a5,80(s0)
    LL->LL0 |= 0x08;
20000288:	401c                	lw	a5,0(s0)
2000028a:	0087e793          	ori	a5,a5,8
2000028e:	c01c                	sw	a5,0(s0)
  }
}
20000290:	40f2                	lw	ra,28(sp)
20000292:	4462                	lw	s0,24(sp)
20000294:	44d2                	lw	s1,20(sp)
20000296:	4942                	lw	s2,16(sp)
20000298:	49b2                	lw	s3,12(sp)
2000029a:	4a22                	lw	s4,8(sp)
2000029c:	4a92                	lw	s5,4(sp)
2000029e:	6105                	addi	sp,sp,32
200002a0:	8082                	ret
                                      : CTRL_CFG_PHY_1M; // default 1M for now
200002a2:	4000c7b7          	lui	a5,0x4000c
200002a6:	1007a783          	lw	a5,256(a5) # 4000c100 <_eusrstack+0x20009100>
200002aa:	cff7f793          	andi	a5,a5,-769
200002ae:	1007e793          	ori	a5,a5,256
200002b2:	bfb1                	j	2000020e <iSLERTX+0xa6>

200002b4 <iSLERRX>:

__HIGH_CODE
void iSLERRX(uint32_t access_address, uint8_t channel, uint8_t phy_mode) {
200002b4:	1101                	addi	sp,sp,-32
200002b6:	ca26                	sw	s1,20(sp)
200002b8:	84aa                	mv	s1,a0
  DevSetMode(0);
200002ba:	4501                	li	a0,0
void iSLERRX(uint32_t access_address, uint8_t channel, uint8_t phy_mode) {
200002bc:	cc22                	sw	s0,24(sp)
200002be:	c64e                	sw	s3,12(sp)
200002c0:	ce06                	sw	ra,28(sp)
200002c2:	c84a                	sw	s2,16(sp)
200002c4:	89ae                	mv	s3,a1
200002c6:	8432                	mv	s0,a2
  DevSetMode(0);
200002c8:	506000e7          	jalr	1286(zero) # 0 <InterruptVector>
  if (LL->LL0 & 3) {
200002cc:	4000c7b7          	lui	a5,0x4000c
200002d0:	2007a703          	lw	a4,512(a5) # 4000c200 <_eusrstack+0x20009200>
200002d4:	8b0d                	andi	a4,a4,3
200002d6:	cf09                	beqz	a4,200002f0 <iSLERRX+0x3c>
200002d8:	20078693          	addi	a3,a5,512
    LL->CTRL_MOD &= CTRL_MOD_RFSTOP;
200002dc:	4ab8                	lw	a4,80(a3)
200002de:	8ff77713          	andi	a4,a4,-1793
200002e2:	cab8                	sw	a4,80(a3)
    LL->LL0 |= 0x08;
200002e4:	2007a703          	lw	a4,512(a5)
200002e8:	00876713          	ori	a4,a4,8
200002ec:	20e7a023          	sw	a4,512(a5)
  }
  LL->TMR = 0;
200002f0:	4000c937          	lui	s2,0x4000c
200002f4:	20090793          	addi	a5,s2,512 # 4000c200 <_eusrstack+0x20009200>
200002f8:	0607a223          	sw	zero,100(a5)

  DevSetChannel(channel);
200002fc:	854e                	mv	a0,s3
200002fe:	5e2000e7          	jalr	1506(zero) # 0 <InterruptVector>
  // Disable whitening - MUST be after DevSetChannel which clears bit 6
  BB->CTRL_CFG |= (1 << 6);
20000302:	10092783          	lw	a5,256(s2)
  DevSetMode(DEVSETMODE_RX);
20000306:	15800513          	li	a0,344
  BB->CTRL_CFG |= (1 << 6);
2000030a:	0407e793          	ori	a5,a5,64
2000030e:	10f92023          	sw	a5,256(s2)
  DevSetMode(DEVSETMODE_RX);
20000312:	506000e7          	jalr	1286(zero) # 0 <InterruptVector>
  }
#elif defined(CH571_CH573)
  BB->CTRL_CFG = CTRL_CFG_PHY_1M; // no 2M PHY on ch571/3
#else
  BB->CTRL_CFG = (phy_mode == PHY_2M) ? CTRL_CFG_PHY_2M
                                      : CTRL_CFG_PHY_1M; // default 1M for now
20000316:	4789                	li	a5,2
20000318:	0cf41b63          	bne	s0,a5,200003ee <iSLERRX+0x13a>
  BB->CTRL_CFG = (phy_mode == PHY_2M) ? CTRL_CFG_PHY_2M
2000031c:	10092783          	lw	a5,256(s2)
                                      : CTRL_CFG_PHY_1M; // default 1M for now
20000320:	cff7f793          	andi	a5,a5,-769
  BB->CTRL_CFG = (phy_mode == PHY_2M) ? CTRL_CFG_PHY_2M
20000324:	4000c737          	lui	a4,0x4000c
20000328:	10070693          	addi	a3,a4,256 # 4000c100 <_eusrstack+0x20009100>
2000032c:	10f72023          	sw	a5,256(a4)
#endif

#ifdef CH570_CH572
  BB->BB9 = (BB->BB9 & 0xf9ffffff) | ((phy_mode == PHY_2M) ? 0 : 0x2000000);
20000330:	52dc                	lw	a5,36(a3)
20000332:	fa000737          	lui	a4,0xfa000
20000336:	177d                	addi	a4,a4,-1
20000338:	4609                	li	a2,2
2000033a:	8ff9                	and	a5,a5,a4
2000033c:	4701                	li	a4,0
2000033e:	00c40463          	beq	s0,a2,20000346 <iSLERRX+0x92>
20000342:	02000737          	lui	a4,0x2000
20000346:	8fd9                	or	a5,a5,a4
20000348:	d2dc                	sw	a5,36(a3)
  RF->RF20 =
      (RF->RF20 & 0xffffffe0) |
2000034a:	4000d7b7          	lui	a5,0x4000d
2000034e:	4bbc                	lw	a5,80(a5)
20000350:	fe07f713          	andi	a4,a5,-32
      ((phy_mode == PHY_2M) ? (tuneFilter2M & 0x1f) : (tuneFilter & 0x1f));
20000354:	4789                	li	a5,2
20000356:	0af41363          	bne	s0,a5,200003fc <iSLERRX+0x148>
2000035a:	c141a783          	lw	a5,-1004(gp) # 2000041c <tuneFilter2M>
2000035e:	8bfd                	andi	a5,a5,31
      (RF->RF20 & 0xffffffe0) |
20000360:	8fd9                	or	a5,a5,a4
  RF->RF20 =
20000362:	4000d737          	lui	a4,0x4000d
20000366:	cb3c                	sw	a5,80(a4)
  BB->BB5 = (BB->BB5 & 0xffffffc0) | ((phy_mode == PHY_2M) ? 0xd : 0xb);
20000368:	4000c7b7          	lui	a5,0x4000c
2000036c:	10078793          	addi	a5,a5,256 # 4000c100 <_eusrstack+0x20009100>
20000370:	4bd8                	lw	a4,20(a5)
20000372:	4609                	li	a2,2
20000374:	46b5                	li	a3,13
20000376:	fc077713          	andi	a4,a4,-64
2000037a:	00c40363          	beq	s0,a2,20000380 <iSLERRX+0xcc>
2000037e:	46ad                	li	a3,11
20000380:	8f55                	or	a4,a4,a3
20000382:	cbd8                	sw	a4,20(a5)
  BB->BB7 =
      (BB->BB7 & 0xff00fc00) | ((phy_mode == PHY_2M) ? 0x7f00a0 : 0x79009c);
20000384:	4fd8                	lw	a4,28(a5)
20000386:	ff0107b7          	lui	a5,0xff010
2000038a:	c0078793          	addi	a5,a5,-1024 # ff00fc00 <_eusrstack+0xdf00cc00>
2000038e:	8f7d                	and	a4,a4,a5
20000390:	4789                	li	a5,2
20000392:	06f40863          	beq	s0,a5,20000402 <iSLERRX+0x14e>
20000396:	007907b7          	lui	a5,0x790
2000039a:	09c78793          	addi	a5,a5,156 # 79009c <drv8835controller.c.a2cec625+0x78dcda>
  BB->BB7 =
2000039e:	4000c5b7          	lui	a1,0x4000c
      (BB->BB7 & 0xff00fc00) | ((phy_mode == PHY_2M) ? 0x7f00a0 : 0x79009c);
200003a2:	8f5d                	or	a4,a4,a5
  BB->BB7 =
200003a4:	10058793          	addi	a5,a1,256 # 4000c100 <_eusrstack+0x20009100>
200003a8:	cfd8                	sw	a4,28(a5)
  BB->BB4 =
      (BB->BB4 & 0x00ffffff) | ((phy_mode == PHY_2M) ? 0x78000000 : 0x7f000000);
#endif

  BB->ACCESSADDRESS1 = access_address; // access address
  BB->CRCINIT1 = 0x555555;             // crc init
200003aa:	00555737          	lui	a4,0x555
  BB->ACCESSADDRESS1 = access_address; // access address
200003ae:	c7c4                	sw	s1,12(a5)
  BB->CRCINIT1 = 0x555555;             // crc init
200003b0:	55570713          	addi	a4,a4,1365 # 555555 <drv8835controller.c.a2cec625+0x553193>
200003b4:	c3d8                	sw	a4,4(a5)
#ifdef CH570_CH572
  BB->ACCESSADDRESS2 = access_address;
200003b6:	d3a4                	sw	s1,96(a5)
  BB->CRCINIT2 = 0x555555;
200003b8:	cfb8                	sw	a4,88(a5)
  BB->CRCPOLY1 = (BB->CRCPOLY1 & 0xff000000) | 0x80032d; // crc poly
200003ba:	4794                	lw	a3,8(a5)
200003bc:	ff000537          	lui	a0,0xff000
200003c0:	00800637          	lui	a2,0x800
200003c4:	32d60613          	addi	a2,a2,813 # 80032d <drv8835controller.c.a2cec625+0x7fdf6b>
200003c8:	8ee9                	and	a3,a3,a0
200003ca:	8ed1                	or	a3,a3,a2
200003cc:	c794                	sw	a3,8(a5)
  BB->CRCPOLY2 = (BB->CRCPOLY2 & 0xff000000) | 0x80032d;
200003ce:	4ff8                	lw	a4,92(a5)

  LL->LL0 = 1; // Not sure what this does, but on TX it's 2
#ifndef ISLER_CALLBACK
  rx_ready = 0;
#endif
}
200003d0:	40f2                	lw	ra,28(sp)
200003d2:	4462                	lw	s0,24(sp)
  BB->CRCPOLY2 = (BB->CRCPOLY2 & 0xff000000) | 0x80032d;
200003d4:	8f69                	and	a4,a4,a0
200003d6:	8f51                	or	a4,a4,a2
200003d8:	cff8                	sw	a4,92(a5)
  LL->LL0 = 1; // Not sure what this does, but on TX it's 2
200003da:	4785                	li	a5,1
200003dc:	20f5a023          	sw	a5,512(a1)
  rx_ready = 0;
200003e0:	c001a623          	sw	zero,-1012(gp) # 20000414 <rx_ready>
}
200003e4:	44d2                	lw	s1,20(sp)
200003e6:	4942                	lw	s2,16(sp)
200003e8:	49b2                	lw	s3,12(sp)
200003ea:	6105                	addi	sp,sp,32
200003ec:	8082                	ret
                                      : CTRL_CFG_PHY_1M; // default 1M for now
200003ee:	10092783          	lw	a5,256(s2)
200003f2:	cff7f793          	andi	a5,a5,-769
200003f6:	1007e793          	ori	a5,a5,256
200003fa:	b72d                	j	20000324 <iSLERRX+0x70>
      ((phy_mode == PHY_2M) ? (tuneFilter2M & 0x1f) : (tuneFilter & 0x1f));
200003fc:	c101a783          	lw	a5,-1008(gp) # 20000418 <tuneFilter>
20000400:	bfb9                	j	2000035e <iSLERRX+0xaa>
      (BB->BB7 & 0xff00fc00) | ((phy_mode == PHY_2M) ? 0x7f00a0 : 0x79009c);
20000402:	007f07b7          	lui	a5,0x7f0
20000406:	0a078793          	addi	a5,a5,160 # 7f00a0 <drv8835controller.c.a2cec625+0x7edcde>
2000040a:	bf51                	j	2000039e <iSLERRX+0xea>

Disassembly of section .text:

0000049c <DelaySysTick>:
	while( ((int32_t)( SysTick->CNT - targend )) < 0 );
#elif defined(CH32V20x) || defined(CH32V30x) || defined(CH32X03x) || defined(CH32L103) || defined(CH582_CH583) || defined(CH591_CH592) || defined(CH32H41x)
	uint64_t targend = SysTick->CNT + n;
	while( ((int64_t)( SysTick->CNT - targend )) < 0 );
#elif defined(CH32V10x) || defined(CH570_CH572) || defined(CH584_CH585)
	uint32_t targend = SysTick->CNTL + n;
     49c:	e000f7b7          	lui	a5,0xe000f
     4a0:	479c                	lw	a5,8(a5)
	while( ((int32_t)( SysTick->CNTL - targend )) < 0 );
     4a2:	e000f737          	lui	a4,0xe000f
	uint32_t targend = SysTick->CNTL + n;
     4a6:	953e                	add	a0,a0,a5
	while( ((int32_t)( SysTick->CNTL - targend )) < 0 );
     4a8:	471c                	lw	a5,8(a4)
     4aa:	8f89                	sub	a5,a5,a0
     4ac:	fe07cee3          	bltz	a5,4a8 <DelaySysTick+0xc>
	uint64_t targend = SysTick->CNT - n;
	while( ((int64_t)( SysTick->CNT - targend )) > 0 );
#else
	#error DelaySysTick not defined.
#endif
}
     4b0:	8082                	ret

000004b2 <USBFS_InternalFinishSetup>:
	USBFSCTX.endpoint_mode[1] = FUSB_EP1_MODE;
     4b2:	05818793          	addi	a5,gp,88 # 20000860 <USBFSCTX>
     4b6:	4705                	li	a4,1
     4b8:	0ce7aa23          	sw	a4,212(a5) # e000f0d4 <_eusrstack+0xc000c0d4>
	USBFS->UEP4_1_MOD = USBFS_UEP1_TX_EN;
     4bc:	04000693          	li	a3,64
     4c0:	40008737          	lui	a4,0x40008
     4c4:	00d70623          	sb	a3,12(a4) # 4000800c <_eusrstack+0x2000500c>
	USBFSCTX.endpoint_mode[2] = FUSB_EP2_MODE;
     4c8:	56fd                	li	a3,-1
     4ca:	0cd7ac23          	sw	a3,216(a5)
	USBFS->UEP2_3_MOD = USBFS_UEP2_RX_EN;
     4ce:	46a1                	li	a3,8
     4d0:	00d706a3          	sb	a3,13(a4)
		UEP_DMA(i) = (uintptr_t)USBFSCTX.ENDPOINTS[i];
     4d4:	01078693          	addi	a3,a5,16
     4d8:	00d71823          	sh	a3,16(a4)
     4dc:	05078693          	addi	a3,a5,80
     4e0:	00d71a23          	sh	a3,20(a4)
     4e4:	09078693          	addi	a3,a5,144
     4e8:	00d71c23          	sh	a3,24(a4)
	UEP_CTRL_TX(0) = USBFS_UEP_T_RES_NAK | USBFS_UEP_R_RES_ACK | CHECK_USBFS_UEP_T_AUTO_TOG;
     4ec:	46c9                	li	a3,18
     4ee:	02d70123          	sb	a3,34(a4)
			UEP_CTRL_TX(i) = USBFS_UEP_T_RES_NAK;
     4f2:	4689                	li	a3,2
     4f4:	02d70323          	sb	a3,38(a4)
		USBFSCTX.USBFS_Endp_Busy[i] = 0;
     4f8:	0e0780a3          	sb	zero,225(a5)
			UEP_CTRL_TX(i) = USBFS_UEP_R_RES_ACK;
     4fc:	02070523          	sb	zero,42(a4)
		USBFSCTX.USBFS_Endp_Busy[i] = 0;
     500:	0e078123          	sb	zero,226(a5)
}
     504:	8082                	ret

00000506 <DevSetMode>:
  if (mode) {
     506:	fffd07b7          	lui	a5,0xfffd0
    BB->CTRL_CFG = DEVSETMODE_ON;
     50a:	4000c6b7          	lui	a3,0x4000c
     50e:	fff78713          	addi	a4,a5,-1 # fffcffff <_eusrstack+0xdffccfff>
     512:	1006a783          	lw	a5,256(a3) # 4000c100 <_eusrstack+0x20009100>
     516:	8ff9                	and	a5,a5,a4
  if (mode) {
     518:	c11d                	beqz	a0,53e <DevSetMode+0x38>
    BB->CTRL_CFG = DEVSETMODE_ON;
     51a:	00020737          	lui	a4,0x20
     51e:	8fd9                	or	a5,a5,a4
     520:	10f6a023          	sw	a5,256(a3)
    RF->RF2 |= 0x330000;
     524:	4000d737          	lui	a4,0x4000d
     528:	471c                	lw	a5,8(a4)
     52a:	003306b7          	lui	a3,0x330
     52e:	8fd5                	or	a5,a5,a3
     530:	c71c                	sw	a5,8(a4)
  LL->CTRL_MOD = mode;
     532:	4000c7b7          	lui	a5,0x4000c
     536:	20078793          	addi	a5,a5,512 # 4000c200 <_eusrstack+0x20009200>
     53a:	cba8                	sw	a0,80(a5)
}
     53c:	8082                	ret
    BB->CTRL_CFG = DEVSETMODE_OFF;
     53e:	6741                	lui	a4,0x10
     540:	8fd9                	or	a5,a5,a4
     542:	10f6a023          	sw	a5,256(a3) # 330100 <drv8835controller.c.a2cec625+0x32dd3e>
    RF->RF2 &= 0xffcdffff;
     546:	4000d6b7          	lui	a3,0x4000d
     54a:	469c                	lw	a5,8(a3)
     54c:	ffce0737          	lui	a4,0xffce0
     550:	177d                	addi	a4,a4,-1
     552:	8ff9                	and	a5,a5,a4
     554:	c69c                	sw	a5,8(a3)
     556:	bff1                	j	532 <DevSetMode+0x2c>

00000558 <RFEND_TXCTune>:
  RF->RF1 &= 0xfffffffe;
     558:	4000d737          	lui	a4,0x4000d
     55c:	435c                	lw	a5,4(a4)
      (RF->TXTUNE_CTRL & 0xfffe00ff) | (0xbf00 + (channel_map[channel] << 8));
     55e:	6685                	lui	a3,0x1
     560:	24068693          	addi	a3,a3,576 # 1240 <channel_map>
  RF->RF1 &= 0xfffffffe;
     564:	9bf9                	andi	a5,a5,-2
      (RF->TXTUNE_CTRL & 0xfffe00ff) | (0xbf00 + (channel_map[channel] << 8));
     566:	96aa                	add	a3,a3,a0
  RF->RF1 &= 0xfffffffe;
     568:	c35c                	sw	a5,4(a4)
      (RF->TXTUNE_CTRL & 0xfffe00ff) | (0xbf00 + (channel_map[channel] << 8));
     56a:	0006c783          	lbu	a5,0(a3)
     56e:	66b1                	lui	a3,0xc
     570:	5f10                	lw	a2,56(a4)
     572:	f0068693          	addi	a3,a3,-256 # bf00 <drv8835controller.c.a2cec625+0x9b3e>
     576:	07a2                	slli	a5,a5,0x8
     578:	97b6                	add	a5,a5,a3
     57a:	7681                	lui	a3,0xfffe0
     57c:	0ff68693          	addi	a3,a3,255 # fffe00ff <_eusrstack+0xdffdd0ff>
     580:	8e75                	and	a2,a2,a3
     582:	8fd1                	or	a5,a5,a2
  RF->TXTUNE_CTRL =
     584:	df1c                	sw	a5,56(a4)
  RF->RF1 |= 1;
     586:	435c                	lw	a5,4(a4)
  while (!(RF->TXCTUNE_CO_CTRL & (1 << 25)) ||
     588:	02000637          	lui	a2,0x2000
         !(RF->TXCTUNE_CO_CTRL & (1 << 26))) {
     58c:	040006b7          	lui	a3,0x4000
  RF->RF1 |= 1;
     590:	0017e793          	ori	a5,a5,1
     594:	c35c                	sw	a5,4(a4)
  LL->TMR = 8000;
     596:	4000c7b7          	lui	a5,0x4000c
     59a:	6709                	lui	a4,0x2
     59c:	f4070713          	addi	a4,a4,-192 # 1f40 <ch32fun.c.beaf0083+0x8ca>
     5a0:	20078793          	addi	a5,a5,512 # 4000c200 <_eusrstack+0x20009200>
     5a4:	d3f8                	sw	a4,100(a5)
    if (LL->TMR == 0) {
     5a6:	4000c5b7          	lui	a1,0x4000c
  while (!(RF->TXCTUNE_CO_CTRL & (1 << 25)) ||
     5aa:	4000d737          	lui	a4,0x4000d
     5ae:	09072783          	lw	a5,144(a4) # 4000d090 <_eusrstack+0x2000a090>
     5b2:	8ff1                	and	a5,a5,a2
     5b4:	c789                	beqz	a5,5be <RFEND_TXCTune+0x66>
         !(RF->TXCTUNE_CO_CTRL & (1 << 26))) {
     5b6:	09072783          	lw	a5,144(a4)
     5ba:	8ff5                	and	a5,a5,a3
  while (!(RF->TXCTUNE_CO_CTRL & (1 << 25)) ||
     5bc:	e789                	bnez	a5,5c6 <RFEND_TXCTune+0x6e>
    if (LL->TMR == 0) {
     5be:	20058793          	addi	a5,a1,512 # 4000c200 <_eusrstack+0x20009200>
     5c2:	53fc                	lw	a5,100(a5)
     5c4:	f7ed                	bnez	a5,5ae <RFEND_TXCTune+0x56>
  uint8_t nCO = (uint8_t)RF->TXCTUNE_CO_CTRL & 0x3f;
     5c6:	4000d7b7          	lui	a5,0x4000d
     5ca:	0907a503          	lw	a0,144(a5) # 4000d090 <_eusrstack+0x2000a090>
  uint8_t nGA = (uint8_t)(RF->TXCTUNE_GA_CTRL >> 10) & 0x7f;
     5ce:	0947a783          	lw	a5,148(a5)
  return (nGA << 24) | nCO;
     5d2:	03f57513          	andi	a0,a0,63
  uint8_t nGA = (uint8_t)(RF->TXCTUNE_GA_CTRL >> 10) & 0x7f;
     5d6:	83a9                	srli	a5,a5,0xa
  return (nGA << 24) | nCO;
     5d8:	07f7f793          	andi	a5,a5,127
     5dc:	07e2                	slli	a5,a5,0x18
}
     5de:	8d5d                	or	a0,a0,a5
     5e0:	8082                	ret

000005e2 <DevSetChannel>:
  RF->RF11 &= 0xfffffffd;
     5e2:	4000d737          	lui	a4,0x4000d
     5e6:	575c                	lw	a5,44(a4)
  BB->CTRL_CFG = (BB->CTRL_CFG & 0xffffff80) | (channel & 0x7f);
     5e8:	07f57513          	andi	a0,a0,127
  RF->RF11 &= 0xfffffffd;
     5ec:	9bf5                	andi	a5,a5,-3
     5ee:	d75c                	sw	a5,44(a4)
  BB->CTRL_CFG = (BB->CTRL_CFG & 0xffffff80) | (channel & 0x7f);
     5f0:	4000c737          	lui	a4,0x4000c
     5f4:	10072783          	lw	a5,256(a4) # 4000c100 <_eusrstack+0x20009100>
     5f8:	f807f793          	andi	a5,a5,-128
     5fc:	8fc9                	or	a5,a5,a0
     5fe:	10f72023          	sw	a5,256(a4)
}
     602:	8082                	ret

00000604 <handle_reset>:
	asm volatile( "\n\
     604:	20000197          	auipc	gp,0x20000
     608:	20418193          	addi	gp,gp,516 # 20000808 <__global_pointer$>
     60c:	20003117          	auipc	sp,0x20003
     610:	9f410113          	addi	sp,sp,-1548 # 20003000 <_eusrstack>
	asm volatile(
     614:	c0818513          	addi	a0,gp,-1016 # 20000410 <led_state.0>
     618:	17c18593          	addi	a1,gp,380 # 20000984 <_ebss>
     61c:	00b57763          	bgeu	a0,a1,62a <handle_reset+0x26>
     620:	00052023          	sw	zero,0(a0) # ff000000 <_eusrstack+0xdeffd000>
     624:	0511                	addi	a0,a0,4
     626:	feb56de3          	bltu	a0,a1,620 <handle_reset+0x1c>
     62a:	09000513          	li	a0,144
     62e:	20000597          	auipc	a1,0x20000
     632:	9d258593          	addi	a1,a1,-1582 # 20000000 <HandleDataOut>
     636:	20000617          	auipc	a2,0x20000
     63a:	dd660613          	addi	a2,a2,-554 # 2000040c <_data_vma>
     63e:	00c5fa63          	bgeu	a1,a2,652 <handle_reset+0x4e>
     642:	00052283          	lw	t0,0(a0)
     646:	0055a023          	sw	t0,0(a1)
     64a:	0511                	addi	a0,a0,4
     64c:	0591                	addi	a1,a1,4
     64e:	fec5eae3          	bltu	a1,a2,642 <handle_reset+0x3e>
     652:	00001517          	auipc	a0,0x1
     656:	c9250513          	addi	a0,a0,-878 # 12e4 <_data_lma>
     65a:	c0418593          	addi	a1,gp,-1020 # 2000040c <_data_vma>
     65e:	c0818613          	addi	a2,gp,-1016 # 20000410 <led_state.0>
     662:	00c58a63          	beq	a1,a2,676 <handle_reset+0x72>
     666:	00052283          	lw	t0,0(a0)
     66a:	0055a023          	sw	t0,0(a1)
     66e:	0511                	addi	a0,a0,4
     670:	0591                	addi	a1,a1,4
     672:	fec5eae3          	bltu	a1,a2,666 <handle_reset+0x62>
	asm volatile(
     676:	00000793          	li	a5,0
     67a:	42fd                	li	t0,31
     67c:	bc029073          	csrw	0xbc0,t0
     680:	6289                	lui	t0,0x2
     682:	88828293          	addi	t0,t0,-1912 # 1888 <ch32fun.c.beaf0083+0x212>
     686:	3002a073          	csrs	mstatus,t0
     68a:	00000297          	auipc	t0,0x0
     68e:	97628293          	addi	t0,t0,-1674 # 0 <InterruptVector>
     692:	0032e293          	ori	t0,t0,3
     696:	30529073          	csrw	mtvec,t0
	SysTick->CTLR = 1;
     69a:	e000f7b7          	lui	a5,0xe000f
     69e:	4705                	li	a4,1
     6a0:	c398                	sw	a4,0(a5)
	asm volatile(
     6a2:	6785                	lui	a5,0x1
     6a4:	c5478793          	addi	a5,a5,-940 # c54 <main>
     6a8:	34179073          	csrw	mepc,a5
     6ac:	30200073          	mret

000006b0 <ADC1_2_IRQHandler>:
	asm volatile( "1: j 1b" );
     6b0:	a001                	j	6b0 <ADC1_2_IRQHandler>

000006b2 <USB_IRQHandler>:
{
     6b2:	715d                	addi	sp,sp,-80
     6b4:	de22                	sw	s0,60(sp)
	uint16_t intfgst = *(uint16_t*)(&USBFS->INT_FG);
     6b6:	40008437          	lui	s0,0x40008
{
     6ba:	d03e                	sw	a5,32(sp)
	uint16_t intfgst = *(uint16_t*)(&USBFS->INT_FG);
     6bc:	00645783          	lhu	a5,6(s0) # 40008006 <_eusrstack+0x20005006>
{
     6c0:	d23a                	sw	a4,36(sp)
     6c2:	c686                	sw	ra,76(sp)
     6c4:	c496                	sw	t0,72(sp)
     6c6:	c29a                	sw	t1,68(sp)
     6c8:	c09e                	sw	t2,64(sp)
     6ca:	dc26                	sw	s1,56(sp)
     6cc:	da2a                	sw	a0,52(sp)
     6ce:	d82e                	sw	a1,48(sp)
     6d0:	d632                	sw	a2,44(sp)
     6d2:	d436                	sw	a3,40(sp)
     6d4:	ce42                	sw	a6,28(sp)
     6d6:	cc46                	sw	a7,24(sp)
     6d8:	ca4a                	sw	s2,20(sp)
     6da:	c84e                	sw	s3,16(sp)
     6dc:	c672                	sw	t3,12(sp)
     6de:	c476                	sw	t4,8(sp)
     6e0:	c27a                	sw	t5,4(sp)
     6e2:	c07e                	sw	t6,0(sp)
	if( intfgst & CRB_UIF_TRANSFER )
     6e4:	0027f713          	andi	a4,a5,2
     6e8:	3e070563          	beqz	a4,ad2 <USB_IRQHandler+0x420>
		int token = ( intfgst & CMASK_UIS_TOKEN) >> 12;
     6ec:	40c7d713          	srai	a4,a5,0xc
		int ep = ( intfgst & CMASK_UIS_ENDP ) >> 8;
     6f0:	4087d593          	srai	a1,a5,0x8
		int token = ( intfgst & CMASK_UIS_TOKEN) >> 12;
     6f4:	8b0d                	andi	a4,a4,3
		switch ( token )
     6f6:	4689                	li	a3,2
		int ep = ( intfgst & CMASK_UIS_ENDP ) >> 8;
     6f8:	89bd                	andi	a1,a1,15
		switch ( token )
     6fa:	04d70863          	beq	a4,a3,74a <USB_IRQHandler+0x98>
     6fe:	468d                	li	a3,3
     700:	1ad70563          	beq	a4,a3,8aa <USB_IRQHandler+0x1f8>
     704:	eb2d                	bnez	a4,776 <USB_IRQHandler+0xc4>
			len = USBFS->RX_LEN;
     706:	00844683          	lbu	a3,8(s0)
     70a:	0ff6f693          	andi	a3,a3,255
			switch( ep )
     70e:	16059663          	bnez	a1,87a <USB_IRQHandler+0x1c8>
					if( intfgst & CRB_UIS_TOG_OK )
     712:	6711                	lui	a4,0x4
     714:	8ff9                	and	a5,a5,a4
     716:	c3a5                	beqz	a5,776 <USB_IRQHandler+0xc4>
						if ( ctx->USBFS_SetupReqCode != HID_SET_REPORT )
     718:	05818713          	addi	a4,gp,88 # 20000860 <USBFSCTX>
     71c:	00074603          	lbu	a2,0(a4) # 4000 <drv8835controller.c.a2cec625+0x1c3e>
     720:	46a5                	li	a3,9
     722:	05818793          	addi	a5,gp,88 # 20000860 <USBFSCTX>
     726:	12d60f63          	beq	a2,a3,864 <USB_IRQHandler+0x1b2>
    ctx->USBFS_SetupReqLen = 0; // To ACK
     72a:	00079123          	sh	zero,2(a5)
							if ( ( ctx->USBFS_SetupReqType & USB_REQ_TYP_IN ) == 0 )
     72e:	00178703          	lb	a4,1(a5)
     732:	00074563          	bltz	a4,73c <USB_IRQHandler+0x8a>
								ctx->USBFS_errata_dont_send_endpoint_in_window = 1;
     736:	4705                	li	a4,1
     738:	0ee781a3          	sb	a4,227(a5)
							UEP_CTRL_LEN(0) = 0;
     73c:	400087b7          	lui	a5,0x40008
     740:	02078023          	sb	zero,32(a5) # 40008020 <_eusrstack+0x20005020>
							UEP_CTRL_TX(0) = USBFS_UEP_T_TOG | CHECK_USBFS_UEP_T_AUTO_TOG | USBFS_UEP_T_RES_ACK;
     744:	05000713          	li	a4,80
     748:	a8c1                	j	818 <USB_IRQHandler+0x166>
			if( ep )
     74a:	c1b5                	beqz	a1,7ae <USB_IRQHandler+0xfc>
				if( ep < FUSB_CONFIG_EPS )
     74c:	02b74563          	blt	a4,a1,776 <USB_IRQHandler+0xc4>
					UEP_CTRL_TX(ep) ^= USBFS_UEP_T_TOG;
     750:	00259793          	slli	a5,a1,0x2
     754:	02240413          	addi	s0,s0,34
     758:	943e                	add	s0,s0,a5
     75a:	00044783          	lbu	a5,0(s0)
     75e:	0407c793          	xori	a5,a5,64
						UEP_CTRL_TX(ep) = ( UEP_CTRL_TX(ep) & ~USBFS_UEP_T_RES_MASK ) | USBFS_UEP_T_RES_NAK;
     762:	9bf1                	andi	a5,a5,-4
     764:	0027e793          	ori	a5,a5,2
     768:	00f40023          	sb	a5,0(s0)
					ctx->USBFS_Endp_Busy[ ep ] = 0;
     76c:	05818793          	addi	a5,gp,88 # 20000860 <USBFSCTX>
     770:	95be                	add	a1,a1,a5
     772:	0e058023          	sb	zero,224(a1)
		USBFS->INT_FG = CRB_UIF_TRANSFER;
     776:	400087b7          	lui	a5,0x40008
     77a:	4709                	li	a4,2
     77c:	00e78323          	sb	a4,6(a5) # 40008006 <_eusrstack+0x20005006>
}
     780:	5472                	lw	s0,60(sp)
     782:	40b6                	lw	ra,76(sp)
     784:	42a6                	lw	t0,72(sp)
     786:	4316                	lw	t1,68(sp)
     788:	4386                	lw	t2,64(sp)
     78a:	54e2                	lw	s1,56(sp)
     78c:	5552                	lw	a0,52(sp)
     78e:	55c2                	lw	a1,48(sp)
     790:	5632                	lw	a2,44(sp)
     792:	56a2                	lw	a3,40(sp)
     794:	5712                	lw	a4,36(sp)
     796:	5782                	lw	a5,32(sp)
     798:	4872                	lw	a6,28(sp)
     79a:	48e2                	lw	a7,24(sp)
     79c:	4952                	lw	s2,20(sp)
     79e:	49c2                	lw	s3,16(sp)
     7a0:	4e32                	lw	t3,12(sp)
     7a2:	4ea2                	lw	t4,8(sp)
     7a4:	4f12                	lw	t5,4(sp)
     7a6:	4f82                	lw	t6,0(sp)
     7a8:	6161                	addi	sp,sp,80
     7aa:	30200073          	mret
				if( ctx->USBFS_SetupReqLen == 0 )
     7ae:	05818793          	addi	a5,gp,88 # 20000860 <USBFSCTX>
     7b2:	0027d783          	lhu	a5,2(a5)
     7b6:	05818493          	addi	s1,gp,88 # 20000860 <USBFSCTX>
     7ba:	e789                	bnez	a5,7c4 <USB_IRQHandler+0x112>
					UEP_CTRL_TX(0) = USBFS_UEP_R_RES_ACK | USBFS_UEP_R_TOG;
     7bc:	f8000793          	li	a5,-128
     7c0:	02f40123          	sb	a5,34(s0)
				if( ctx->pCtrlPayloadPtr )
     7c4:	00c4a983          	lw	s3,12(s1)
				ctx->USBFS_errata_dont_send_endpoint_in_window = 0;
     7c8:	0e0481a3          	sb	zero,227(s1)
				if( ctx->pCtrlPayloadPtr )
     7cc:	04098963          	beqz	s3,81e <USB_IRQHandler+0x16c>
					len = ctx->USBFS_SetupReqLen >= DEF_USBD_UEP0_SIZE ? DEF_USBD_UEP0_SIZE : ctx->USBFS_SetupReqLen;
     7d0:	0024d403          	lhu	s0,2(s1)
     7d4:	04000793          	li	a5,64
     7d8:	8922                	mv	s2,s0
     7da:	0087f463          	bgeu	a5,s0,7e2 <USB_IRQHandler+0x130>
     7de:	04000913          	li	s2,64
     7e2:	0942                	slli	s2,s2,0x10
     7e4:	01095913          	srli	s2,s2,0x10
					ctx->USBFS_SetupReqLen -= len;
     7e8:	41240433          	sub	s0,s0,s2
     7ec:	0442                	slli	s0,s0,0x10
					copyBuffer( ctrl0buff, ctx->pCtrlPayloadPtr, len ); // FYI -> Would need to do this if using DMA
     7ee:	864a                	mv	a2,s2
     7f0:	85ce                	mv	a1,s3
     7f2:	01048513          	addi	a0,s1,16
					ctx->USBFS_SetupReqLen -= len;
     7f6:	8041                	srli	s0,s0,0x10
					copyBuffer( ctrl0buff, ctx->pCtrlPayloadPtr, len ); // FYI -> Would need to do this if using DMA
     7f8:	2e35                	jal	b34 <memcpy>
					ctx->USBFS_SetupReqLen -= len;
     7fa:	00849123          	sh	s0,2(s1)
						ctx->pCtrlPayloadPtr = 0;
     7fe:	4781                	li	a5,0
					if( ctx->USBFS_SetupReqLen > 0 )
     800:	c019                	beqz	s0,806 <USB_IRQHandler+0x154>
						ctx->pCtrlPayloadPtr += len;
     802:	012987b3          	add	a5,s3,s2
     806:	c4dc                	sw	a5,12(s1)
					UEP_CTRL_LEN(0) = len;
     808:	400087b7          	lui	a5,0x40008
     80c:	03278023          	sb	s2,32(a5) # 40008020 <_eusrstack+0x20005020>
						UEP_CTRL_TX(0) ^= USBFS_UEP_T_TOG;
     810:	0227c703          	lbu	a4,34(a5)
     814:	04074713          	xori	a4,a4,64
			UEP_CTRL_TX(0) = USBFS_UEP_T_TOG | USBFS_UEP_T_RES_STALL | USBFS_UEP_R_TOG | USBFS_UEP_R_RES_STALL;
     818:	02e78123          	sb	a4,34(a5)
     81c:	bfa9                	j	776 <USB_IRQHandler+0xc4>
				else if ( ( ctx->USBFS_SetupReqType & USB_REQ_TYP_MASK ) != USB_REQ_TYP_STANDARD )
     81e:	0014c783          	lbu	a5,1(s1)
     822:	0607f793          	andi	a5,a5,96
     826:	cf91                	beqz	a5,842 <USB_IRQHandler+0x190>
					if( len && USBFSCTX.USBFS_SetupReqCode != HID_GET_REPORT )
     828:	0024d783          	lhu	a5,2(s1)
     82c:	d7a9                	beqz	a5,776 <USB_IRQHandler+0xc4>
     82e:	0004c703          	lbu	a4,0(s1)
     832:	4785                	li	a5,1
     834:	f4f701e3          	beq	a4,a5,776 <USB_IRQHandler+0xc4>
						UEP_CTRL_LEN(0) = len;
     838:	400087b7          	lui	a5,0x40008
     83c:	02078023          	sb	zero,32(a5) # 40008020 <_eusrstack+0x20005020>
     840:	bfc1                	j	810 <USB_IRQHandler+0x15e>
					switch( USBFSCTX.USBFS_SetupReqCode )
     842:	0004c703          	lbu	a4,0(s1)
     846:	4795                	li	a5,5
     848:	f2f717e3          	bne	a4,a5,776 <USB_IRQHandler+0xc4>
							USBFS->DEV_ADDR = ( USBFS->DEV_ADDR & USBFS_UDA_GP_BIT ) | ctx->USBFS_DevAddr;
     84c:	40008737          	lui	a4,0x40008
     850:	00374783          	lbu	a5,3(a4) # 40008003 <_eusrstack+0x20005003>
     854:	0094c683          	lbu	a3,9(s1)
     858:	0807f793          	andi	a5,a5,128
     85c:	8fd5                	or	a5,a5,a3
     85e:	00f701a3          	sb	a5,3(a4)
							break;
     862:	bf11                	j	776 <USB_IRQHandler+0xc4>
						if( ctx->USBFS_SetupReqLen == 0 )
     864:	00275703          	lhu	a4,2(a4)
     868:	ec0703e3          	beqz	a4,72e <USB_IRQHandler+0x7c>
							UEP_CTRL_TX(0) ^= USBFS_UEP_R_TOG;
     86c:	02244783          	lbu	a5,34(s0)
     870:	f807c793          	xori	a5,a5,-128
     874:	02f40123          	sb	a5,34(s0)
     878:	bdfd                	j	776 <USB_IRQHandler+0xc4>
					UEP_CTRL_TX(ep) ^= USBFS_UEP_R_TOG;
     87a:	00259793          	slli	a5,a1,0x2
     87e:	02240413          	addi	s0,s0,34
     882:	943e                	add	s0,s0,a5
     884:	00044783          	lbu	a5,0(s0)
					HandleDataOut( ctx, ep, ctx->ENDPOINTS[ep], len );
     888:	05818613          	addi	a2,gp,88 # 20000860 <USBFSCTX>
					UEP_CTRL_TX(ep) ^= USBFS_UEP_R_TOG;
     88c:	f807c793          	xori	a5,a5,-128
     890:	00f40023          	sb	a5,0(s0)
					HandleDataOut( ctx, ep, ctx->ENDPOINTS[ep], len );
     894:	00659793          	slli	a5,a1,0x6
     898:	07c1                	addi	a5,a5,16
     89a:	963e                	add	a2,a2,a5
     89c:	05818513          	addi	a0,gp,88 # 20000860 <USBFSCTX>
     8a0:	1ffff097          	auipc	ra,0x1ffff
     8a4:	760080e7          	jalr	1888(ra) # 20000000 <HandleDataOut>
					break;
     8a8:	b5f9                	j	776 <USB_IRQHandler+0xc4>
			if (!(USBFS->INT_ST & 0x80)) goto replycomplete;
     8aa:	00744783          	lbu	a5,7(s0)
     8ae:	07e2                	slli	a5,a5,0x18
     8b0:	87e1                	srai	a5,a5,0x18
     8b2:	ec07d2e3          	bgez	a5,776 <USB_IRQHandler+0xc4>
			UEP_CTRL_TX(0) = USBFS_UEP_T_RES_NAK | USBFS_UEP_T_TOG | USBFS_UEP_R_RES_NAK | USBFS_UEP_R_TOG | CHECK_USBFS_UEP_AUTO_TOG;
     8b6:	fda00793          	li	a5,-38
     8ba:	02f40123          	sb	a5,34(s0)
			int USBFS_SetupReqType = USBFSCTX.USBFS_SetupReqType  = pUSBFS_SetupReqPak->bmRequestType;
     8be:	05818793          	addi	a5,gp,88 # 20000860 <USBFSCTX>
			int USBFS_SetupReqCode = USBFSCTX.USBFS_SetupReqCode  = pUSBFS_SetupReqPak->bRequest;
     8c2:	0107d703          	lhu	a4,16(a5)
     8c6:	0147d603          	lhu	a2,20(a5)
     8ca:	0127d303          	lhu	t1,18(a5)
     8ce:	00871693          	slli	a3,a4,0x8
     8d2:	0742                	slli	a4,a4,0x10
     8d4:	8341                	srli	a4,a4,0x10
     8d6:	8321                	srli	a4,a4,0x8
     8d8:	8f55                	or	a4,a4,a3
			int USBFS_SetupReqType = USBFSCTX.USBFS_SetupReqType  = pUSBFS_SetupReqPak->bmRequestType;
     8da:	0107c883          	lbu	a7,16(a5)
			int USBFS_SetupReqLen = USBFSCTX.USBFS_SetupReqLen    = pUSBFS_SetupReqPak->wLength;
     8de:	0167d683          	lhu	a3,22(a5)
			int USBFS_SetupReqCode = USBFSCTX.USBFS_SetupReqCode  = pUSBFS_SetupReqPak->bRequest;
     8e2:	00e79023          	sh	a4,0(a5)
     8e6:	01061713          	slli	a4,a2,0x10
     8ea:	00676733          	or	a4,a4,t1
			int USBFS_SetupReqLen = USBFSCTX.USBFS_SetupReqLen    = pUSBFS_SetupReqPak->wLength;
     8ee:	00d79123          	sh	a3,2(a5)
			int USBFS_IndexValue = USBFSCTX.USBFS_IndexValue = ( pUSBFS_SetupReqPak->wIndex << 16 ) | pUSBFS_SetupReqPak->wValue;
     8f2:	c3d8                	sw	a4,4(a5)
     8f4:	0608f313          	andi	t1,a7,96
			int USBFS_SetupReqCode = USBFSCTX.USBFS_SetupReqCode  = pUSBFS_SetupReqPak->bRequest;
     8f8:	0117ce03          	lbu	t3,17(a5)
			int USBFS_SetupReqLen = USBFSCTX.USBFS_SetupReqLen    = pUSBFS_SetupReqPak->wLength;
     8fc:	8836                	mv	a6,a3
			if( ( USBFS_SetupReqType & USB_REQ_TYP_MASK ) != USB_REQ_TYP_STANDARD )
     8fe:	00030c63          	beqz	t1,916 <USB_IRQHandler+0x264>
				if( ( USBFS_SetupReqType & USB_REQ_TYP_MASK ) == USB_REQ_TYP_CLASS || ( USBFS_SetupReqType & USB_REQ_TYP_MASK ) == USB_REQ_TYP_VENDOR )
     902:	1301                	addi	t1,t1,-32
     904:	0c037313          	andi	t1,t1,192
     908:	04031763          	bnez	t1,956 <USB_IRQHandler+0x2a4>
			UEP_CTRL_TX(0) = USBFS_UEP_T_TOG | USBFS_UEP_T_RES_STALL | USBFS_UEP_R_TOG | USBFS_UEP_R_RES_STALL;
     90c:	400087b7          	lui	a5,0x40008
     910:	fcf00713          	li	a4,-49
     914:	b711                	j	818 <USB_IRQHandler+0x166>
				switch( USBFS_SetupReqCode )
     916:	432d                	li	t1,11
     918:	ffc36ae3          	bltu	t1,t3,90c <USB_IRQHandler+0x25a>
     91c:	6e85                	lui	t4,0x1
     91e:	002e1313          	slli	t1,t3,0x2
     922:	210e8e93          	addi	t4,t4,528 # 1210 <string0+0x4>
     926:	9376                	add	t1,t1,t4
     928:	00032303          	lw	t1,0(t1)
     92c:	8302                	jr	t1
						const struct descriptor_list_struct * e = descriptor_list;
     92e:	6605                	lui	a2,0x1
     930:	28860613          	addi	a2,a2,648 # 1288 <descriptor_list>
						for( ; e != e_end; e++ )
     934:	04860593          	addi	a1,a2,72
							if( e->lIndexValue == (uint32_t)USBFS_IndexValue )
     938:	00062303          	lw	t1,0(a2)
     93c:	04e31a63          	bne	t1,a4,990 <USB_IRQHandler+0x2de>
								ctx->pCtrlPayloadPtr = (uint8_t*)e->addr;
     940:	4258                	lw	a4,4(a2)
						ctx->USBFS_SetupReqLen = len;
     942:	05818513          	addi	a0,gp,88 # 20000860 <USBFSCTX>
								ctx->pCtrlPayloadPtr = (uint8_t*)e->addr;
     946:	c7d8                	sw	a4,12(a5)
								len = e->length;
     948:	00864703          	lbu	a4,8(a2)
						ctx->USBFS_SetupReqLen = len;
     94c:	00d75363          	bge	a4,a3,952 <USB_IRQHandler+0x2a0>
     950:	86ba                	mv	a3,a4
     952:	00d51123          	sh	a3,2(a0)
				if( USBFS_SetupReqType & DEF_UEP_IN )
     956:	01889713          	slli	a4,a7,0x18
     95a:	8761                	srai	a4,a4,0x18
     95c:	16075063          	bgez	a4,abc <USB_IRQHandler+0x40a>
					len = ( USBFS_SetupReqLen > DEF_USBD_UEP0_SIZE )? DEF_USBD_UEP0_SIZE : USBFS_SetupReqLen;
     960:	04000713          	li	a4,64
     964:	01075463          	bge	a4,a6,96c <USB_IRQHandler+0x2ba>
     968:	04000813          	li	a6,64
					UEP_CTRL_LEN(0) = len;
     96c:	40008737          	lui	a4,0x40008
     970:	03070023          	sb	a6,32(a4) # 40008020 <_eusrstack+0x20005020>
					if (USBFS_SetupReqCode != USB_GET_DESCRIPTOR)
     974:	4699                	li	a3,6
     976:	14de0063          	beq	t3,a3,ab6 <USB_IRQHandler+0x404>
						ctx->USBFS_SetupReqLen -= len;
     97a:	0027d683          	lhu	a3,2(a5) # 40008002 <_eusrstack+0x20005002>
     97e:	41068833          	sub	a6,a3,a6
     982:	01079123          	sh	a6,2(a5)
						UEP_CTRL_TX(0) = USBFS_UEP_T_RES_ACK | USBFS_UEP_T_TOG;
     986:	04000793          	li	a5,64
     98a:	02f70123          	sb	a5,34(a4)
     98e:	b3e5                	j	776 <USB_IRQHandler+0xc4>
						for( ; e != e_end; e++ )
     990:	0631                	addi	a2,a2,12
     992:	fab613e3          	bne	a2,a1,938 <USB_IRQHandler+0x286>
     996:	bf9d                	j	90c <USB_IRQHandler+0x25a>
						ctx->USBFS_DevAddr = (uint8_t)( ctx->USBFS_IndexValue & 0xFF );
     998:	00e784a3          	sb	a4,9(a5)
						break;
     99c:	bf6d                	j	956 <USB_IRQHandler+0x2a4>
						ctrl0buff[0] = ctx->USBFS_DevConfig;
     99e:	0087c703          	lbu	a4,8(a5)
     9a2:	00e78823          	sb	a4,16(a5)
						if( ctx->USBFS_SetupReqLen > 1 )
     9a6:	4705                	li	a4,1
     9a8:	fad777e3          	bgeu	a4,a3,956 <USB_IRQHandler+0x2a4>
							ctx->USBFS_SetupReqLen = 1;
     9ac:	00e79123          	sh	a4,2(a5)
     9b0:	b75d                	j	956 <USB_IRQHandler+0x2a4>
						ctx->USBFS_DevConfig = (uint8_t)( ctx->USBFS_IndexValue & 0xFF );
     9b2:	00e78423          	sb	a4,8(a5)
						ctx->USBFS_DevEnumStatus = 0x01;
     9b6:	4705                	li	a4,1
     9b8:	00e785a3          	sb	a4,11(a5)
							UEP_CTRL_TX(ep) &= ~USBFS_UEP_T_TOG;
     9bc:	40008737          	lui	a4,0x40008
     9c0:	02674683          	lbu	a3,38(a4) # 40008026 <_eusrstack+0x20005026>
     9c4:	03f6f693          	andi	a3,a3,63
     9c8:	02d70323          	sb	a3,38(a4)
     9cc:	02a74683          	lbu	a3,42(a4)
     9d0:	03f6f693          	andi	a3,a3,63
     9d4:	02d70523          	sb	a3,42(a4)
						for(int ep = 1; ep < FUSB_CONFIG_EPS; ep++) {
     9d8:	bfbd                	j	956 <USB_IRQHandler+0x2a4>
						if( ( USBFS_SetupReqType & USB_REQ_RECIP_MASK ) == USB_REQ_RECIP_ENDP )
     9da:	01f8f693          	andi	a3,a7,31
     9de:	4509                	li	a0,2
     9e0:	f2a696e3          	bne	a3,a0,90c <USB_IRQHandler+0x25a>
							if( (uint8_t)( USBFS_IndexValue & 0xFF ) == USB_REQ_FEAT_ENDP_HALT )
     9e4:	0ff77713          	andi	a4,a4,255
     9e8:	f315                	bnez	a4,90c <USB_IRQHandler+0x25a>
								if( ep < FUSB_CONFIG_EPS ) 
     9ea:	f2b6c1e3          	blt	a3,a1,90c <USB_IRQHandler+0x25a>
									if( USBFS_SetupReqIndex & DEF_UEP_IN  && ctx->endpoint_mode[ep] == -1 ) UEP_CTRL_TX(ep) = USBFS_UEP_T_RES_NAK;
     9ee:	08067613          	andi	a2,a2,128
     9f2:	de09                	beqz	a2,90c <USB_IRQHandler+0x25a>
     9f4:	03458713          	addi	a4,a1,52
     9f8:	070a                	slli	a4,a4,0x2
     9fa:	973e                	add	a4,a4,a5
     9fc:	4310                	lw	a2,0(a4)
     9fe:	577d                	li	a4,-1
     a00:	f0e616e3          	bne	a2,a4,90c <USB_IRQHandler+0x25a>
     a04:	00259713          	slli	a4,a1,0x2
     a08:	400085b7          	lui	a1,0x40008
     a0c:	95ba                	add	a1,a1,a4
     a0e:	02d58123          	sb	a3,34(a1) # 40008022 <_eusrstack+0x20005022>
     a12:	b791                	j	956 <USB_IRQHandler+0x2a4>
						else if( ( USBFS_SetupReqType & USB_REQ_RECIP_MASK ) == USB_REQ_RECIP_ENDP )
     a14:	01f8f693          	andi	a3,a7,31
     a18:	4509                	li	a0,2
     a1a:	eea699e3          	bne	a3,a0,90c <USB_IRQHandler+0x25a>
							if( (uint8_t)( USBFS_IndexValue & 0xFF ) == USB_REQ_FEAT_ENDP_HALT )
     a1e:	0ff77713          	andi	a4,a4,255
     a22:	ee0715e3          	bnez	a4,90c <USB_IRQHandler+0x25a>
								if( ep < FUSB_CONFIG_EPS )
     a26:	f2b6c8e3          	blt	a3,a1,956 <USB_IRQHandler+0x2a4>
									if( (USBFS_SetupReqIndex & DEF_UEP_IN) && ctx->endpoint_mode[ep] == -1 )UEP_CTRL_TX(ep) = ( UEP_CTRL_TX(ep) & ~USBFS_UEP_T_RES_MASK ) | USBFS_UEP_T_RES_STALL;
     a2a:	08067613          	andi	a2,a2,128
     a2e:	ec060fe3          	beqz	a2,90c <USB_IRQHandler+0x25a>
     a32:	03458713          	addi	a4,a1,52
     a36:	070a                	slli	a4,a4,0x2
     a38:	973e                	add	a4,a4,a5
     a3a:	4314                	lw	a3,0(a4)
     a3c:	577d                	li	a4,-1
     a3e:	ece697e3          	bne	a3,a4,90c <USB_IRQHandler+0x25a>
     a42:	40008737          	lui	a4,0x40008
     a46:	02270713          	addi	a4,a4,34 # 40008022 <_eusrstack+0x20005022>
     a4a:	058a                	slli	a1,a1,0x2
     a4c:	95ba                	add	a1,a1,a4
     a4e:	0005c703          	lbu	a4,0(a1)
     a52:	00376713          	ori	a4,a4,3
     a56:	00e58023          	sb	a4,0(a1)
     a5a:	bdf5                	j	956 <USB_IRQHandler+0x2a4>
						ctrl0buff[0] = 0x00;
     a5c:	00078823          	sb	zero,16(a5)
						if( USBFS_SetupReqLen > 1 ) USBFS_SetupReqLen = 1;
     a60:	eed05be3          	blez	a3,956 <USB_IRQHandler+0x2a4>
     a64:	4805                	li	a6,1
     a66:	bdc5                	j	956 <USB_IRQHandler+0x2a4>
						ctrl0buff[0] = 0x00;
     a68:	00079823          	sh	zero,16(a5)
						if( ( USBFS_SetupReqType & USB_REQ_RECIP_MASK ) == USB_REQ_RECIP_DEVICE )
     a6c:	01f8f713          	andi	a4,a7,31
     a70:	cf15                	beqz	a4,aac <USB_IRQHandler+0x3fa>
						else if( ( USBFS_SetupReqType & USB_REQ_RECIP_MASK ) == USB_REQ_RECIP_ENDP )
     a72:	4509                	li	a0,2
     a74:	e8a71ce3          	bne	a4,a0,90c <USB_IRQHandler+0x25a>
							if( ep < FUSB_CONFIG_EPS )
     a78:	e8b74ae3          	blt	a4,a1,90c <USB_IRQHandler+0x25a>
								if( USBFS_SetupReqIndex & DEF_UEP_IN && ctx->endpoint_mode[ep] == -1 ) ctrl0buff[0] = ( UEP_CTRL_TX(ep) & USBFS_UEP_T_RES_MASK ) == USBFS_UEP_T_RES_STALL;
     a7c:	08067613          	andi	a2,a2,128
     a80:	e80606e3          	beqz	a2,90c <USB_IRQHandler+0x25a>
     a84:	03458713          	addi	a4,a1,52
     a88:	070a                	slli	a4,a4,0x2
     a8a:	973e                	add	a4,a4,a5
     a8c:	4310                	lw	a2,0(a4)
     a8e:	577d                	li	a4,-1
     a90:	e6e61ee3          	bne	a2,a4,90c <USB_IRQHandler+0x25a>
     a94:	058a                	slli	a1,a1,0x2
     a96:	40008737          	lui	a4,0x40008
     a9a:	95ba                	add	a1,a1,a4
     a9c:	0225c603          	lbu	a2,34(a1)
     aa0:	8a0d                	andi	a2,a2,3
     aa2:	1675                	addi	a2,a2,-3
     aa4:	00163613          	seqz	a2,a2
     aa8:	00c78823          	sb	a2,16(a5)
						if( USBFS_SetupReqLen > 2 )
     aac:	4709                	li	a4,2
     aae:	ead754e3          	bge	a4,a3,956 <USB_IRQHandler+0x2a4>
     ab2:	4809                	li	a6,2
     ab4:	b54d                	j	956 <USB_IRQHandler+0x2a4>
						UEP_CTRL_TX(0) = USBFS_UEP_T_RES_ACK;
     ab6:	02070123          	sb	zero,34(a4) # 40008022 <_eusrstack+0x20005022>
     aba:	b975                	j	776 <USB_IRQHandler+0xc4>
						UEP_CTRL_LEN(0) = 0;
     abc:	400087b7          	lui	a5,0x40008
						UEP_CTRL_TX(0) = CHECK_USBFS_UEP_T_AUTO_TOG | USBFS_UEP_R_RES_ACK | USBFS_UEP_R_TOG;
     ac0:	f9000713          	li	a4,-112
					if( USBFS_SetupReqLen == 0 )
     ac4:	d4081ae3          	bnez	a6,818 <USB_IRQHandler+0x166>
						UEP_CTRL_LEN(0) = 0;
     ac8:	02078023          	sb	zero,32(a5) # 40008020 <_eusrstack+0x20005020>
						UEP_CTRL_TX(0) = USBFS_UEP_T_RES_ACK | USBFS_UEP_T_TOG;
     acc:	04000713          	li	a4,64
     ad0:	b3a1                	j	818 <USB_IRQHandler+0x166>
	else if( intfgst & CRB_UIF_BUS_RST )
     ad2:	0017f713          	andi	a4,a5,1
     ad6:	cb11                	beqz	a4,aea <USB_IRQHandler+0x438>
		ctx->USBFS_DevConfig = 0;
     ad8:	0601a023          	sw	zero,96(gp) # 20000868 <USBFSCTX+0x8>
		USBFS->DEV_ADDR = 0;
     adc:	000401a3          	sb	zero,3(s0)
		USBFS_InternalFinishSetup();
     ae0:	3ac9                	jal	4b2 <USBFS_InternalFinishSetup>
		USBFS->INT_FG = CRB_UIF_BUS_RST;
     ae2:	4785                	li	a5,1
			USBFS->INT_FG = intfgst & 0xff;
     ae4:	00f40323          	sb	a5,6(s0)
     ae8:	b961                	j	780 <USB_IRQHandler+0xce>
	else if( intfgst & CRB_UIF_SUSPEND )
     aea:	0047f713          	andi	a4,a5,4
			USBFS->INT_FG = intfgst & 0xff;
     aee:	0ff7f793          	andi	a5,a5,255
	else if( intfgst & CRB_UIF_SUSPEND )
     af2:	db6d                	beqz	a4,ae4 <USB_IRQHandler+0x432>
		USBFS->INT_FG = USBFS_UMS_SUSPEND;
     af4:	4791                	li	a5,4
     af6:	00f40323          	sb	a5,6(s0)
		Delay_Us(10);
     afa:	04600513          	li	a0,70
     afe:	3a79                	jal	49c <DelaySysTick>
		if( USBFS->MIS_ST & USBFS_UMS_SUSPEND )
     b00:	00544703          	lbu	a4,5(s0)
     b04:	05818793          	addi	a5,gp,88 # 20000860 <USBFSCTX>
     b08:	8b11                	andi	a4,a4,4
     b0a:	cb01                	beqz	a4,b1a <USB_IRQHandler+0x468>
			ctx->USBFS_DevSleepStatus |= 0x02;
     b0c:	00a7c703          	lbu	a4,10(a5)
     b10:	00276713          	ori	a4,a4,2
			ctx->USBFS_DevSleepStatus &= ~0x02;
     b14:	00e78523          	sb	a4,10(a5)
     b18:	b1a5                	j	780 <USB_IRQHandler+0xce>
     b1a:	00a7c703          	lbu	a4,10(a5)
     b1e:	9b75                	andi	a4,a4,-3
     b20:	bfd5                	j	b14 <USB_IRQHandler+0x462>

00000b22 <memset>:
WEAK void *memset(void *dest, int c, size_t n) { unsigned char *s = dest; for (; n; n--, s++) *s = c; return dest; }
     b22:	962a                	add	a2,a2,a0
     b24:	87aa                	mv	a5,a0
     b26:	00c79363          	bne	a5,a2,b2c <memset+0xa>
     b2a:	8082                	ret
     b2c:	00b78023          	sb	a1,0(a5)
     b30:	0785                	addi	a5,a5,1
     b32:	bfd5                	j	b26 <memset+0x4>

00000b34 <memcpy>:
{
     b34:	4781                	li	a5,0
	for (; n; n--) *d++ = *s++;
     b36:	00f61363          	bne	a2,a5,b3c <memcpy+0x8>
}
     b3a:	8082                	ret
	for (; n; n--) *d++ = *s++;
     b3c:	00f58733          	add	a4,a1,a5
     b40:	00074683          	lbu	a3,0(a4)
     b44:	00f50733          	add	a4,a0,a5
     b48:	0785                	addi	a5,a5,1
     b4a:	00d70023          	sb	a3,0(a4)
     b4e:	b7e5                	j	b36 <memcpy+0x2>

00000b50 <SystemInit>:
	}
	else
	{
		if((sc & RB_CLK_SYS_MOD) == 0x40) // PLL div
		{
			SYS_SAFE_ACCESS(
     b50:	400017b7          	lui	a5,0x40001
     b54:	05700593          	li	a1,87
     b58:	04b78023          	sb	a1,64(a5) # 40001040 <_eusrstack+0x1fffe040>
     b5c:	fa800613          	li	a2,-88
     b60:	04c78023          	sb	a2,64(a5)
     b64:	0001                	nop
     b66:	0001                	nop
     b68:	00a7c703          	lbu	a4,10(a5)
     b6c:	400026b7          	lui	a3,0x40002
     b70:	0ff77713          	andi	a4,a4,255
     b74:	01076713          	ori	a4,a4,16
     b78:	00e78523          	sb	a4,10(a5)
     b7c:	4705                	li	a4,1
     b7e:	80e683a3          	sb	a4,-2041(a3) # 40001807 <_eusrstack+0x1fffe807>
     b82:	8056c703          	lbu	a4,-2043(a3)
     b86:	0ff77713          	andi	a4,a4,255
     b8a:	01076713          	ori	a4,a4,16
     b8e:	80e682a3          	sb	a4,-2043(a3)
     b92:	04078023          	sb	zero,64(a5)
     b96:	0001                	nop
     b98:	0001                	nop
		{
			SYS_SAFE_ACCESS(
				R8_FLASH_CFG = (sc & 0x1F) ? 0x02 : 0x07;
			);
		}
		SYS_SAFE_ACCESS(
     b9a:	04b78023          	sb	a1,64(a5)
     b9e:	04c78023          	sb	a2,64(a5)
     ba2:	0001                	nop
     ba4:	0001                	nop
     ba6:	04a00713          	li	a4,74
     baa:	00e78423          	sb	a4,8(a5)
     bae:	04078023          	sb	zero,64(a5)
     bb2:	0001                	nop
     bb4:	0001                	nop
	SetupDebugPrintf();
#endif
#if defined(FUNCONF_SUPPORT_CONSTRUCTORS) && FUNCONF_SUPPORT_CONSTRUCTORS
	CallConstructors();
#endif
}
     bb6:	8082                	ret

00000bb8 <LLE_IRQHandler>:
__attribute__((interrupt)) void LLE_IRQHandler() {
     bb8:	715d                	addi	sp,sp,-80
     bba:	dc26                	sw	s1,56(sp)
    rx_flag = LL->STATUS & 1;
     bbc:	4000c4b7          	lui	s1,0x4000c
__attribute__((interrupt)) void LLE_IRQHandler() {
     bc0:	de22                	sw	s0,60(sp)
    rx_flag = LL->STATUS & 1;
     bc2:	20048413          	addi	s0,s1,512 # 4000c200 <_eusrstack+0x20009200>
__attribute__((interrupt)) void LLE_IRQHandler() {
     bc6:	d23a                	sw	a4,36(sp)
     bc8:	d03e                	sw	a5,32(sp)
     bca:	ca4a                	sw	s2,20(sp)
    rx_flag = LL->STATUS & 1;
     bcc:	00842903          	lw	s2,8(s0)
    LL->STATUS &= LL->INT_EN;
     bd0:	4458                	lw	a4,12(s0)
     bd2:	441c                	lw	a5,8(s0)
__attribute__((interrupt)) void LLE_IRQHandler() {
     bd4:	da2a                	sw	a0,52(sp)
     bd6:	c686                	sw	ra,76(sp)
     bd8:	c496                	sw	t0,72(sp)
     bda:	c29a                	sw	t1,68(sp)
     bdc:	c09e                	sw	t2,64(sp)
     bde:	d82e                	sw	a1,48(sp)
     be0:	d632                	sw	a2,44(sp)
     be2:	d436                	sw	a3,40(sp)
     be4:	ce42                	sw	a6,28(sp)
     be6:	cc46                	sw	a7,24(sp)
     be8:	c872                	sw	t3,16(sp)
     bea:	c676                	sw	t4,12(sp)
     bec:	c47a                	sw	t5,8(sp)
     bee:	c27e                	sw	t6,4(sp)
    LL->STATUS &= LL->INT_EN;
     bf0:	8ff9                	and	a5,a5,a4
     bf2:	c41c                	sw	a5,8(s0)
    BB->CTRL_TX = (BB->CTRL_TX & 0xfffffffc) | 1;
     bf4:	10048713          	addi	a4,s1,256
     bf8:	5b5c                	lw	a5,52(a4)
  DevSetMode(0);
     bfa:	4501                	li	a0,0
    rx_flag = LL->STATUS & 1;
     bfc:	00197913          	andi	s2,s2,1
    BB->CTRL_TX = (BB->CTRL_TX & 0xfffffffc) | 1;
     c00:	9bf1                	andi	a5,a5,-4
     c02:	0017e793          	ori	a5,a5,1
     c06:	db5c                	sw	a5,52(a4)
  DevSetMode(0);
     c08:	38fd                	jal	506 <DevSetMode>
  LL->CTRL_MOD &= CTRL_MOD_RFSTOP;
     c0a:	483c                	lw	a5,80(s0)
     c0c:	8ff7f793          	andi	a5,a5,-1793
     c10:	c83c                	sw	a5,80(s0)
  LL->LL0 |= 0x08;
     c12:	2004a783          	lw	a5,512(s1)
     c16:	0087e793          	ori	a5,a5,8
     c1a:	20f4a023          	sw	a5,512(s1)
  if (rx_flag) {
     c1e:	00090563          	beqz	s2,c28 <LLE_IRQHandler+0x70>
    rx_ready = 1;
     c22:	4705                	li	a4,1
     c24:	c0e1a623          	sw	a4,-1012(gp) # 20000414 <rx_ready>
}
     c28:	5472                	lw	s0,60(sp)
     c2a:	40b6                	lw	ra,76(sp)
     c2c:	42a6                	lw	t0,72(sp)
     c2e:	4316                	lw	t1,68(sp)
     c30:	4386                	lw	t2,64(sp)
     c32:	54e2                	lw	s1,56(sp)
     c34:	5552                	lw	a0,52(sp)
     c36:	55c2                	lw	a1,48(sp)
     c38:	5632                	lw	a2,44(sp)
     c3a:	56a2                	lw	a3,40(sp)
     c3c:	5712                	lw	a4,36(sp)
     c3e:	5782                	lw	a5,32(sp)
     c40:	4872                	lw	a6,28(sp)
     c42:	48e2                	lw	a7,24(sp)
     c44:	4952                	lw	s2,20(sp)
     c46:	4e42                	lw	t3,16(sp)
     c48:	4eb2                	lw	t4,12(sp)
     c4a:	4f22                	lw	t5,8(sp)
     c4c:	4f92                	lw	t6,4(sp)
     c4e:	6161                	addi	sp,sp,80
     c50:	30200073          	mret

00000c54 <main>:

int main() {
     c54:	7159                	addi	sp,sp,-112
     c56:	d686                	sw	ra,108(sp)
     c58:	d4a2                	sw	s0,104(sp)
     c5a:	d2a6                	sw	s1,100(sp)
     c5c:	d0ca                	sw	s2,96(sp)
     c5e:	cece                	sw	s3,92(sp)
     c60:	ccd2                	sw	s4,88(sp)
     c62:	cad6                	sw	s5,84(sp)
     c64:	c8da                	sw	s6,80(sp)
     c66:	c6de                	sw	s7,76(sp)
     c68:	c4e2                	sw	s8,72(sp)
  SystemInit();
     c6a:	35dd                	jal	b50 <SystemInit>
		*(&R32_PA_PD_DRV + OFFSET_FOR_GPIOB(pin)) |= (pin & ~PB);
		*(&R32_PA_PU + OFFSET_FOR_GPIOB(pin))     &= ~(pin & ~PB);
		*(&R32_PA_DIR + OFFSET_FOR_GPIOB(pin))    &= ~(pin & ~PB);
		break;
	case GPIO_ModeOut_PP_5mA:
		*(&R32_PA_PD_DRV + OFFSET_FOR_GPIOB(pin)) &= ~(pin & ~PB);
     c6c:	400017b7          	lui	a5,0x40001
     c70:	08078793          	addi	a5,a5,128 # 40001080 <_eusrstack+0x1fffe080>
     c74:	5bd8                	lw	a4,52(a5)
  LL->LL5 = 0x8c;
     c76:	4000c6b7          	lui	a3,0x4000c
  LL->LL7 = 0x76;
     c7a:	07600613          	li	a2,118
     c7e:	dff77713          	andi	a4,a4,-513
     c82:	dbd8                	sw	a4,52(a5)
		*(&R32_PA_DIR + OFFSET_FOR_GPIOB(pin))    |= (pin & ~PB);
     c84:	5398                	lw	a4,32(a5)
  RF->RF10 = 0x480;
     c86:	4000d437          	lui	s0,0x4000d
  BB->BB14 = 0x2020c;
     c8a:	000204b7          	lui	s1,0x20
     c8e:	20076713          	ori	a4,a4,512
     c92:	d398                	sw	a4,32(a5)
  funDigitalWrite(LED, FUN_HIGH); // Start OFF (assuming Active Low)
     c94:	20000713          	li	a4,512
     c98:	df98                	sw	a4,56(a5)
  LL->LL5 = 0x8c;
     c9a:	20068793          	addi	a5,a3,512 # 4000c200 <_eusrstack+0x20009200>
     c9e:	08c00713          	li	a4,140
     ca2:	cbd8                	sw	a4,20(a5)
  LL->LL7 = 0x76;
     ca4:	cfd0                	sw	a2,28(a5)
  LL->LL9 = 0x8c;
     ca6:	d3d8                	sw	a4,36(a5)
  LL->LL13 = 0x8c;
     ca8:	dbd8                	sw	a4,52(a5)
  LL->LL17 = 0x8c;
     caa:	c3f8                	sw	a4,68(a5)
  LL->LL19 = 0x76;
     cac:	c7f0                	sw	a2,76(a5)
  LL->LL11 = 0x6c;
     cae:	06c00713          	li	a4,108
     cb2:	d7d8                	sw	a4,44(a5)
  LL->LL15 = 0x6c;
     cb4:	dfd8                	sw	a4,60(a5)
  LL->LL1 = 0x78;
     cb6:	07800713          	li	a4,120
     cba:	c3d8                	sw	a4,4(a5)
  LL->INT_EN = 0x16000f;
     cbc:	00160737          	lui	a4,0x160
  LL->LL21 = 0;
     cc0:	0407aa23          	sw	zero,84(a5)
  LL->INT_EN = 0x16000f;
     cc4:	073d                	addi	a4,a4,15
     cc6:	c7d8                	sw	a4,12(a5)
  LL->RXBUF = (uint32_t)LLE_BUF;
     cc8:	c1818713          	addi	a4,gp,-1000 # 20000420 <LLE_BUF>
     ccc:	dff8                	sw	a4,124(a5)
  LL->STATUS = 0xffffffff;
     cce:	577d                	li	a4,-1
     cd0:	c798                	sw	a4,8(a5)
  RF->RF10 = 0x480;
     cd2:	48000793          	li	a5,1152
     cd6:	d41c                	sw	a5,40(s0)
  RF->RF12 &= 0xfff9ffff;
     cd8:	581c                	lw	a5,48(s0)
     cda:	fffa0737          	lui	a4,0xfffa0
     cde:	177d                	addi	a4,a4,-1
     ce0:	8ff9                	and	a5,a5,a4
     ce2:	d81c                	sw	a5,48(s0)
  RF->RF12 |= 0x70000000;
     ce4:	581c                	lw	a5,48(s0)
     ce6:	70000737          	lui	a4,0x70000
  RF->RF15 = (RF->RF15 & 0xf8ffffff) | 0x2000000;
     cea:	02000637          	lui	a2,0x2000
  RF->RF12 |= 0x70000000;
     cee:	8fd9                	or	a5,a5,a4
     cf0:	d81c                	sw	a5,48(s0)
  RF->RF15 = (RF->RF15 & 0xf8ffffff) | 0x2000000;
     cf2:	5c58                	lw	a4,60(s0)
     cf4:	f90007b7          	lui	a5,0xf9000
     cf8:	17fd                	addi	a5,a5,-1
     cfa:	8f7d                	and	a4,a4,a5
     cfc:	8f51                	or	a4,a4,a2
     cfe:	dc58                	sw	a4,60(s0)
  RF->RF15 = (RF->RF15 & 0x1fffffff) | 0x40000000;
     d00:	5c5c                	lw	a5,60(s0)
     d02:	40000737          	lui	a4,0x40000
  BB->CTRL_TX = (BB->CTRL_TX & 0x1ffffff) | (TxPower | 0x40) << 0x19;
     d06:	167d                	addi	a2,a2,-1
  RF->RF15 = (RF->RF15 & 0x1fffffff) | 0x40000000;
     d08:	078e                	slli	a5,a5,0x3
     d0a:	838d                	srli	a5,a5,0x3
     d0c:	8fd9                	or	a5,a5,a4
     d0e:	dc5c                	sw	a5,60(s0)
  RF->RF18 &= 0xfff8ffff;
     d10:	443c                	lw	a5,72(s0)
     d12:	fff90737          	lui	a4,0xfff90
     d16:	177d                	addi	a4,a4,-1
     d18:	8ff9                	and	a5,a5,a4
     d1a:	c43c                	sw	a5,72(s0)
  RF->RF20 = (RF->RF20 & 0xfffff8ff) | 0x300;
     d1c:	4838                	lw	a4,80(s0)
  NVIC->VTFIDR[3] = 0x14;
     d1e:	49d1                	li	s3,20
  DevSetMode(DEVSETMODE_TUNE);
     d20:	55800513          	li	a0,1368
  RF->RF20 = (RF->RF20 & 0xfffff8ff) | 0x300;
     d24:	8ff77713          	andi	a4,a4,-1793
     d28:	30076713          	ori	a4,a4,768
     d2c:	c838                	sw	a4,80(s0)
  RF->RF23 |= 0x70000;
     d2e:	4c7c                	lw	a5,92(s0)
     d30:	00070737          	lui	a4,0x70
     d34:	8fd9                	or	a5,a5,a4
     d36:	cc7c                	sw	a5,92(s0)
  RF->RF23 |= 0x700000;
     d38:	4c7c                	lw	a5,92(s0)
     d3a:	00700737          	lui	a4,0x700
     d3e:	8fd9                	or	a5,a5,a4
     d40:	cc7c                	sw	a5,92(s0)
  BB->BB14 = 0x2020c;
     d42:	10068713          	addi	a4,a3,256
     d46:	20c48793          	addi	a5,s1,524 # 2020c <drv8835controller.c.a2cec625+0x1de4a>
     d4a:	df1c                	sw	a5,56(a4)
  BB->BB15 = 0x50;
     d4c:	05000793          	li	a5,80
     d50:	df5c                	sw	a5,60(a4)
  BB->CTRL_TX = (BB->CTRL_TX & 0x1ffffff) | (TxPower | 0x40) << 0x19;
     d52:	5b5c                	lw	a5,52(a4)
     d54:	8ff1                	and	a5,a5,a2
     d56:	a4000637          	lui	a2,0xa4000
     d5a:	8fd1                	or	a5,a5,a2
     d5c:	db5c                	sw	a5,52(a4)
  BB->CTRL_CFG &= 0xfffffcff;
     d5e:	1006a703          	lw	a4,256(a3)
  NVIC->VTFIDR[3] = 0x14;
     d62:	e000e7b7          	lui	a5,0xe000e
  BB->CTRL_CFG &= 0xfffffcff;
     d66:	cff77713          	andi	a4,a4,-769
     d6a:	10e6a023          	sw	a4,256(a3)
  NVIC->VTFIDR[3] = 0x14;
     d6e:	053789a3          	sb	s3,83(a5) # e000e053 <_eusrstack+0xc000b053>
  DevSetMode(DEVSETMODE_TUNE);
     d72:	f94ff0ef          	jal	ra,506 <DevSetMode>
  RF->RF1 &= 0xfffffeff;
     d76:	4058                	lw	a4,4(s0)
  RF->RF10 &= 0xffffefff;
     d78:	76fd                	lui	a3,0xfffff
     d7a:	16fd                	addi	a3,a3,-1
  RF->RF1 &= 0xfffffeff;
     d7c:	eff77713          	andi	a4,a4,-257
     d80:	c058                	sw	a4,4(s0)
  RF->RF10 &= 0xffffefff;
     d82:	5418                	lw	a4,40(s0)
  uint32_t tune2401 = RFEND_TXCTune(37);
     d84:	02500513          	li	a0,37
  RF->RF10 &= 0xffffefff;
     d88:	8f75                	and	a4,a4,a3
     d8a:	d418                	sw	a4,40(s0)
  RF->RF11 &= 0xffffffef;
     d8c:	5458                	lw	a4,44(s0)
     d8e:	9b3d                	andi	a4,a4,-17
     d90:	d458                	sw	a4,44(s0)
  RF->RF2 |= 0x20000;
     d92:	441c                	lw	a5,8(s0)
     d94:	8fc5                	or	a5,a5,s1
     d96:	c41c                	sw	a5,8(s0)
  RF->RF1 |= 0x10;
     d98:	405c                	lw	a5,4(s0)
     d9a:	0107e793          	ori	a5,a5,16
     d9e:	c05c                	sw	a5,4(s0)
  uint32_t tune2401 = RFEND_TXCTune(37);
     da0:	fb8ff0ef          	jal	ra,558 <RFEND_TXCTune>
  uint8_t nGA2401 = (uint8_t)(tune2401 >> 24) & 0x7f;
     da4:	01855713          	srli	a4,a0,0x18
  uint32_t tune2401 = RFEND_TXCTune(37);
     da8:	842a                	mv	s0,a0
  uint32_t tune2480 = RFEND_TXCTune(39);
     daa:	02700513          	li	a0,39
  uint8_t nGA2401 = (uint8_t)(tune2401 >> 24) & 0x7f;
     dae:	07f77b13          	andi	s6,a4,127
  uint32_t tune2480 = RFEND_TXCTune(39);
     db2:	fa6ff0ef          	jal	ra,558 <RFEND_TXCTune>
  uint8_t nGA2480 = (uint8_t)(tune2480 >> 24) & 0x7f;
     db6:	01855913          	srli	s2,a0,0x18
  uint32_t tune2480 = RFEND_TXCTune(39);
     dba:	8a2a                	mv	s4,a0
  uint32_t tune2440 = RFEND_TXCTune(18);
     dbc:	4549                	li	a0,18
     dbe:	f9aff0ef          	jal	ra,558 <RFEND_TXCTune>
  uint8_t nCO2440 = (uint8_t)(tune2440 & 0x3f);
     dc2:	03f57a93          	andi	s5,a0,63
  uint8_t txctune_co[sizeof(RF->TXCTUNE_CO)] = {0};
     dc6:	02400613          	li	a2,36
     dca:	4581                	li	a1,0
  uint8_t nGA2480 = (uint8_t)(tune2480 >> 24) & 0x7f;
     dcc:	07f97b93          	andi	s7,s2,127
  uint32_t tune2440 = RFEND_TXCTune(18);
     dd0:	84aa                	mv	s1,a0
  uint8_t nGA2440 = (uint8_t)(tune2440 >> 24) & 0x7f;
     dd2:	01855913          	srli	s2,a0,0x18
  uint32_t dCO0140 = nCO2401 - nCO2440;
     dd6:	03f47413          	andi	s0,s0,63
  uint8_t txctune_co[sizeof(RF->TXCTUNE_CO)] = {0};
     dda:	0868                	addi	a0,sp,28
  uint32_t dCO0140 = nCO2401 - nCO2440;
     ddc:	41540433          	sub	s0,s0,s5
  uint8_t txctune_co[sizeof(RF->TXCTUNE_CO)] = {0};
     de0:	cc02                	sw	zero,24(sp)
     de2:	3381                	jal	b22 <memset>
     de4:	03340733          	mul	a4,s0,s3
  uint32_t dCO4080 = nCO2440 - nCO2480;
     de8:	03fa7a13          	andi	s4,s4,63
    txctune_co[f] = tune | (tune << 4);
     dec:	6605                	lui	a2,0x1
  uint8_t nGA2440 = (uint8_t)(tune2440 >> 24) & 0x7f;
     dee:	07f97913          	andi	s2,s2,127
  uint32_t dCO4080 = nCO2440 - nCO2480;
     df2:	414a8a33          	sub	s4,s5,s4
  for (int f = 0; f < int_points; f++) {
     df6:	4781                	li	a5,0
    tune = (dCO0140 * (int_points - f)) / int_points;
     df8:	45d1                	li	a1,20
    txctune_co[f] = tune | (tune << 4);
     dfa:	1641                	addi	a2,a2,-16
     dfc:	0834                	addi	a3,sp,24
     dfe:	00f68833          	add	a6,a3,a5
    tune = (dCO0140 * (int_points - f)) / int_points;
     e02:	02b75533          	divu	a0,a4,a1
  for (int f = 0; f < int_points; f++) {
     e06:	0785                	addi	a5,a5,1
     e08:	8f01                	sub	a4,a4,s0
    txctune_co[f] = tune | (tune << 4);
     e0a:	00451693          	slli	a3,a0,0x4
     e0e:	8ef1                	and	a3,a3,a2
     e10:	8ec9                	or	a3,a3,a0
     e12:	00d80023          	sb	a3,0(a6)
  for (int f = 0; f < int_points; f++) {
     e16:	feb793e3          	bne	a5,a1,dfc <main+0x1a8>
    txctune_co[f] = tune | (tune << 4);
     e1a:	6605                	lui	a2,0x1
  for (int f = 0; f < int_points; f++) {
     e1c:	4681                	li	a3,0
    tune = (dCO4080 * (f - int_points)) / int_points;
     e1e:	48d1                	li	a7,20
    txctune_co[f] = tune | (tune << 4);
     e20:	1641                	addi	a2,a2,-16
  for (int f = int_points; f < sizeof(RF->TXCTUNE_CO); f++) {
     e22:	02800513          	li	a0,40
    tune = (dCO4080 * (f - int_points)) / int_points;
     e26:	0316d5b3          	divu	a1,a3,a7
    txctune_co[f] = tune | (tune << 4);
     e2a:	0838                	addi	a4,sp,24
     e2c:	00f70833          	add	a6,a4,a5
  for (int f = int_points; f < sizeof(RF->TXCTUNE_CO); f++) {
     e30:	0785                	addi	a5,a5,1
     e32:	96d2                	add	a3,a3,s4
    txctune_co[f] = tune | (tune << 4);
     e34:	00459713          	slli	a4,a1,0x4
     e38:	8f71                	and	a4,a4,a2
     e3a:	8f4d                	or	a4,a4,a1
     e3c:	00e80023          	sb	a4,0(a6)
  for (int f = int_points; f < sizeof(RF->TXCTUNE_CO); f++) {
     e40:	fea793e3          	bne	a5,a0,e26 <main+0x1d2>
     e44:	0834                	addi	a3,sp,24
  for (int i = 0; i < sizeof(txctune_co) / 4; i++) {
     e46:	4701                	li	a4,0
    RF->TXCTUNE_CO[i] = ((uint32_t *)txctune_co)[i];
     e48:	4000d537          	lui	a0,0x4000d
  for (int i = 0; i < sizeof(txctune_co) / 4; i++) {
     e4c:	4629                	li	a2,10
    RF->TXCTUNE_CO[i] = ((uint32_t *)txctune_co)[i];
     e4e:	428c                	lw	a1,0(a3)
     e50:	02870793          	addi	a5,a4,40 # 700028 <drv8835controller.c.a2cec625+0x6fdc66>
     e54:	078a                	slli	a5,a5,0x2
     e56:	97aa                	add	a5,a5,a0
     e58:	c38c                	sw	a1,0(a5)
  for (int i = 0; i < sizeof(txctune_co) / 4; i++) {
     e5a:	0705                	addi	a4,a4,1
     e5c:	0691                	addi	a3,a3,4
     e5e:	fec718e3          	bne	a4,a2,e4e <main+0x1fa>
  uint32_t dGA0140 = nGA2401 - nGA2440;
     e62:	412b0733          	sub	a4,s6,s2
  uint32_t dGA4080 = nGA2440 - nGA2480;
     e66:	4695                	li	a3,5
     e68:	02d706b3          	mul	a3,a4,a3
    txctune_ga[f] = tune | (tune << 4);
     e6c:	6585                	lui	a1,0x1
  uint32_t dGA4080 = nGA2440 - nGA2480;
     e6e:	41790933          	sub	s2,s2,s7
  uint8_t txctune_ga[sizeof(RF->TXCTUNE_GA)] = {0};
     e72:	c602                	sw	zero,12(sp)
     e74:	c802                	sw	zero,16(sp)
     e76:	ca02                	sw	zero,20(sp)
  for (int f = 1; f < int_points; f++) {
     e78:	4785                	li	a5,1
    tune = (dGA0140 * (int_points - f)) / int_points;
     e7a:	4519                	li	a0,6
    txctune_ga[f] = tune | (tune << 4);
     e7c:	15c1                	addi	a1,a1,-16
     e7e:	0070                	addi	a2,sp,12
    tune = (dGA0140 * (int_points - f)) / int_points;
     e80:	02a6d833          	divu	a6,a3,a0
    txctune_ga[f] = tune | (tune << 4);
     e84:	00f608b3          	add	a7,a2,a5
  for (int f = 1; f < int_points; f++) {
     e88:	0785                	addi	a5,a5,1
     e8a:	8e99                	sub	a3,a3,a4
    txctune_ga[f] = tune | (tune << 4);
     e8c:	00481613          	slli	a2,a6,0x4
     e90:	8e6d                	and	a2,a2,a1
     e92:	01066633          	or	a2,a2,a6
     e96:	00c88023          	sb	a2,0(a7)
  for (int f = 1; f < int_points; f++) {
     e9a:	fea792e3          	bne	a5,a0,e7e <main+0x22a>
    txctune_ga[f] = tune | (tune << 4);
     e9e:	6605                	lui	a2,0x1
  for (int f = 1; f < int_points; f++) {
     ea0:	4701                	li	a4,0
    tune = (dGA4080 * (f - int_points)) / int_points;
     ea2:	4319                	li	t1,6
    txctune_ga[f] = tune | (tune << 4);
     ea4:	ff060893          	addi	a7,a2,-16 # ff0 <main+0x39c>
  for (int f = int_points; f < sizeof(RF->TXCTUNE_GA) - 1; f++) {
     ea8:	452d                	li	a0,11
    tune = (dGA4080 * (f - int_points)) / int_points;
     eaa:	026755b3          	divu	a1,a4,t1
    txctune_ga[f] = tune | (tune << 4);
     eae:	0074                	addi	a3,sp,12
     eb0:	00f68833          	add	a6,a3,a5
  for (int f = int_points; f < sizeof(RF->TXCTUNE_GA) - 1; f++) {
     eb4:	0785                	addi	a5,a5,1
     eb6:	974a                	add	a4,a4,s2
    txctune_ga[f] = tune | (tune << 4);
     eb8:	00459693          	slli	a3,a1,0x4
     ebc:	0116f6b3          	and	a3,a3,a7
     ec0:	8ecd                	or	a3,a3,a1
     ec2:	00d80023          	sb	a3,0(a6)
  for (int f = int_points; f < sizeof(RF->TXCTUNE_GA) - 1; f++) {
     ec6:	fea792e3          	bne	a5,a0,eaa <main+0x256>
    RF->TXCTUNE_GA[i] = ((uint32_t *)txctune_ga)[i];
     eca:	46b2                	lw	a3,12(sp)
     ecc:	4000d7b7          	lui	a5,0x4000d
     ed0:	08078713          	addi	a4,a5,128 # 4000d080 <_eusrstack+0x2000a080>
     ed4:	c734                	sw	a3,72(a4)
     ed6:	46c2                	lw	a3,16(sp)
  RF->TXTUNE_CTRL = (RF->TXTUNE_CTRL & 0x80ffffff) | (tune2440 & 0x7f000000);
     ed8:	7f000537          	lui	a0,0x7f000
     edc:	8ce9                	and	s1,s1,a0
    RF->TXCTUNE_GA[i] = ((uint32_t *)txctune_ga)[i];
     ede:	c774                	sw	a3,76(a4)
     ee0:	46d2                	lw	a3,20(sp)
     ee2:	cb34                	sw	a3,80(a4)
  RF->RF1 &= 0xffffffef;
     ee4:	43d8                	lw	a4,4(a5)
  RF->TXTUNE_CTRL = (RF->TXTUNE_CTRL & 0x80ffffff) | (tune2440 & 0x7f000000);
     ee6:	810006b7          	lui	a3,0x81000
     eea:	16fd                	addi	a3,a3,-1
  RF->RF1 &= 0xffffffef;
     eec:	9b3d                	andi	a4,a4,-17
     eee:	c3d8                	sw	a4,4(a5)
  RF->RF1 &= 0xfffffffe;
     ef0:	43d8                	lw	a4,4(a5)
     ef2:	9b79                	andi	a4,a4,-2
     ef4:	c3d8                	sw	a4,4(a5)
  RF->RF10 |= 0x1000;
     ef6:	5798                	lw	a4,40(a5)
     ef8:	8f51                	or	a4,a4,a2
     efa:	d798                	sw	a4,40(a5)
  RF->RF11 |= 0x10;
     efc:	57d8                	lw	a4,44(a5)
     efe:	01076713          	ori	a4,a4,16
     f02:	d7d8                	sw	a4,44(a5)
  RF->TXTUNE_CTRL = (RF->TXTUNE_CTRL & 0xffffffc0) | (tune2440 & 0x3f);
     f04:	5f98                	lw	a4,56(a5)
     f06:	fc077713          	andi	a4,a4,-64
     f0a:	01576733          	or	a4,a4,s5
     f0e:	df98                	sw	a4,56(a5)
  RF->TXTUNE_CTRL = (RF->TXTUNE_CTRL & 0x80ffffff) | (tune2440 & 0x7f000000);
     f10:	5f98                	lw	a4,56(a5)
     f12:	8f75                	and	a4,a4,a3
     f14:	8cd9                	or	s1,s1,a4
     f16:	df84                	sw	s1,56(a5)
  RF->RF1 |= 0x100;
     f18:	43d8                	lw	a4,4(a5)
  RF->RF20 &= 0xfffeffff;
     f1a:	76c1                	lui	a3,0xffff0
     f1c:	16fd                	addi	a3,a3,-1
  RF->RF1 |= 0x100;
     f1e:	10076713          	ori	a4,a4,256
     f22:	c3d8                	sw	a4,4(a5)
  RF->RF20 &= 0xfffeffff;
     f24:	4bb8                	lw	a4,80(a5)
     f26:	8f75                	and	a4,a4,a3
     f28:	cbb8                	sw	a4,80(a5)
  RF->RF2 |= 0x200000;
     f2a:	4798                	lw	a4,8(a5)
     f2c:	002006b7          	lui	a3,0x200
     f30:	8f55                	or	a4,a4,a3
     f32:	c798                	sw	a4,8(a5)
  RF->RF3 = (RF->RF3 & 0xffffffef) | 0x10;
     f34:	47d8                	lw	a4,12(a5)
  while (LL->TMR && ((RF->RXTUNE >> 8) & 1))
     f36:	4000c6b7          	lui	a3,0x4000c
  RF->RF3 = (RF->RF3 & 0xffffffef) | 0x10;
     f3a:	01076713          	ori	a4,a4,16
     f3e:	c7d8                	sw	a4,12(a5)
  RF->RF1 |= 0x1000;
     f40:	43d8                	lw	a4,4(a5)
     f42:	8f51                	or	a4,a4,a2
     f44:	c3d8                	sw	a4,4(a5)
  LL->TMR = 100;
     f46:	4000c7b7          	lui	a5,0x4000c
     f4a:	06400713          	li	a4,100
     f4e:	20078793          	addi	a5,a5,512 # 4000c200 <_eusrstack+0x20009200>
     f52:	d3f8                	sw	a4,100(a5)
  while (LL->TMR && ((RF->RXTUNE >> 8) & 1))
     f54:	4000d737          	lui	a4,0x4000d
     f58:	20068793          	addi	a5,a3,512 # 4000c200 <_eusrstack+0x20009200>
     f5c:	53fc                	lw	a5,100(a5)
     f5e:	c791                	beqz	a5,f6a <main+0x316>
     f60:	09c72783          	lw	a5,156(a4) # 4000d09c <_eusrstack+0x2000a09c>
     f64:	1007f793          	andi	a5,a5,256
     f68:	fbe5                	bnez	a5,f58 <main+0x304>
  tuneFilter = RF->RXTUNE & 0x1f;
     f6a:	4000d7b7          	lui	a5,0x4000d
     f6e:	08078713          	addi	a4,a5,128 # 4000d080 <_eusrstack+0x2000a080>
     f72:	4f54                	lw	a3,28(a4)
     f74:	c1018713          	addi	a4,gp,-1008 # 20000418 <tuneFilter>
     f78:	8afd                	andi	a3,a3,31
     f7a:	c314                	sw	a3,0(a4)
  RF->RF20 |= 0x10000;
     f7c:	4bb4                	lw	a3,80(a5)
     f7e:	6641                	lui	a2,0x10
     f80:	8ed1                	or	a3,a3,a2
     f82:	cbb4                	sw	a3,80(a5)
  RF->RF20 = (RF->RF20 & 0xffffffe0) | tuneFilter;
     f84:	4bb4                	lw	a3,80(a5)
     f86:	4310                	lw	a2,0(a4)
     f88:	9a81                	andi	a3,a3,-32
     f8a:	8ed1                	or	a3,a3,a2
     f8c:	cbb4                	sw	a3,80(a5)
  RF->RF2 &= 0xffdfffff;
     f8e:	4794                	lw	a3,8(a5)
     f90:	ffe00637          	lui	a2,0xffe00
     f94:	167d                	addi	a2,a2,-1
     f96:	8ef1                	and	a3,a3,a2
     f98:	c794                	sw	a3,8(a5)
  tuneFilter2M = (tuneFilter + 2 < 0x1f) ? (tuneFilter + 2) : 0x1f;
     f9a:	4314                	lw	a3,0(a4)
     f9c:	4679                	li	a2,30
     f9e:	47fd                	li	a5,31
     fa0:	0689                	addi	a3,a3,2
     fa2:	00d66463          	bltu	a2,a3,faa <main+0x356>
     fa6:	431c                	lw	a5,0(a4)
     fa8:	0789                	addi	a5,a5,2
     faa:	c0f1aa23          	sw	a5,-1004(gp) # 2000041c <tuneFilter2M>
  RF->RF22 &= 0xfffeffff;
     fae:	4000d7b7          	lui	a5,0x4000d
     fb2:	4fb8                	lw	a4,88(a5)
     fb4:	76c1                	lui	a3,0xffff0
     fb6:	16fd                	addi	a3,a3,-1
     fb8:	8f75                	and	a4,a4,a3
     fba:	cfb8                	sw	a4,88(a5)
  RF->RF2 |= 0x10000;
     fbc:	4798                	lw	a4,8(a5)
     fbe:	66c1                	lui	a3,0x10
  DevSetMode(0);
     fc0:	4501                	li	a0,0
  RF->RF2 |= 0x10000;
     fc2:	8f55                	or	a4,a4,a3
     fc4:	c798                	sw	a4,8(a5)
  RF->RF3 = (RF->RF3 & 0xfffffeff) | 0x100;
     fc6:	47d8                	lw	a4,12(a5)
  RF->RF1 = (RF->RF1 & 0xfffeffff) | 0x100000;
     fc8:	ffef06b7          	lui	a3,0xffef0
     fcc:	16fd                	addi	a3,a3,-1
  RF->RF3 = (RF->RF3 & 0xfffffeff) | 0x100;
     fce:	10076713          	ori	a4,a4,256
     fd2:	c7d8                	sw	a4,12(a5)
  RF->RF1 = (RF->RF1 & 0xfffeffff) | 0x100000;
     fd4:	43d8                	lw	a4,4(a5)
  NVIC->IPRIOR[0x15] |= 0x80;
     fd6:	e000e4b7          	lui	s1,0xe000e
	USBFS->BASE_CTRL = USBFS_UC_RESET_SIE | USBFS_UC_CLR_ALL;
     fda:	40008437          	lui	s0,0x40008
  RF->RF1 = (RF->RF1 & 0xfffeffff) | 0x100000;
     fde:	8f75                	and	a4,a4,a3
     fe0:	001006b7          	lui	a3,0x100
     fe4:	8f55                	or	a4,a4,a3
     fe6:	c3d8                	sw	a4,4(a5)
  DevSetMode(0);
     fe8:	d1eff0ef          	jal	ra,506 <DevSetMode>
  NVIC->IPRIOR[0x15] |= 0x80;
     fec:	4154c783          	lbu	a5,1045(s1) # e000e415 <_eusrstack+0xc000b415>
	R16_PIN_ALTERNATE |= RB_PIN_USB_EN | RB_UDP_PU_EN;
     ff0:	40001737          	lui	a4,0x40001
     ff4:	668d                	lui	a3,0x3
     ff6:	f807e793          	ori	a5,a5,-128
     ffa:	0ff7f793          	andi	a5,a5,255
     ffe:	40f48aa3          	sb	a5,1045(s1)
	NVIC->IENR[((uint32_t)(IRQn) >> 5)] = (1 << ((uint32_t)(IRQn) & 0x1F));
    1002:	002007b7          	lui	a5,0x200
    1006:	10f4a023          	sw	a5,256(s1)
    100a:	01875783          	lhu	a5,24(a4) # 40001018 <_eusrstack+0x1fffe018>
	Delay_Us(10);
    100e:	04600513          	li	a0,70
    funDigitalWrite(LED, FUN_LOW);
    1012:	40001937          	lui	s2,0x40001
	R16_PIN_ALTERNATE |= RB_PIN_USB_EN | RB_UDP_PU_EN;
    1016:	07c2                	slli	a5,a5,0x10
    1018:	83c1                	srli	a5,a5,0x10
    101a:	8fd5                	or	a5,a5,a3
    101c:	00f71c23          	sh	a5,24(a4)
	USBFS->BASE_CTRL = USBFS_UC_RESET_SIE | USBFS_UC_CLR_ALL;
    1020:	4799                	li	a5,6
    1022:	00f40023          	sb	a5,0(s0) # 40008000 <_eusrstack+0x20005000>
	USBFS->BASE_CTRL = 0x00;
    1026:	00040023          	sb	zero,0(s0)
	Delay_Us(10);
    102a:	c72ff0ef          	jal	ra,49c <DelaySysTick>
	USBFS->INT_EN    = USBFS_UIE_SUSPEND | USBFS_UIE_TRANSFER | USBFS_UIE_BUS_RST;
    102e:	479d                	li	a5,7
    1030:	00f40123          	sb	a5,2(s0)
	USBFS->DEV_ADDR  = 0x00;
    1034:	000401a3          	sb	zero,3(s0)
	USBFS->BASE_CTRL = USBFS_UC_INT_BUSY | USBFS_UC_DMA_EN | USBFS_UC_DEV_PU_EN;
    1038:	02900793          	li	a5,41
    103c:	00f40023          	sb	a5,0(s0)
	USBFS->INT_FG    = 0xff;
    1040:	57fd                	li	a5,-1
    1042:	00f40323          	sb	a5,6(s0)
	USBFS_InternalFinishSetup();
    1046:	c6cff0ef          	jal	ra,4b2 <USBFS_InternalFinishSetup>
	USBFS->UDEV_CTRL = USBFS_UD_PD_DIS | USBFS_UD_PORT_EN;
    104a:	f8100793          	li	a5,-127
    104e:	00f400a3          	sb	a5,1(s0)
    1052:	004007b7          	lui	a5,0x400
    Delay_Ms(delay);
    1056:	0005c437          	lui	s0,0x5c
    105a:	10f4a023          	sw	a5,256(s1)
    funDigitalWrite(LED, FUN_LOW);
    105e:	0ac90a13          	addi	s4,s2,172 # 400010ac <_eusrstack+0x1fffe0ac>
    1062:	4495                	li	s1,5
    1064:	20000993          	li	s3,512
    1068:	20000a93          	li	s5,512
    Delay_Ms(delay);
    106c:	8d840413          	addi	s0,s0,-1832 # 5b8d8 <drv8835controller.c.a2cec625+0x59516>
    1070:	8522                	mv	a0,s0
    funDigitalWrite(LED, FUN_LOW);
    1072:	015a2023          	sw	s5,0(s4)
    Delay_Ms(delay);
    1076:	c26ff0ef          	jal	ra,49c <DelaySysTick>
    Delay_Ms(delay);
    107a:	8522                	mv	a0,s0
    funDigitalWrite(LED, FUN_HIGH);
    107c:	0b392c23          	sw	s3,184(s2)
  for (int i = 0; i < n; i++) {
    1080:	14fd                	addi	s1,s1,-1
    Delay_Ms(delay);
    1082:	c1aff0ef          	jal	ra,49c <DelaySysTick>
  for (int i = 0; i < n; i++) {
    1086:	f4ed                	bnez	s1,1070 <main+0x41c>

#define ACCESS_ADDRESS 0x12345678

  while (1) {
    // Only process and send RF when USB data arrives
    if (gs_usb_data_buf[0]) {
    1088:	13c18413          	addi	s0,gp,316 # 20000944 <gs_usb_data_buf>
      static int led_state = 0;
      led_state = !led_state;
      funDigitalWrite(LED, led_state ? FUN_LOW : FUN_HIGH);

      // Send ACK back to PC
      while (USBFSCTX.USBFS_Endp_Busy[USB_EP_TX] & 1)
    108c:	05818493          	addi	s1,gp,88 # 20000860 <USBFSCTX>
      }
      gs_usb_data_buf[0] = 0;

      // Build RF packet
      uint8_t rf_packet[10];
      rf_packet[0] = 0x00; // Header/PDU type
    1090:	feca1a37          	lui	s4,0xfeca1
      rf_packet[8] = d2;   // Direction 2
      rf_packet[9] = e2;   // Enable 2

      // Send 5 copies for reliability
      for (int i = 0; i < 5; i++) {
        Frame_TX(ACCESS_ADDRESS, rf_packet, sizeof(rf_packet), 37, PHY_1M);
    1094:	12345ab7          	lui	s5,0x12345
#endif
	if ( len )
	{
		if( copy )
		{
			UEP_DMA( endp ) = (uintptr_t)USBFSCTX.ENDPOINTS[endp];
    1098:	05048b13          	addi	s6,s1,80
			copyBuffer( USBFSCTX.ENDPOINTS[endp], data, len );
    109c:	00140c13          	addi	s8,s0,1
      rf_packet[0] = 0x00; // Header/PDU type
    10a0:	800a0a13          	addi	s4,s4,-2048 # feca0800 <_eusrstack+0xdec9d800>
        Frame_TX(ACCESS_ADDRESS, rf_packet, sizeof(rf_packet), 37, PHY_1M);
    10a4:	678a8a93          	addi	s5,s5,1656 # 12345678 <drv8835controller.c.a2cec625+0x123432b6>
    if (gs_usb_data_buf[0]) {
    10a8:	00044783          	lbu	a5,0(s0)
    10ac:	0ff7f793          	andi	a5,a5,255
    10b0:	dfe5                	beqz	a5,10a8 <main+0x454>
      led_state = !led_state;
    10b2:	c0818713          	addi	a4,gp,-1016 # 20000410 <led_state.0>
    10b6:	431c                	lw	a5,0(a4)
    10b8:	0017b693          	seqz	a3,a5
    10bc:	c314                	sw	a3,0(a4)
      funDigitalWrite(LED, led_state ? FUN_LOW : FUN_HIGH);
    10be:	0e078e63          	beqz	a5,11ba <main+0x566>
    10c2:	400017b7          	lui	a5,0x40001
    10c6:	20000713          	li	a4,512
    10ca:	0ae7ac23          	sw	a4,184(a5) # 400010b8 <_eusrstack+0x1fffe0b8>
      while (USBFSCTX.USBFS_Endp_Busy[USB_EP_TX] & 1)
    10ce:	0e14c903          	lbu	s2,225(s1)
    10d2:	00197913          	andi	s2,s2,1
    10d6:	fe091ce3          	bnez	s2,10ce <main+0x47a>
                            gs_usb_data_buf[0], 1);
    10da:	00044983          	lbu	s3,0(s0)
	if( USBFSCTX.USBFS_errata_dont_send_endpoint_in_window || USBFSCTX.USBFS_Endp_Busy[ endp ] ) return -1;
    10de:	0e34c783          	lbu	a5,227(s1)
    10e2:	0ff9f993          	andi	s3,s3,255
    10e6:	0ff7f793          	andi	a5,a5,255
    10ea:	e7a9                	bnez	a5,1134 <main+0x4e0>
    10ec:	0e14c783          	lbu	a5,225(s1)
    10f0:	0ff7f793          	andi	a5,a5,255
    10f4:	e3a1                	bnez	a5,1134 <main+0x4e0>
	if( USBFSCTX.USBFS_SetupReqLen > 0 ) return USBFSCTX.USBFS_SetupReqLen;
    10f6:	0024d783          	lhu	a5,2(s1)
    10fa:	ef8d                	bnez	a5,1134 <main+0x4e0>
	if( (USBFS->INT_ST & 0x80) ) return -3;
    10fc:	40008737          	lui	a4,0x40008
    1100:	00774783          	lbu	a5,7(a4) # 40008007 <_eusrstack+0x20005007>
    1104:	07e2                	slli	a5,a5,0x18
    1106:	87e1                	srai	a5,a5,0x18
    1108:	0207c663          	bltz	a5,1134 <main+0x4e0>
	if ( len )
    110c:	00098863          	beqz	s3,111c <main+0x4c8>
			UEP_DMA( endp ) = (uintptr_t)USBFSCTX.ENDPOINTS[endp];
    1110:	01671a23          	sh	s6,20(a4)
			copyBuffer( USBFSCTX.ENDPOINTS[endp], data, len );
    1114:	864e                	mv	a2,s3
    1116:	85e2                	mv	a1,s8
    1118:	855a                	mv	a0,s6
    111a:	3c29                	jal	b34 <memcpy>
			copyBufferComplete();
		}
		else UEP_DMA( endp ) = (uintptr_t)data;
	}
	// NVIC_DisableIRQ( USB_IRQn );
	UEP_CTRL_LEN( endp ) = len;
    111c:	400087b7          	lui	a5,0x40008
	UEP_CTRL_TX( endp ) = ( UEP_CTRL_TX( endp ) & ~USBFS_UEP_T_RES_MASK ) | USBFS_UEP_T_RES_ACK;
    1120:	0267c703          	lbu	a4,38(a5) # 40008026 <_eusrstack+0x20005026>
	UEP_CTRL_LEN( endp ) = len;
    1124:	03378223          	sb	s3,36(a5)
	UEP_CTRL_TX( endp ) = ( UEP_CTRL_TX( endp ) & ~USBFS_UEP_T_RES_MASK ) | USBFS_UEP_T_RES_ACK;
    1128:	9b71                	andi	a4,a4,-4
    112a:	02e78323          	sb	a4,38(a5)
	USBFSCTX.USBFS_Endp_Busy[ endp ] = 1;
    112e:	4785                	li	a5,1
    1130:	0ef480a3          	sb	a5,225(s1)
      if (gs_usb_data_buf[0] >= 6) {
    1134:	00044783          	lbu	a5,0(s0)
    1138:	4715                	li	a4,5
    113a:	0ff7f793          	andi	a5,a5,255
    113e:	08f77563          	bgeu	a4,a5,11c8 <main+0x574>
        s1 = gs_usb_data_buf[1];
    1142:	00144903          	lbu	s2,1(s0)
        d1 = gs_usb_data_buf[2];
    1146:	00244583          	lbu	a1,2(s0)
        e1 = gs_usb_data_buf[3];
    114a:	00344603          	lbu	a2,3(s0)
        s2 = gs_usb_data_buf[4];
    114e:	00444683          	lbu	a3,4(s0)
        d2 = gs_usb_data_buf[5];
    1152:	00544703          	lbu	a4,5(s0)
        e2 = gs_usb_data_buf[6];
    1156:	00644783          	lbu	a5,6(s0)
        s1 = gs_usb_data_buf[1];
    115a:	0ff97913          	andi	s2,s2,255
        d1 = gs_usb_data_buf[2];
    115e:	0ff5f593          	andi	a1,a1,255
        e1 = gs_usb_data_buf[3];
    1162:	0ff67613          	andi	a2,a2,255
        s2 = gs_usb_data_buf[4];
    1166:	0ff6f693          	andi	a3,a3,255
        d2 = gs_usb_data_buf[5];
    116a:	0ff77713          	andi	a4,a4,255
        e2 = gs_usb_data_buf[6];
    116e:	0ff7f793          	andi	a5,a5,255
        Delay_Ms(5);
    1172:	69a5                	lui	s3,0x9
      rf_packet[4] = s1;   // Speed 1
    1174:	01210e23          	sb	s2,28(sp)
      gs_usb_data_buf[0] = 0;
    1178:	00040023          	sb	zero,0(s0)
      rf_packet[0] = 0x00; // Header/PDU type
    117c:	cc52                	sw	s4,24(sp)
      rf_packet[5] = d1;   // Direction 1
    117e:	00b10ea3          	sb	a1,29(sp)
      rf_packet[6] = e1;   // Enable 1
    1182:	00c10f23          	sb	a2,30(sp)
      rf_packet[7] = s2;   // Speed 2
    1186:	00d10fa3          	sb	a3,31(sp)
      rf_packet[8] = d2;   // Direction 2
    118a:	02e10023          	sb	a4,32(sp)
      rf_packet[9] = e2;   // Enable 2
    118e:	02f100a3          	sb	a5,33(sp)
    1192:	4915                	li	s2,5
        Delay_Ms(5);
    1194:	27c98993          	addi	s3,s3,636 # 927c <drv8835controller.c.a2cec625+0x6eba>
        Frame_TX(ACCESS_ADDRESS, rf_packet, sizeof(rf_packet), 37, PHY_1M);
    1198:	4705                	li	a4,1
    119a:	02500693          	li	a3,37
    119e:	4629                	li	a2,10
    11a0:	082c                	addi	a1,sp,24
    11a2:	8556                	mv	a0,s5
    11a4:	1ffff097          	auipc	ra,0x1ffff
    11a8:	fc4080e7          	jalr	-60(ra) # 20000168 <iSLERTX>
        Delay_Ms(5);
    11ac:	854e                	mv	a0,s3
      for (int i = 0; i < 5; i++) {
    11ae:	197d                	addi	s2,s2,-1
        Delay_Ms(5);
    11b0:	aecff0ef          	jal	ra,49c <DelaySysTick>
      for (int i = 0; i < 5; i++) {
    11b4:	fe0912e3          	bnez	s2,1198 <main+0x544>
    11b8:	bdc5                	j	10a8 <main+0x454>
      funDigitalWrite(LED, led_state ? FUN_LOW : FUN_HIGH);
    11ba:	400017b7          	lui	a5,0x40001
    11be:	20000713          	li	a4,512
    11c2:	0ae7a623          	sw	a4,172(a5) # 400010ac <_eusrstack+0x1fffe0ac>
    11c6:	b721                	j	10ce <main+0x47a>
      uint8_t s2 = 0, d2 = 0, e2 = 0;
    11c8:	4781                	li	a5,0
    11ca:	4701                	li	a4,0
    11cc:	4681                	li	a3,0
      uint8_t s1 = 0, d1 = 0, e1 = 0;
    11ce:	4601                	li	a2,0
    11d0:	4581                	li	a1,0
    11d2:	b745                	j	1172 <main+0x51e>

000011d4 <string3>:
    11d4:	0308 0035 0038 0035 0000 0000               ..5.8.5.....

000011e0 <string2>:
    11e0:	0314 0042 0075 006c 006b 0020 0064 0065     ..B.u.l.k. .d.e.
    11f0:	006d 006f 0000 0000                         m.o.....

000011f8 <string1>:
    11f8:	0310 0063 0068 0033 0032 0066 0075 006e     ..c.h.3.2.f.u.n.
    1208:	0000 0000                                   ....

0000120c <string0>:
    120c:	0304 0409 0a68 0000 09da 0000 090c 0000     ....h...........
    121c:	0a14 0000 090c 0000 0998 0000 092e 0000     ................
    122c:	090c 0000 099e 0000 09b2 0000 0a5c 0000     ............\...
    123c:	0956 0000                                   V...

00001240 <channel_map>:
    1240:	0201 0403 0605 0807 0a09 0d0c 0f0e 1110     ................
    1250:	1312 1514 1716 1918 1b1a 1d1c 1f1e 2120     .............. !
    1260:	2322 2524 0026 270b                         "#$%&..'

00001268 <config_descriptor>:
    1268:	0209 0020 0101 a000 0932 0004 0200 ffff     .. .....2.......
    1278:	03ff 0507 0281 0040 0701 0205 4002 0100     ......@......@..

00001288 <descriptor_list>:
    1288:	0100 0000 12d0 0000 0012 0000 0200 0000     ................
    1298:	1268 0000 0020 0000 0300 0000 120c 0000     h... ...........
    12a8:	0004 0000 0301 0409 11f8 0000 0010 0000     ................
    12b8:	0302 0409 11e0 0000 0014 0000 0303 0409     ................
    12c8:	11d4 0000 0008 0000                         ........

000012d0 <device_descriptor>:
    12d0:	0112 0200 0000 4000 1209 d035 0007 0201     .......@..5.....
    12e0:	0103 0000                                   ....
