
drv8835controller.elf:     file format elf32-littleriscv


Disassembly of section .init:

00000000 <InterruptVector>:
	void InterruptVector()         __attribute__((naked)) __attribute((section(".init"))) __attribute((weak,alias("InterruptVectorDefault"))) __attribute((naked));
	void InterruptVectorDefault()  __attribute__((naked)) __attribute((section(".init"))) __attribute((naked));
	void InterruptVectorDefault( void )
	{
		#if !defined(FUNCONF_TINYVECTOR) || !FUNCONF_TINYVECTOR
			asm volatile( DEFAULT_INTERRUPT_VECTOR_CONTENTS );
   0:	5fe0006f          	j	5fe <handle_reset>
   4:	0000                	unimp
   6:	0000                	unimp
   8:	06aa                	slli	a3,a3,0xa
   a:	0000                	unimp
   c:	06aa                	slli	a3,a3,0xa
   e:	0000                	unimp
  10:	bda9                	j	fffffe6a <_eusrstack+0xdfffce6a>
  12:	f3f9                	bnez	a5,ffffffd8 <_eusrstack+0xdfffcfd8>
  14:	06aa                	slli	a3,a3,0xa
	...
  1e:	0000                	unimp
  20:	06aa                	slli	a3,a3,0xa
  22:	0000                	unimp
  24:	06aa                	slli	a3,a3,0xa
	...
  2e:	0000                	unimp
  30:	06aa                	slli	a3,a3,0xa
  32:	0000                	unimp
  34:	0000                	unimp
  36:	0000                	unimp
  38:	06aa                	slli	a3,a3,0xa
  3a:	0000                	unimp
  3c:	0000                	unimp
  3e:	0000                	unimp
  40:	06aa                	slli	a3,a3,0xa
  42:	0000                	unimp
  44:	06aa                	slli	a3,a3,0xa
  46:	0000                	unimp
  48:	06aa                	slli	a3,a3,0xa
  4a:	0000                	unimp
  4c:	06aa                	slli	a3,a3,0xa
  4e:	0000                	unimp
  50:	06aa                	slli	a3,a3,0xa
  52:	0000                	unimp
  54:	0bb2                	slli	s7,s7,0xc
  56:	0000                	unimp
  58:	06ac                	addi	a1,sp,840
  5a:	0000                	unimp
  5c:	0000                	unimp
  5e:	0000                	unimp
  60:	06aa                	slli	a3,a3,0xa
  62:	0000                	unimp
  64:	06aa                	slli	a3,a3,0xa
  66:	0000                	unimp
  68:	06aa                	slli	a3,a3,0xa
  6a:	0000                	unimp
  6c:	06aa                	slli	a3,a3,0xa
  6e:	0000                	unimp
  70:	06aa                	slli	a3,a3,0xa
  72:	0000                	unimp
  74:	06aa                	slli	a3,a3,0xa
  76:	0000                	unimp
  78:	06aa                	slli	a3,a3,0xa
  7a:	0000                	unimp
  7c:	06aa                	slli	a3,a3,0xa
  7e:	0000                	unimp
  80:	06aa                	slli	a3,a3,0xa
  82:	0000                	unimp
  84:	06aa                	slli	a3,a3,0xa
  86:	0000                	unimp
  88:	06aa                	slli	a3,a3,0xa
  8a:	0000                	unimp
  8c:	06aa                	slli	a3,a3,0xa
	...

Disassembly of section .highcode:

20000000 <HandleDataOut>:
int HandleInRequest(struct _USBState *ctx, int endp, uint8_t *data, int len) {
  return 0;
}

__HIGH_CODE
void HandleDataOut(struct _USBState *ctx, int endp, uint8_t *data, int len) {
20000000:	1141                	addi	sp,sp,-16
20000002:	c422                	sw	s0,8(sp)
20000004:	c606                	sw	ra,12(sp)
20000006:	842a                	mv	s0,a0
  // this is actually the data rx handler
  if (endp == 0) {
20000008:	e599                	bnez	a1,20000016 <HandleDataOut+0x16>
    // this is in the hsusb.c default handler
    ctx->USBFS_SetupReqLen = 0; // To ACK
2000000a:	00051123          	sh	zero,2(a0)
      // Buffer full, drop packet
    }

    ctx->USBFS_Endp_Busy[USB_EP_RX] = 0;
  }
}
2000000e:	40b2                	lw	ra,12(sp)
20000010:	4422                	lw	s0,8(sp)
20000012:	0141                	addi	sp,sp,16
20000014:	8082                	ret
  } else if (endp == USB_EP_RX) {
20000016:	4789                	li	a5,2
20000018:	fef59be3          	bne	a1,a5,2000000e <HandleDataOut+0xe>
    if (len == 4 && ((uint32_t *)data)[0] == 0x010001a2) {
2000001c:	4791                	li	a5,4
2000001e:	0af69563          	bne	a3,a5,200000c8 <HandleDataOut+0xc8>
20000022:	4218                	lw	a4,0(a2)
20000024:	010007b7          	lui	a5,0x1000
20000028:	1a278793          	addi	a5,a5,418 # 10001a2 <drv8835controller.c.16e472a3+0xffde2a>
2000002c:	08f71e63          	bne	a4,a5,200000c8 <HandleDataOut+0xc8>
}

// Disable Interrupt (by interrupt number)
RV_STATIC_INLINE void NVIC_DisableIRQ(IRQn_Type IRQn)
{
	NVIC->IRER[((uint32_t)(IRQn) >> 5)] = (1 << ((uint32_t)(IRQn) & 0x1F));
20000030:	e000e7b7          	lui	a5,0xe000e
20000034:	00400737          	lui	a4,0x400
#ifdef CH5xx
void USBFSReset()
{
	NVIC_DisableIRQ( USB_IRQn );
#if defined (CH570_CH572)
	R16_PIN_ALTERNATE &= ~(RB_PIN_USB_EN | RB_UDP_PU_EN);
20000038:	400016b7          	lui	a3,0x40001
2000003c:	18e7a023          	sw	a4,384(a5) # e000e180 <_eusrstack+0xc000b180>
20000040:	0186d783          	lhu	a5,24(a3) # 40001018 <_eusrstack+0x1fffe018>
20000044:	7775                	lui	a4,0xffffd
20000046:	177d                	addi	a4,a4,-1
20000048:	07c2                	slli	a5,a5,0x10
2000004a:	83c1                	srli	a5,a5,0x10
2000004c:	8ff9                	and	a5,a5,a4
2000004e:	00f69c23          	sh	a5,24(a3)
#elif defined (CH584_CH585)
	R16_PIN_CONFIG &= ~(RB_PIN_USB_EN | RB_UDP_PU_EN);
#else
	R16_PIN_ANALOG_IE &= ~(RB_PIN_USB_IE | RB_PIN_USB_DP_PU);
#endif
	USBFS->BASE_CTRL = USBFS_UC_RESET_SIE | USBFS_UC_CLR_ALL;
20000052:	4719                	li	a4,6
20000054:	400087b7          	lui	a5,0x40008
20000058:	00e78023          	sb	a4,0(a5) # 40008000 <_eusrstack+0x20005000>
	USBFS->BASE_CTRL = 0x00;
2000005c:	00078023          	sb	zero,0(a5)
	Delay_Us(10);
20000060:	04600513          	li	a0,70
20000064:	43c000e7          	jalr	1084(zero) # 0 <InterruptVector>
      blink(10, 20); // Fast blink on reset command
20000068:	45d1                	li	a1,20
2000006a:	4529                	li	a0,10
2000006c:	5a4000e7          	jalr	1444(zero) # 0 <InterruptVector>

}

RV_STATIC_INLINE void jump_isprom()
{
	memcpy((void*)ISPROM_IN_RAM_ADDRESS, (void*)(ISPROM_ADDRESS + ISPROM_START_OFFSET), ISPROM_SIZE); // copy bootloader to ram
20000070:	0003c5b7          	lui	a1,0x3c
20000074:	6609                	lui	a2,0x2
20000076:	0c058593          	addi	a1,a1,192 # 3c0c0 <drv8835controller.c.16e472a3+0x39d48>
2000007a:	20000537          	lui	a0,0x20000
2000007e:	e0001097          	auipc	ra,0xe0001
20000082:	ab0080e7          	jalr	-1360(ra) # b2e <memcpy>
#ifdef CH570_CH572	
	*(int32_t*)(ISPROM_BOOTBUTTON_CHECK_ADDRESS + 0xc) = 0x00014505; // nop \n li a0,1, patch PA1 detection
20000086:	67d1                	lui	a5,0x14
20000088:	20000737          	lui	a4,0x20000
2000008c:	50578793          	addi	a5,a5,1285 # 14505 <drv8835controller.c.16e472a3+0x1218d>
#elif (defined(CH584_CH585) || defined(CH591_CH592))
	*(int16_t*)(ISPROM_BOOTBUTTON_CHECK_ADDRESS + 0xa) = 0x4505; // li a0,1, patch PB11 (option byte is not read correctly) detection
#endif
	
#if (defined(CH570_CH572) || defined(CH584_CH585) || defined(CH591_CH592))
	memset((void*)ISPROM_BSS_ADDRESS, 0, ISPROM_BSS_SIZE); // clear .bss
20000090:	20002537          	lui	a0,0x20002
	*(int32_t*)(ISPROM_BOOTBUTTON_CHECK_ADDRESS + 0xc) = 0x00014505; // nop \n li a0,1, patch PA1 detection
20000094:	10f72623          	sw	a5,268(a4) # 2000010c <iSLERCRCOK>
	memset((void*)ISPROM_BSS_ADDRESS, 0, ISPROM_BSS_SIZE); // clear .bss
20000098:	47400613          	li	a2,1140
2000009c:	4581                	li	a1,0
2000009e:	ba050513          	addi	a0,a0,-1120 # 20001ba0 <_ebss+0x1280>
200000a2:	e0001097          	auipc	ra,0xe0001
200000a6:	a7a080e7          	jalr	-1414(ra) # b1c <memset>

	asm( "la gp, " ISPROM_IN_RAM_GLOBALPOINTER "\n"
200000aa:	200021b7          	lui	gp,0x20002
200000ae:	39818193          	addi	gp,gp,920 # 20002398 <_ebss+0x1a78>
200000b2:	200012b7          	lui	t0,0x20001
200000b6:	19628293          	addi	t0,t0,406 # 20001196 <_ebss+0x876>
200000ba:	34129073          	csrw	mepc,t0
200000be:	30200073          	mret
    ctx->USBFS_Endp_Busy[USB_EP_RX] = 0;
200000c2:	0e040123          	sb	zero,226(s0)
200000c6:	b7a1                	j	2000000e <HandleDataOut+0xe>
    } else if (gs_usb_data_buf[0] == 0) {
200000c8:	13818793          	addi	a5,gp,312 # 200008e0 <gs_usb_data_buf>
200000cc:	0007c783          	lbu	a5,0(a5)
200000d0:	13818713          	addi	a4,gp,312 # 200008e0 <gs_usb_data_buf>
200000d4:	0ff7f793          	andi	a5,a5,255
200000d8:	f7ed                	bnez	a5,200000c2 <HandleDataOut+0xc2>
      gs_usb_data_buf[0] = len;
200000da:	0ff6f793          	andi	a5,a3,255
200000de:	00f70023          	sb	a5,0(a4)
      for (int i = 0; i < len; i++) {
200000e2:	4781                	li	a5,0
200000e4:	fcd7dfe3          	bge	a5,a3,200000c2 <HandleDataOut+0xc2>
        gs_usb_data_buf[i + 1] = data[i];
200000e8:	0785                	addi	a5,a5,1
200000ea:	00f605b3          	add	a1,a2,a5
200000ee:	fff5c503          	lbu	a0,-1(a1)
200000f2:	00f705b3          	add	a1,a4,a5
200000f6:	00a58023          	sb	a0,0(a1)
      for (int i = 0; i < len; i++) {
200000fa:	b7ed                	j	200000e4 <HandleDataOut+0xe4>

200000fc <iSLERRSSI>:
__HIGH_CODE
int iSLERRSSI() {
#ifdef CH570_CH572
	uint8_t *tx_buf = (uint8_t*)LLE_BUF;
	int len = tx_buf[1];
	return (int8_t)tx_buf[len +4];
200000fc:	c1418793          	addi	a5,gp,-1004 # 200003bc <LLE_BUF>
20000100:	0017c703          	lbu	a4,1(a5)
20000104:	97ba                	add	a5,a5,a4
#else
	return (int8_t)(BB->RSSI >> 0xf);
#endif
}
20000106:	00478503          	lb	a0,4(a5)
2000010a:	8082                	ret

2000010c <iSLERCRCOK>:
__HIGH_CODE
int iSLERCRCOK() {
#ifdef CH570_CH572
	uint8_t *tx_buf = (uint8_t*)LLE_BUF;
	int len = tx_buf[1];
	return (int8_t)!(tx_buf[len + 5] & 0x10);
2000010c:	c1418793          	addi	a5,gp,-1004 # 200003bc <LLE_BUF>
20000110:	0017c703          	lbu	a4,1(a5)
20000114:	97ba                	add	a5,a5,a4
20000116:	0057c503          	lbu	a0,5(a5)
2000011a:	8111                	srli	a0,a0,0x4
2000011c:	00154513          	xori	a0,a0,1
#else
	// Unimplemented!
	return -1;
#endif
}
20000120:	8905                	andi	a0,a0,1
20000122:	8082                	ret

20000124 <iSLERTX>:

__HIGH_CODE
void iSLERTX(uint32_t access_address, uint8_t adv[], size_t len, uint8_t channel, uint8_t phy_mode) {
20000124:	1101                	addi	sp,sp,-32
20000126:	c64e                	sw	s3,12(sp)
	BB->CTRL_TX = (BB->CTRL_TX & 0xfffffffc) | 1;
20000128:	4000c9b7          	lui	s3,0x4000c
void iSLERTX(uint32_t access_address, uint8_t adv[], size_t len, uint8_t channel, uint8_t phy_mode) {
2000012c:	cc22                	sw	s0,24(sp)
	BB->CTRL_TX = (BB->CTRL_TX & 0xfffffffc) | 1;
2000012e:	10098413          	addi	s0,s3,256 # 4000c100 <_eusrstack+0x20009100>
20000132:	585c                	lw	a5,52(s0)
void iSLERTX(uint32_t access_address, uint8_t adv[], size_t len, uint8_t channel, uint8_t phy_mode) {
20000134:	ce06                	sw	ra,28(sp)
20000136:	ca26                	sw	s1,20(sp)
	BB->CTRL_TX = (BB->CTRL_TX & 0xfffffffc) | 1;
20000138:	9bf1                	andi	a5,a5,-4
2000013a:	0017e793          	ori	a5,a5,1
void iSLERTX(uint32_t access_address, uint8_t adv[], size_t len, uint8_t channel, uint8_t phy_mode) {
2000013e:	c84a                	sw	s2,16(sp)
20000140:	c452                	sw	s4,8(sp)
20000142:	c256                	sw	s5,4(sp)
20000144:	8a2a                	mv	s4,a0
	BB->CTRL_TX = (BB->CTRL_TX & 0xfffffffc) | 1;
20000146:	d85c                	sw	a5,52(s0)

	DevSetChannel(channel);
20000148:	8536                	mv	a0,a3
void iSLERTX(uint32_t access_address, uint8_t adv[], size_t len, uint8_t channel, uint8_t phy_mode) {
2000014a:	8aae                	mv	s5,a1
2000014c:	84b2                	mv	s1,a2
2000014e:	893a                	mv	s2,a4
	DevSetChannel(channel);
20000150:	582000e7          	jalr	1410(zero) # 0 <InterruptVector>

	// Uncomment to disable whitening to debug RF.
	//BB->CTRL_CFG |= (1<<6);
	DevSetMode(DEVSETMODE_TX);
20000154:	25800513          	li	a0,600
20000158:	4a6000e7          	jalr	1190(zero) # 0 <InterruptVector>

	BB->ACCESSADDRESS1 = access_address; // access address
	BB->CRCINIT1 = 0x555555; // crc init
2000015c:	005557b7          	lui	a5,0x555
	BB->ACCESSADDRESS1 = access_address; // access address
20000160:	01442623          	sw	s4,12(s0)
	BB->CRCINIT1 = 0x555555; // crc init
20000164:	55578793          	addi	a5,a5,1365 # 555555 <drv8835controller.c.16e472a3+0x5531dd>
20000168:	c05c                	sw	a5,4(s0)
#ifdef CH570_CH572
	BB->ACCESSADDRESS2 = access_address;
2000016a:	07442023          	sw	s4,96(s0)
	BB->CRCINIT2 = 0x555555;
2000016e:	cc3c                	sw	a5,88(s0)
	BB->CRCPOLY1 = (BB->CRCPOLY1 & 0xff000000) | 0x80032d; // crc poly
20000170:	4414                	lw	a3,8(s0)
20000172:	ff000637          	lui	a2,0xff000
20000176:	00800737          	lui	a4,0x800
2000017a:	8ef1                	and	a3,a3,a2
2000017c:	32d70713          	addi	a4,a4,813 # 80032d <drv8835controller.c.16e472a3+0x7fdfb5>
20000180:	8ed9                	or	a3,a3,a4
20000182:	c414                	sw	a3,8(s0)
	BB->CRCPOLY2 = (BB->CRCPOLY2 & 0xff000000) | 0x80032d;
20000184:	4c7c                	lw	a5,92(s0)
#else
	LL->TXBUF = (uint32_t)adv;
#endif

	// Wait for tuning bit to clear.
	for( int timeout = 3000; !(RF->RF26 & 0x1000000) && timeout >= 0; timeout-- );
20000186:	4000d6b7          	lui	a3,0x4000d
	BB->CRCPOLY2 = (BB->CRCPOLY2 & 0xff000000) | 0x80032d;
2000018a:	8ff1                	and	a5,a5,a2
2000018c:	8fd9                	or	a5,a5,a4
2000018e:	cc7c                	sw	a5,92(s0)
	LL->TXBUF = (uint32_t)adv;
20000190:	6785                	lui	a5,0x1
20000192:	2759ac23          	sw	s5,632(s3)
20000196:	bba78793          	addi	a5,a5,-1094 # bba <LLE_IRQHandler+0x8>
	for( int timeout = 3000; !(RF->RF26 & 0x1000000) && timeout >= 0; timeout-- );
2000019a:	01000637          	lui	a2,0x1000
2000019e:	56b8                	lw	a4,104(a3)
200001a0:	8f71                	and	a4,a4,a2
200001a2:	e319                	bnez	a4,200001a8 <iSLERTX+0x84>
200001a4:	17fd                	addi	a5,a5,-1
200001a6:	ffe5                	bnez	a5,2000019e <iSLERTX+0x7a>
		BB->CTRL_CFG = (BB->CTRL_CFG & 0xffff3fff) | ((phy_mode == PHY_S2) ? 0x4000 : 0);
	}
#elif defined(CH571_CH573)
	BB->CTRL_CFG = CTRL_CFG_PHY_1M; // no 2M PHY on ch571/3
#else
	BB->CTRL_CFG = (phy_mode == PHY_2M) ? CTRL_CFG_PHY_2M:
200001a8:	4789                	li	a5,2
200001aa:	0af91163          	bne	s2,a5,2000024c <iSLERTX+0x128>
200001ae:	4000c7b7          	lui	a5,0x4000c
200001b2:	1007a783          	lw	a5,256(a5) # 4000c100 <_eusrstack+0x20009100>
200001b6:	cff7f793          	andi	a5,a5,-769
200001ba:	4000c737          	lui	a4,0x4000c
200001be:	10070693          	addi	a3,a4,256 # 4000c100 <_eusrstack+0x20009100>
200001c2:	10f72023          	sw	a5,256(a4)
										  CTRL_CFG_PHY_1M; // default 1M for now
#endif

#if defined(CH570_CH572)
	BB->BB9 = (BB->BB9 & 0xf9ffffff) | ((phy_mode == PHY_2M) ? 0 : 0x2000000);
200001c6:	52dc                	lw	a5,36(a3)
200001c8:	fa000737          	lui	a4,0xfa000
200001cc:	177d                	addi	a4,a4,-1
200001ce:	4609                	li	a2,2
200001d0:	8ff9                	and	a5,a5,a4
200001d2:	4701                	li	a4,0
200001d4:	00c90463          	beq	s2,a2,200001dc <iSLERTX+0xb8>
200001d8:	02000737          	lui	a4,0x2000
200001dc:	8fd9                	or	a5,a5,a4
200001de:	4000c737          	lui	a4,0x4000c
200001e2:	d2dc                	sw	a5,36(a3)
#if defined(CH571_CH573)
	BB->BB11 = (BB->BB11 & 0xfffffffc); // |2 for RX
#endif

	// This clears bit 17 (If set, seems to have no impact.)
	LL->LL4 &= 0xfffdffff;
200001e4:	20070793          	addi	a5,a4,512 # 4000c200 <_eusrstack+0x20009200>
200001e8:	4b90                	lw	a2,16(a5)
200001ea:	7581                	lui	a1,0xfffe0
200001ec:	15fd                	addi	a1,a1,-1
200001ee:	8e6d                	and	a2,a2,a1
200001f0:	cb90                	sw	a2,16(a5)

#if !defined(CH571_CH573)
	LL->STATUS = LL_STATUS_TX;
200001f2:	00020637          	lui	a2,0x20
200001f6:	c790                	sw	a2,8(a5)
#endif
	LL->TMR = (uint32_t)(len *512); // needs optimisation, per phy mode
200001f8:	04a6                	slli	s1,s1,0x9
200001fa:	d3e4                	sw	s1,100(a5)

	BB->CTRL_CFG |= CTRL_CFG_START_TX;
200001fc:	10072783          	lw	a5,256(a4)
20000200:	01000637          	lui	a2,0x1000
20000204:	8fd1                	or	a5,a5,a2
20000206:	10f72023          	sw	a5,256(a4)
	BB->CTRL_TX &= 0xfffffffc;
2000020a:	5adc                	lw	a5,52(a3)
2000020c:	9bf1                	andi	a5,a5,-4
2000020e:	dadc                	sw	a5,52(a3)

	LL->LL0 = 2; // Not sure what this does, but on RX it's 1
20000210:	4789                	li	a5,2
20000212:	20f72023          	sw	a5,512(a4)

	while(LL->TMR); // wait for tx buffer to empty
20000216:	20070413          	addi	s0,a4,512
2000021a:	507c                	lw	a5,100(s0)
2000021c:	ffed                	bnez	a5,20000216 <iSLERTX+0xf2>
	DevSetMode(0);
2000021e:	4501                	li	a0,0
20000220:	4a6000e7          	jalr	1190(zero) # 0 <InterruptVector>
	if(LL->LL0 & 3) {
20000224:	401c                	lw	a5,0(s0)
20000226:	8b8d                	andi	a5,a5,3
20000228:	cb89                	beqz	a5,2000023a <iSLERTX+0x116>
		LL->CTRL_MOD &= CTRL_MOD_RFSTOP;
2000022a:	483c                	lw	a5,80(s0)
2000022c:	8ff7f793          	andi	a5,a5,-1793
20000230:	c83c                	sw	a5,80(s0)
		LL->LL0 |= 0x08;
20000232:	401c                	lw	a5,0(s0)
20000234:	0087e793          	ori	a5,a5,8
20000238:	c01c                	sw	a5,0(s0)
	}
}
2000023a:	40f2                	lw	ra,28(sp)
2000023c:	4462                	lw	s0,24(sp)
2000023e:	44d2                	lw	s1,20(sp)
20000240:	4942                	lw	s2,16(sp)
20000242:	49b2                	lw	s3,12(sp)
20000244:	4a22                	lw	s4,8(sp)
20000246:	4a92                	lw	s5,4(sp)
20000248:	6105                	addi	sp,sp,32
2000024a:	8082                	ret
										  CTRL_CFG_PHY_1M; // default 1M for now
2000024c:	4000c7b7          	lui	a5,0x4000c
20000250:	1007a783          	lw	a5,256(a5) # 4000c100 <_eusrstack+0x20009100>
20000254:	cff7f793          	andi	a5,a5,-769
	BB->CTRL_CFG = (phy_mode == PHY_2M) ? CTRL_CFG_PHY_2M:
20000258:	1007e793          	ori	a5,a5,256
2000025c:	bfb9                	j	200001ba <iSLERTX+0x96>

2000025e <iSLERRX>:

__HIGH_CODE
void iSLERRX(uint32_t access_address, uint8_t channel, uint8_t phy_mode) {
2000025e:	1101                	addi	sp,sp,-32
20000260:	ca26                	sw	s1,20(sp)
20000262:	84aa                	mv	s1,a0
	DevSetMode(0);
20000264:	4501                	li	a0,0
void iSLERRX(uint32_t access_address, uint8_t channel, uint8_t phy_mode) {
20000266:	cc22                	sw	s0,24(sp)
20000268:	c64e                	sw	s3,12(sp)
2000026a:	ce06                	sw	ra,28(sp)
2000026c:	c84a                	sw	s2,16(sp)
2000026e:	89ae                	mv	s3,a1
20000270:	8432                	mv	s0,a2
	DevSetMode(0);
20000272:	4a6000e7          	jalr	1190(zero) # 0 <InterruptVector>
	if(LL->LL0 & 3) {
20000276:	4000c7b7          	lui	a5,0x4000c
2000027a:	2007a703          	lw	a4,512(a5) # 4000c200 <_eusrstack+0x20009200>
2000027e:	8b0d                	andi	a4,a4,3
20000280:	cf09                	beqz	a4,2000029a <iSLERRX+0x3c>
20000282:	20078693          	addi	a3,a5,512
		LL->CTRL_MOD &= CTRL_MOD_RFSTOP;
20000286:	4ab8                	lw	a4,80(a3)
20000288:	8ff77713          	andi	a4,a4,-1793
2000028c:	cab8                	sw	a4,80(a3)
		LL->LL0 |= 0x08;
2000028e:	2007a703          	lw	a4,512(a5)
20000292:	00876713          	ori	a4,a4,8
20000296:	20e7a023          	sw	a4,512(a5)
	}
	LL->TMR = 0;
2000029a:	4000c937          	lui	s2,0x4000c
2000029e:	20090793          	addi	a5,s2,512 # 4000c200 <_eusrstack+0x20009200>
200002a2:	0607a223          	sw	zero,100(a5)

	DevSetChannel(channel);
200002a6:	854e                	mv	a0,s3
200002a8:	582000e7          	jalr	1410(zero) # 0 <InterruptVector>
	DevSetMode(DEVSETMODE_RX);
200002ac:	15800513          	li	a0,344
200002b0:	4a6000e7          	jalr	1190(zero) # 0 <InterruptVector>
		BB->CTRL_CFG = (BB->CTRL_CFG & 0xffff3fff) | ((phy_mode == PHY_S2) ? 0x4000 : 0);
	}
#elif defined(CH571_CH573)
	BB->CTRL_CFG = CTRL_CFG_PHY_1M; // no 2M PHY on ch571/3
#else
	BB->CTRL_CFG = (phy_mode == PHY_2M) ? CTRL_CFG_PHY_2M:
200002b4:	4789                	li	a5,2
200002b6:	0cf41b63          	bne	s0,a5,2000038c <iSLERRX+0x12e>
200002ba:	10092783          	lw	a5,256(s2)
200002be:	cff7f793          	andi	a5,a5,-769
200002c2:	4000c737          	lui	a4,0x4000c
200002c6:	10070693          	addi	a3,a4,256 # 4000c100 <_eusrstack+0x20009100>
200002ca:	10f72023          	sw	a5,256(a4)
										  CTRL_CFG_PHY_1M; // default 1M for now
#endif

#ifdef CH570_CH572
	BB->BB9 = (BB->BB9 & 0xf9ffffff) | ((phy_mode == PHY_2M) ? 0 : 0x2000000);
200002ce:	52dc                	lw	a5,36(a3)
200002d0:	fa000737          	lui	a4,0xfa000
200002d4:	177d                	addi	a4,a4,-1
200002d6:	4609                	li	a2,2
200002d8:	8ff9                	and	a5,a5,a4
200002da:	4701                	li	a4,0
200002dc:	00c40463          	beq	s0,a2,200002e4 <iSLERRX+0x86>
200002e0:	02000737          	lui	a4,0x2000
200002e4:	8fd9                	or	a5,a5,a4
200002e6:	d2dc                	sw	a5,36(a3)
	RF->RF20 = (RF->RF20 & 0xffffffe0) | ((phy_mode == PHY_2M) ? (tuneFilter2M & 0x1f) : (tuneFilter & 0x1f));
200002e8:	4000d7b7          	lui	a5,0x4000d
200002ec:	4bbc                	lw	a5,80(a5)
200002ee:	fe07f713          	andi	a4,a5,-32
200002f2:	4789                	li	a5,2
200002f4:	0af41363          	bne	s0,a5,2000039a <iSLERRX+0x13c>
200002f8:	c101a783          	lw	a5,-1008(gp) # 200003b8 <tuneFilter2M>
200002fc:	8bfd                	andi	a5,a5,31
200002fe:	8fd9                	or	a5,a5,a4
20000300:	4000d737          	lui	a4,0x4000d
20000304:	cb3c                	sw	a5,80(a4)
	BB->BB5 = (BB->BB5 & 0xffffffc0) | ((phy_mode == PHY_2M) ? 0xd : 0xb);
20000306:	4000c7b7          	lui	a5,0x4000c
2000030a:	10078793          	addi	a5,a5,256 # 4000c100 <_eusrstack+0x20009100>
2000030e:	4bd8                	lw	a4,20(a5)
20000310:	4609                	li	a2,2
20000312:	46b5                	li	a3,13
20000314:	fc077713          	andi	a4,a4,-64
20000318:	00c40363          	beq	s0,a2,2000031e <iSLERRX+0xc0>
2000031c:	46ad                	li	a3,11
2000031e:	8f55                	or	a4,a4,a3
20000320:	cbd8                	sw	a4,20(a5)
	BB->BB7 = (BB->BB7 & 0xff00fc00) | ((phy_mode == PHY_2M) ? 0x7f00a0 : 0x79009c);
20000322:	4fd8                	lw	a4,28(a5)
20000324:	ff0107b7          	lui	a5,0xff010
20000328:	c0078793          	addi	a5,a5,-1024 # ff00fc00 <_eusrstack+0xdf00cc00>
2000032c:	8f7d                	and	a4,a4,a5
2000032e:	4789                	li	a5,2
20000330:	06f40863          	beq	s0,a5,200003a0 <iSLERRX+0x142>
20000334:	007907b7          	lui	a5,0x790
20000338:	09c78793          	addi	a5,a5,156 # 79009c <drv8835controller.c.16e472a3+0x78dd24>
2000033c:	4000c5b7          	lui	a1,0x4000c
20000340:	8f5d                	or	a4,a4,a5
20000342:	10058793          	addi	a5,a1,256 # 4000c100 <_eusrstack+0x20009100>
20000346:	cfd8                	sw	a4,28(a5)
	BB->BB6 = (BB->BB6 & 0xfffffc00) | ((phy_mode == PHY_2M) ? 0x13a : 0x132);
	BB->BB4 = (BB->BB4 & 0x00ffffff) | ((phy_mode == PHY_2M) ? 0x78000000 : 0x7f000000);
#endif

	BB->ACCESSADDRESS1 = access_address; // access address
	BB->CRCINIT1 = 0x555555; // crc init
20000348:	00555737          	lui	a4,0x555
	BB->ACCESSADDRESS1 = access_address; // access address
2000034c:	c7c4                	sw	s1,12(a5)
	BB->CRCINIT1 = 0x555555; // crc init
2000034e:	55570713          	addi	a4,a4,1365 # 555555 <drv8835controller.c.16e472a3+0x5531dd>
20000352:	c3d8                	sw	a4,4(a5)
#ifdef CH570_CH572
	BB->ACCESSADDRESS2 = access_address;
20000354:	d3a4                	sw	s1,96(a5)
	BB->CRCINIT2 = 0x555555;
20000356:	cfb8                	sw	a4,88(a5)
	BB->CRCPOLY1 = (BB->CRCPOLY1 & 0xff000000) | 0x80032d; // crc poly
20000358:	4794                	lw	a3,8(a5)
2000035a:	ff000537          	lui	a0,0xff000
2000035e:	00800637          	lui	a2,0x800
20000362:	32d60613          	addi	a2,a2,813 # 80032d <drv8835controller.c.16e472a3+0x7fdfb5>
20000366:	8ee9                	and	a3,a3,a0
20000368:	8ed1                	or	a3,a3,a2
2000036a:	c794                	sw	a3,8(a5)
	BB->CRCPOLY2 = (BB->CRCPOLY2 & 0xff000000) | 0x80032d;
2000036c:	4ff8                	lw	a4,92(a5)

	LL->LL0 = 1; // Not sure what this does, but on TX it's 2
#ifndef ISLER_CALLBACK
	rx_ready = 0;
#endif
}
2000036e:	40f2                	lw	ra,28(sp)
20000370:	4462                	lw	s0,24(sp)
	BB->CRCPOLY2 = (BB->CRCPOLY2 & 0xff000000) | 0x80032d;
20000372:	8f69                	and	a4,a4,a0
20000374:	8f51                	or	a4,a4,a2
20000376:	cff8                	sw	a4,92(a5)
	LL->LL0 = 1; // Not sure what this does, but on TX it's 2
20000378:	4785                	li	a5,1
2000037a:	20f5a023          	sw	a5,512(a1)
	rx_ready = 0;
2000037e:	c001a423          	sw	zero,-1016(gp) # 200003b0 <rx_ready>
}
20000382:	44d2                	lw	s1,20(sp)
20000384:	4942                	lw	s2,16(sp)
20000386:	49b2                	lw	s3,12(sp)
20000388:	6105                	addi	sp,sp,32
2000038a:	8082                	ret
										  CTRL_CFG_PHY_1M; // default 1M for now
2000038c:	10092783          	lw	a5,256(s2)
20000390:	cff7f793          	andi	a5,a5,-769
	BB->CTRL_CFG = (phy_mode == PHY_2M) ? CTRL_CFG_PHY_2M:
20000394:	1007e793          	ori	a5,a5,256
20000398:	b72d                	j	200002c2 <iSLERRX+0x64>
	RF->RF20 = (RF->RF20 & 0xffffffe0) | ((phy_mode == PHY_2M) ? (tuneFilter2M & 0x1f) : (tuneFilter & 0x1f));
2000039a:	c0c1a783          	lw	a5,-1012(gp) # 200003b4 <tuneFilter>
2000039e:	bfb9                	j	200002fc <iSLERRX+0x9e>
	BB->BB7 = (BB->BB7 & 0xff00fc00) | ((phy_mode == PHY_2M) ? 0x7f00a0 : 0x79009c);
200003a0:	007f07b7          	lui	a5,0x7f0
200003a4:	0a078793          	addi	a5,a5,160 # 7f00a0 <drv8835controller.c.16e472a3+0x7edd28>
200003a8:	bf51                	j	2000033c <iSLERRX+0xde>
	...

Disassembly of section .text:

0000043c <DelaySysTick>:
	while( ((int32_t)( SysTick->CNT - targend )) < 0 );
#elif defined(CH32V20x) || defined(CH32V30x) || defined(CH32X03x) || defined(CH32L103) || defined(CH582_CH583) || defined(CH591_CH592) || defined(CH32H41x)
	uint64_t targend = SysTick->CNT + n;
	while( ((int64_t)( SysTick->CNT - targend )) < 0 );
#elif defined(CH32V10x) || defined(CH570_CH572) || defined(CH584_CH585)
	uint32_t targend = SysTick->CNTL + n;
     43c:	e000f7b7          	lui	a5,0xe000f
     440:	479c                	lw	a5,8(a5)
	while( ((int32_t)( SysTick->CNTL - targend )) < 0 );
     442:	e000f737          	lui	a4,0xe000f
	uint32_t targend = SysTick->CNTL + n;
     446:	953e                	add	a0,a0,a5
	while( ((int32_t)( SysTick->CNTL - targend )) < 0 );
     448:	471c                	lw	a5,8(a4)
     44a:	8f89                	sub	a5,a5,a0
     44c:	fe07cee3          	bltz	a5,448 <DelaySysTick+0xc>
	uint64_t targend = SysTick->CNT - n;
	while( ((int64_t)( SysTick->CNT - targend )) > 0 );
#else
	#error DelaySysTick not defined.
#endif
}
     450:	8082                	ret

00000452 <USBFS_InternalFinishSetup>:
	USBFSCTX.endpoint_mode[1] = FUSB_EP1_MODE;
     452:	05418793          	addi	a5,gp,84 # 200007fc <USBFSCTX>
     456:	4705                	li	a4,1
     458:	0ce7aa23          	sw	a4,212(a5) # e000f0d4 <_eusrstack+0xc000c0d4>
	USBFS->UEP4_1_MOD = USBFS_UEP1_TX_EN;
     45c:	04000693          	li	a3,64
     460:	40008737          	lui	a4,0x40008
     464:	00d70623          	sb	a3,12(a4) # 4000800c <_eusrstack+0x2000500c>
	USBFSCTX.endpoint_mode[2] = FUSB_EP2_MODE;
     468:	56fd                	li	a3,-1
     46a:	0cd7ac23          	sw	a3,216(a5)
	USBFS->UEP2_3_MOD = USBFS_UEP2_RX_EN;
     46e:	46a1                	li	a3,8
     470:	00d706a3          	sb	a3,13(a4)
		UEP_DMA(i) = (uintptr_t)USBFSCTX.ENDPOINTS[i];
     474:	01078693          	addi	a3,a5,16
     478:	00d71823          	sh	a3,16(a4)
     47c:	05078693          	addi	a3,a5,80
     480:	00d71a23          	sh	a3,20(a4)
     484:	09078693          	addi	a3,a5,144
     488:	00d71c23          	sh	a3,24(a4)
	UEP_CTRL_TX(0) = USBFS_UEP_T_RES_NAK | USBFS_UEP_R_RES_ACK | CHECK_USBFS_UEP_T_AUTO_TOG;
     48c:	46c9                	li	a3,18
     48e:	02d70123          	sb	a3,34(a4)
			UEP_CTRL_TX(i) = USBFS_UEP_T_RES_NAK;
     492:	4689                	li	a3,2
     494:	02d70323          	sb	a3,38(a4)
		USBFSCTX.USBFS_Endp_Busy[i] = 0;
     498:	0e0780a3          	sb	zero,225(a5)
			UEP_CTRL_TX(i) = USBFS_UEP_R_RES_ACK;
     49c:	02070523          	sb	zero,42(a4)
		USBFSCTX.USBFS_Endp_Busy[i] = 0;
     4a0:	0e078123          	sb	zero,226(a5)
}
     4a4:	8082                	ret

000004a6 <DevSetMode>:
	if(mode) {
     4a6:	fffd07b7          	lui	a5,0xfffd0
		BB->CTRL_CFG = DEVSETMODE_ON;
     4aa:	4000c6b7          	lui	a3,0x4000c
     4ae:	fff78713          	addi	a4,a5,-1 # fffcffff <_eusrstack+0xdffccfff>
     4b2:	1006a783          	lw	a5,256(a3) # 4000c100 <_eusrstack+0x20009100>
     4b6:	8ff9                	and	a5,a5,a4
	if(mode) {
     4b8:	c11d                	beqz	a0,4de <DevSetMode+0x38>
		BB->CTRL_CFG = DEVSETMODE_ON;
     4ba:	00020737          	lui	a4,0x20
     4be:	8fd9                	or	a5,a5,a4
     4c0:	10f6a023          	sw	a5,256(a3)
		RF->RF2 |= 0x330000;
     4c4:	4000d737          	lui	a4,0x4000d
     4c8:	471c                	lw	a5,8(a4)
     4ca:	003306b7          	lui	a3,0x330
     4ce:	8fd5                	or	a5,a5,a3
     4d0:	c71c                	sw	a5,8(a4)
	LL->CTRL_MOD = mode;
     4d2:	4000c7b7          	lui	a5,0x4000c
     4d6:	20078793          	addi	a5,a5,512 # 4000c200 <_eusrstack+0x20009200>
     4da:	cba8                	sw	a0,80(a5)
}
     4dc:	8082                	ret
		BB->CTRL_CFG = DEVSETMODE_OFF;
     4de:	6741                	lui	a4,0x10
     4e0:	8fd9                	or	a5,a5,a4
     4e2:	10f6a023          	sw	a5,256(a3) # 330100 <drv8835controller.c.16e472a3+0x32dd88>
		RF->RF2 &= 0xffcdffff;
     4e6:	4000d6b7          	lui	a3,0x4000d
     4ea:	469c                	lw	a5,8(a3)
     4ec:	ffce0737          	lui	a4,0xffce0
     4f0:	177d                	addi	a4,a4,-1
     4f2:	8ff9                	and	a5,a5,a4
     4f4:	c69c                	sw	a5,8(a3)
     4f6:	bff1                	j	4d2 <DevSetMode+0x2c>

000004f8 <RFEND_TXCTune>:
	RF->RF1 &= 0xfffffffe;
     4f8:	4000d737          	lui	a4,0x4000d
     4fc:	435c                	lw	a5,4(a4)
	RF->TXTUNE_CTRL = (RF->TXTUNE_CTRL & 0xfffe00ff) | (0xbf00 + (channel_map[channel] << 8));
     4fe:	6685                	lui	a3,0x1
     500:	1ac68693          	addi	a3,a3,428 # 11ac <channel_map>
	RF->RF1 &= 0xfffffffe;
     504:	9bf9                	andi	a5,a5,-2
	RF->TXTUNE_CTRL = (RF->TXTUNE_CTRL & 0xfffe00ff) | (0xbf00 + (channel_map[channel] << 8));
     506:	96aa                	add	a3,a3,a0
	RF->RF1 &= 0xfffffffe;
     508:	c35c                	sw	a5,4(a4)
	RF->TXTUNE_CTRL = (RF->TXTUNE_CTRL & 0xfffe00ff) | (0xbf00 + (channel_map[channel] << 8));
     50a:	0006c783          	lbu	a5,0(a3)
     50e:	66b1                	lui	a3,0xc
     510:	5f10                	lw	a2,56(a4)
     512:	f0068693          	addi	a3,a3,-256 # bf00 <drv8835controller.c.16e472a3+0x9b88>
     516:	07a2                	slli	a5,a5,0x8
     518:	97b6                	add	a5,a5,a3
     51a:	7681                	lui	a3,0xfffe0
     51c:	0ff68693          	addi	a3,a3,255 # fffe00ff <_eusrstack+0xdffdd0ff>
     520:	8e75                	and	a2,a2,a3
     522:	8fd1                	or	a5,a5,a2
     524:	df1c                	sw	a5,56(a4)
	RF->RF1 |= 1;
     526:	435c                	lw	a5,4(a4)
	while(!(RF->TXCTUNE_CO_CTRL & (1 << 25)) || !(RF->TXCTUNE_CO_CTRL & (1 << 26))) {
     528:	02000637          	lui	a2,0x2000
     52c:	040006b7          	lui	a3,0x4000
	RF->RF1 |= 1;
     530:	0017e793          	ori	a5,a5,1
     534:	c35c                	sw	a5,4(a4)
	LL->TMR = 8000;
     536:	4000c7b7          	lui	a5,0x4000c
     53a:	6709                	lui	a4,0x2
     53c:	f4070713          	addi	a4,a4,-192 # 1f40 <ch32fun.c.beaf0083+0x914>
     540:	20078793          	addi	a5,a5,512 # 4000c200 <_eusrstack+0x20009200>
     544:	d3f8                	sw	a4,100(a5)
		if(LL->TMR == 0) {
     546:	4000c5b7          	lui	a1,0x4000c
	while(!(RF->TXCTUNE_CO_CTRL & (1 << 25)) || !(RF->TXCTUNE_CO_CTRL & (1 << 26))) {
     54a:	4000d737          	lui	a4,0x4000d
     54e:	09072783          	lw	a5,144(a4) # 4000d090 <_eusrstack+0x2000a090>
     552:	8ff1                	and	a5,a5,a2
     554:	c789                	beqz	a5,55e <RFEND_TXCTune+0x66>
     556:	09072783          	lw	a5,144(a4)
     55a:	8ff5                	and	a5,a5,a3
     55c:	e789                	bnez	a5,566 <RFEND_TXCTune+0x6e>
		if(LL->TMR == 0) {
     55e:	20058793          	addi	a5,a1,512 # 4000c200 <_eusrstack+0x20009200>
     562:	53fc                	lw	a5,100(a5)
     564:	f7ed                	bnez	a5,54e <RFEND_TXCTune+0x56>
	uint8_t nCO = (uint8_t)RF->TXCTUNE_CO_CTRL & 0x3f;
     566:	4000d7b7          	lui	a5,0x4000d
     56a:	0907a503          	lw	a0,144(a5) # 4000d090 <_eusrstack+0x2000a090>
	uint8_t nGA = (uint8_t)(RF->TXCTUNE_GA_CTRL >> 10) & 0x7f;
     56e:	0947a783          	lw	a5,148(a5)
	return (nGA << 24) | nCO;
     572:	03f57513          	andi	a0,a0,63
	uint8_t nGA = (uint8_t)(RF->TXCTUNE_GA_CTRL >> 10) & 0x7f;
     576:	83a9                	srli	a5,a5,0xa
	return (nGA << 24) | nCO;
     578:	07f7f793          	andi	a5,a5,127
     57c:	07e2                	slli	a5,a5,0x18
}
     57e:	8d5d                	or	a0,a0,a5
     580:	8082                	ret

00000582 <DevSetChannel>:
	RF->RF11 &= 0xfffffffd;
     582:	4000d737          	lui	a4,0x4000d
     586:	575c                	lw	a5,44(a4)
	BB->CTRL_CFG = (BB->CTRL_CFG & 0xffffff80) | (channel & 0x7f);
     588:	07f57513          	andi	a0,a0,127
	RF->RF11 &= 0xfffffffd;
     58c:	9bf5                	andi	a5,a5,-3
     58e:	d75c                	sw	a5,44(a4)
	BB->CTRL_CFG = (BB->CTRL_CFG & 0xffffff80) | (channel & 0x7f);
     590:	4000c737          	lui	a4,0x4000c
     594:	10072783          	lw	a5,256(a4) # 4000c100 <_eusrstack+0x20009100>
     598:	f807f793          	andi	a5,a5,-128
     59c:	8fc9                	or	a5,a5,a0
     59e:	10f72023          	sw	a5,256(a4)
}
     5a2:	8082                	ret

000005a4 <blink>:
void blink(int n, int delay) {
     5a4:	1101                	addi	sp,sp,-32
     5a6:	cc22                	sw	s0,24(sp)
    Delay_Ms(delay);
     5a8:	6409                	lui	s0,0x2
     5aa:	d4c40413          	addi	s0,s0,-692 # 1d4c <ch32fun.c.beaf0083+0x720>
     5ae:	02858433          	mul	s0,a1,s0
void blink(int n, int delay) {
     5b2:	c64e                	sw	s3,12(sp)
    funDigitalWrite(LED, FUN_LOW);
     5b4:	400019b7          	lui	s3,0x40001
void blink(int n, int delay) {
     5b8:	ca26                	sw	s1,20(sp)
     5ba:	c84a                	sw	s2,16(sp)
     5bc:	c452                	sw	s4,8(sp)
     5be:	c256                	sw	s5,4(sp)
     5c0:	c05a                	sw	s6,0(sp)
     5c2:	ce06                	sw	ra,28(sp)
     5c4:	892a                	mv	s2,a0
  for (int i = 0; i < n; i++) {
     5c6:	4481                	li	s1,0
    funDigitalWrite(LED, FUN_LOW);
     5c8:	0ac98a93          	addi	s5,s3,172 # 400010ac <_eusrstack+0x1fffe0ac>
     5cc:	20000a13          	li	s4,512
     5d0:	20000b13          	li	s6,512
    Delay_Ms(delay);
     5d4:	8522                	mv	a0,s0
    funDigitalWrite(LED, FUN_LOW);
     5d6:	016aa023          	sw	s6,0(s5)
    Delay_Ms(delay);
     5da:	358d                	jal	43c <DelaySysTick>
    Delay_Ms(delay);
     5dc:	8522                	mv	a0,s0
    funDigitalWrite(LED, FUN_HIGH);
     5de:	0b49ac23          	sw	s4,184(s3)
  for (int i = 0; i < n; i++) {
     5e2:	0485                	addi	s1,s1,1
    Delay_Ms(delay);
     5e4:	3da1                	jal	43c <DelaySysTick>
  for (int i = 0; i < n; i++) {
     5e6:	fe9917e3          	bne	s2,s1,5d4 <blink+0x30>
}
     5ea:	40f2                	lw	ra,28(sp)
     5ec:	4462                	lw	s0,24(sp)
     5ee:	44d2                	lw	s1,20(sp)
     5f0:	4942                	lw	s2,16(sp)
     5f2:	49b2                	lw	s3,12(sp)
     5f4:	4a22                	lw	s4,8(sp)
     5f6:	4a92                	lw	s5,4(sp)
     5f8:	4b02                	lw	s6,0(sp)
     5fa:	6105                	addi	sp,sp,32
     5fc:	8082                	ret

000005fe <handle_reset>:
	asm volatile( "\n\
     5fe:	20000197          	auipc	gp,0x20000
     602:	1aa18193          	addi	gp,gp,426 # 200007a8 <__global_pointer$>
     606:	20003117          	auipc	sp,0x20003
     60a:	9fa10113          	addi	sp,sp,-1542 # 20003000 <_eusrstack>
	asm volatile(
     60e:	c0818513          	addi	a0,gp,-1016 # 200003b0 <rx_ready>
     612:	17818593          	addi	a1,gp,376 # 20000920 <_ebss>
     616:	00b57763          	bgeu	a0,a1,624 <handle_reset+0x26>
     61a:	00052023          	sw	zero,0(a0) # ff000000 <_eusrstack+0xdeffd000>
     61e:	0511                	addi	a0,a0,4
     620:	feb56de3          	bltu	a0,a1,61a <handle_reset+0x1c>
     624:	09000513          	li	a0,144
     628:	20000597          	auipc	a1,0x20000
     62c:	9d858593          	addi	a1,a1,-1576 # 20000000 <HandleDataOut>
     630:	20000617          	auipc	a2,0x20000
     634:	d7c60613          	addi	a2,a2,-644 # 200003ac <_data_vma>
     638:	00c5fa63          	bgeu	a1,a2,64c <handle_reset+0x4e>
     63c:	00052283          	lw	t0,0(a0)
     640:	0055a023          	sw	t0,0(a1)
     644:	0511                	addi	a0,a0,4
     646:	0591                	addi	a1,a1,4
     648:	fec5eae3          	bltu	a1,a2,63c <handle_reset+0x3e>
     64c:	00001517          	auipc	a0,0x1
     650:	c0450513          	addi	a0,a0,-1020 # 1250 <_data_lma>
     654:	c0418593          	addi	a1,gp,-1020 # 200003ac <_data_vma>
     658:	c0818613          	addi	a2,gp,-1016 # 200003b0 <rx_ready>
     65c:	00c58a63          	beq	a1,a2,670 <handle_reset+0x72>
     660:	00052283          	lw	t0,0(a0)
     664:	0055a023          	sw	t0,0(a1)
     668:	0511                	addi	a0,a0,4
     66a:	0591                	addi	a1,a1,4
     66c:	fec5eae3          	bltu	a1,a2,660 <handle_reset+0x62>
	asm volatile(
     670:	00000793          	li	a5,0
     674:	42fd                	li	t0,31
     676:	bc029073          	csrw	0xbc0,t0
     67a:	6289                	lui	t0,0x2
     67c:	88828293          	addi	t0,t0,-1912 # 1888 <ch32fun.c.beaf0083+0x25c>
     680:	3002a073          	csrs	mstatus,t0
     684:	00000297          	auipc	t0,0x0
     688:	97c28293          	addi	t0,t0,-1668 # 0 <InterruptVector>
     68c:	0032e293          	ori	t0,t0,3
     690:	30529073          	csrw	mtvec,t0
	SysTick->CTLR = 1;
     694:	e000f7b7          	lui	a5,0xe000f
     698:	4705                	li	a4,1
     69a:	c398                	sw	a4,0(a5)
	asm volatile(
     69c:	6785                	lui	a5,0x1
     69e:	c4e78793          	addi	a5,a5,-946 # c4e <main>
     6a2:	34179073          	csrw	mepc,a5
     6a6:	30200073          	mret

000006aa <ADC1_2_IRQHandler>:
	asm volatile( "1: j 1b" );
     6aa:	a001                	j	6aa <ADC1_2_IRQHandler>

000006ac <USB_IRQHandler>:
{
     6ac:	715d                	addi	sp,sp,-80
     6ae:	de22                	sw	s0,60(sp)
	uint16_t intfgst = *(uint16_t*)(&USBFS->INT_FG);
     6b0:	40008437          	lui	s0,0x40008
{
     6b4:	d03e                	sw	a5,32(sp)
	uint16_t intfgst = *(uint16_t*)(&USBFS->INT_FG);
     6b6:	00645783          	lhu	a5,6(s0) # 40008006 <_eusrstack+0x20005006>
{
     6ba:	d23a                	sw	a4,36(sp)
     6bc:	c686                	sw	ra,76(sp)
     6be:	c496                	sw	t0,72(sp)
     6c0:	c29a                	sw	t1,68(sp)
     6c2:	c09e                	sw	t2,64(sp)
     6c4:	dc26                	sw	s1,56(sp)
     6c6:	da2a                	sw	a0,52(sp)
     6c8:	d82e                	sw	a1,48(sp)
     6ca:	d632                	sw	a2,44(sp)
     6cc:	d436                	sw	a3,40(sp)
     6ce:	ce42                	sw	a6,28(sp)
     6d0:	cc46                	sw	a7,24(sp)
     6d2:	ca4a                	sw	s2,20(sp)
     6d4:	c84e                	sw	s3,16(sp)
     6d6:	c672                	sw	t3,12(sp)
     6d8:	c476                	sw	t4,8(sp)
     6da:	c27a                	sw	t5,4(sp)
     6dc:	c07e                	sw	t6,0(sp)
	if( intfgst & CRB_UIF_TRANSFER )
     6de:	0027f713          	andi	a4,a5,2
     6e2:	3e070563          	beqz	a4,acc <USB_IRQHandler+0x420>
		int token = ( intfgst & CMASK_UIS_TOKEN) >> 12;
     6e6:	40c7d713          	srai	a4,a5,0xc
		int ep = ( intfgst & CMASK_UIS_ENDP ) >> 8;
     6ea:	4087d593          	srai	a1,a5,0x8
		int token = ( intfgst & CMASK_UIS_TOKEN) >> 12;
     6ee:	8b0d                	andi	a4,a4,3
		switch ( token )
     6f0:	4689                	li	a3,2
		int ep = ( intfgst & CMASK_UIS_ENDP ) >> 8;
     6f2:	89bd                	andi	a1,a1,15
		switch ( token )
     6f4:	04d70863          	beq	a4,a3,744 <USB_IRQHandler+0x98>
     6f8:	468d                	li	a3,3
     6fa:	1ad70563          	beq	a4,a3,8a4 <USB_IRQHandler+0x1f8>
     6fe:	eb2d                	bnez	a4,770 <USB_IRQHandler+0xc4>
			len = USBFS->RX_LEN;
     700:	00844683          	lbu	a3,8(s0)
     704:	0ff6f693          	andi	a3,a3,255
			switch( ep )
     708:	16059663          	bnez	a1,874 <USB_IRQHandler+0x1c8>
					if( intfgst & CRB_UIS_TOG_OK )
     70c:	6711                	lui	a4,0x4
     70e:	8ff9                	and	a5,a5,a4
     710:	c3a5                	beqz	a5,770 <USB_IRQHandler+0xc4>
						if ( ctx->USBFS_SetupReqCode != HID_SET_REPORT )
     712:	05418713          	addi	a4,gp,84 # 200007fc <USBFSCTX>
     716:	00074603          	lbu	a2,0(a4) # 4000 <drv8835controller.c.16e472a3+0x1c88>
     71a:	46a5                	li	a3,9
     71c:	05418793          	addi	a5,gp,84 # 200007fc <USBFSCTX>
     720:	12d60f63          	beq	a2,a3,85e <USB_IRQHandler+0x1b2>
    ctx->USBFS_SetupReqLen = 0; // To ACK
     724:	00079123          	sh	zero,2(a5)
							if ( ( ctx->USBFS_SetupReqType & USB_REQ_TYP_IN ) == 0 )
     728:	00178703          	lb	a4,1(a5)
     72c:	00074563          	bltz	a4,736 <USB_IRQHandler+0x8a>
								ctx->USBFS_errata_dont_send_endpoint_in_window = 1;
     730:	4705                	li	a4,1
     732:	0ee781a3          	sb	a4,227(a5)
							UEP_CTRL_LEN(0) = 0;
     736:	400087b7          	lui	a5,0x40008
     73a:	02078023          	sb	zero,32(a5) # 40008020 <_eusrstack+0x20005020>
							UEP_CTRL_TX(0) = USBFS_UEP_T_TOG | CHECK_USBFS_UEP_T_AUTO_TOG | USBFS_UEP_T_RES_ACK;
     73e:	05000713          	li	a4,80
     742:	a8c1                	j	812 <USB_IRQHandler+0x166>
			if( ep )
     744:	c1b5                	beqz	a1,7a8 <USB_IRQHandler+0xfc>
				if( ep < FUSB_CONFIG_EPS )
     746:	02b74563          	blt	a4,a1,770 <USB_IRQHandler+0xc4>
					UEP_CTRL_TX(ep) ^= USBFS_UEP_T_TOG;
     74a:	00259793          	slli	a5,a1,0x2
     74e:	02240413          	addi	s0,s0,34
     752:	943e                	add	s0,s0,a5
     754:	00044783          	lbu	a5,0(s0)
     758:	0407c793          	xori	a5,a5,64
						UEP_CTRL_TX(ep) = ( UEP_CTRL_TX(ep) & ~USBFS_UEP_T_RES_MASK ) | USBFS_UEP_T_RES_NAK;
     75c:	9bf1                	andi	a5,a5,-4
     75e:	0027e793          	ori	a5,a5,2
     762:	00f40023          	sb	a5,0(s0)
					ctx->USBFS_Endp_Busy[ ep ] = 0;
     766:	05418793          	addi	a5,gp,84 # 200007fc <USBFSCTX>
     76a:	95be                	add	a1,a1,a5
     76c:	0e058023          	sb	zero,224(a1)
		USBFS->INT_FG = CRB_UIF_TRANSFER;
     770:	400087b7          	lui	a5,0x40008
     774:	4709                	li	a4,2
     776:	00e78323          	sb	a4,6(a5) # 40008006 <_eusrstack+0x20005006>
}
     77a:	5472                	lw	s0,60(sp)
     77c:	40b6                	lw	ra,76(sp)
     77e:	42a6                	lw	t0,72(sp)
     780:	4316                	lw	t1,68(sp)
     782:	4386                	lw	t2,64(sp)
     784:	54e2                	lw	s1,56(sp)
     786:	5552                	lw	a0,52(sp)
     788:	55c2                	lw	a1,48(sp)
     78a:	5632                	lw	a2,44(sp)
     78c:	56a2                	lw	a3,40(sp)
     78e:	5712                	lw	a4,36(sp)
     790:	5782                	lw	a5,32(sp)
     792:	4872                	lw	a6,28(sp)
     794:	48e2                	lw	a7,24(sp)
     796:	4952                	lw	s2,20(sp)
     798:	49c2                	lw	s3,16(sp)
     79a:	4e32                	lw	t3,12(sp)
     79c:	4ea2                	lw	t4,8(sp)
     79e:	4f12                	lw	t5,4(sp)
     7a0:	4f82                	lw	t6,0(sp)
     7a2:	6161                	addi	sp,sp,80
     7a4:	30200073          	mret
				if( ctx->USBFS_SetupReqLen == 0 )
     7a8:	05418793          	addi	a5,gp,84 # 200007fc <USBFSCTX>
     7ac:	0027d783          	lhu	a5,2(a5)
     7b0:	05418493          	addi	s1,gp,84 # 200007fc <USBFSCTX>
     7b4:	e789                	bnez	a5,7be <USB_IRQHandler+0x112>
					UEP_CTRL_TX(0) = USBFS_UEP_R_RES_ACK | USBFS_UEP_R_TOG;
     7b6:	f8000793          	li	a5,-128
     7ba:	02f40123          	sb	a5,34(s0)
				if( ctx->pCtrlPayloadPtr )
     7be:	00c4a983          	lw	s3,12(s1)
				ctx->USBFS_errata_dont_send_endpoint_in_window = 0;
     7c2:	0e0481a3          	sb	zero,227(s1)
				if( ctx->pCtrlPayloadPtr )
     7c6:	04098963          	beqz	s3,818 <USB_IRQHandler+0x16c>
					len = ctx->USBFS_SetupReqLen >= DEF_USBD_UEP0_SIZE ? DEF_USBD_UEP0_SIZE : ctx->USBFS_SetupReqLen;
     7ca:	0024d403          	lhu	s0,2(s1)
     7ce:	04000793          	li	a5,64
     7d2:	8922                	mv	s2,s0
     7d4:	0087f463          	bgeu	a5,s0,7dc <USB_IRQHandler+0x130>
     7d8:	04000913          	li	s2,64
     7dc:	0942                	slli	s2,s2,0x10
     7de:	01095913          	srli	s2,s2,0x10
					ctx->USBFS_SetupReqLen -= len;
     7e2:	41240433          	sub	s0,s0,s2
     7e6:	0442                	slli	s0,s0,0x10
					copyBuffer( ctrl0buff, ctx->pCtrlPayloadPtr, len ); // FYI -> Would need to do this if using DMA
     7e8:	864a                	mv	a2,s2
     7ea:	85ce                	mv	a1,s3
     7ec:	01048513          	addi	a0,s1,16
					ctx->USBFS_SetupReqLen -= len;
     7f0:	8041                	srli	s0,s0,0x10
					copyBuffer( ctrl0buff, ctx->pCtrlPayloadPtr, len ); // FYI -> Would need to do this if using DMA
     7f2:	2e35                	jal	b2e <memcpy>
					ctx->USBFS_SetupReqLen -= len;
     7f4:	00849123          	sh	s0,2(s1)
						ctx->pCtrlPayloadPtr = 0;
     7f8:	4781                	li	a5,0
					if( ctx->USBFS_SetupReqLen > 0 )
     7fa:	c019                	beqz	s0,800 <USB_IRQHandler+0x154>
						ctx->pCtrlPayloadPtr += len;
     7fc:	012987b3          	add	a5,s3,s2
     800:	c4dc                	sw	a5,12(s1)
					UEP_CTRL_LEN(0) = len;
     802:	400087b7          	lui	a5,0x40008
     806:	03278023          	sb	s2,32(a5) # 40008020 <_eusrstack+0x20005020>
						UEP_CTRL_TX(0) ^= USBFS_UEP_T_TOG;
     80a:	0227c703          	lbu	a4,34(a5)
     80e:	04074713          	xori	a4,a4,64
			UEP_CTRL_TX(0) = USBFS_UEP_T_TOG | USBFS_UEP_T_RES_STALL | USBFS_UEP_R_TOG | USBFS_UEP_R_RES_STALL;
     812:	02e78123          	sb	a4,34(a5)
     816:	bfa9                	j	770 <USB_IRQHandler+0xc4>
				else if ( ( ctx->USBFS_SetupReqType & USB_REQ_TYP_MASK ) != USB_REQ_TYP_STANDARD )
     818:	0014c783          	lbu	a5,1(s1)
     81c:	0607f793          	andi	a5,a5,96
     820:	cf91                	beqz	a5,83c <USB_IRQHandler+0x190>
					if( len && USBFSCTX.USBFS_SetupReqCode != HID_GET_REPORT )
     822:	0024d783          	lhu	a5,2(s1)
     826:	d7a9                	beqz	a5,770 <USB_IRQHandler+0xc4>
     828:	0004c703          	lbu	a4,0(s1)
     82c:	4785                	li	a5,1
     82e:	f4f701e3          	beq	a4,a5,770 <USB_IRQHandler+0xc4>
						UEP_CTRL_LEN(0) = len;
     832:	400087b7          	lui	a5,0x40008
     836:	02078023          	sb	zero,32(a5) # 40008020 <_eusrstack+0x20005020>
     83a:	bfc1                	j	80a <USB_IRQHandler+0x15e>
					switch( USBFSCTX.USBFS_SetupReqCode )
     83c:	0004c703          	lbu	a4,0(s1)
     840:	4795                	li	a5,5
     842:	f2f717e3          	bne	a4,a5,770 <USB_IRQHandler+0xc4>
							USBFS->DEV_ADDR = ( USBFS->DEV_ADDR & USBFS_UDA_GP_BIT ) | ctx->USBFS_DevAddr;
     846:	40008737          	lui	a4,0x40008
     84a:	00374783          	lbu	a5,3(a4) # 40008003 <_eusrstack+0x20005003>
     84e:	0094c683          	lbu	a3,9(s1)
     852:	0807f793          	andi	a5,a5,128
     856:	8fd5                	or	a5,a5,a3
     858:	00f701a3          	sb	a5,3(a4)
							break;
     85c:	bf11                	j	770 <USB_IRQHandler+0xc4>
						if( ctx->USBFS_SetupReqLen == 0 )
     85e:	00275703          	lhu	a4,2(a4)
     862:	ec0703e3          	beqz	a4,728 <USB_IRQHandler+0x7c>
							UEP_CTRL_TX(0) ^= USBFS_UEP_R_TOG;
     866:	02244783          	lbu	a5,34(s0)
     86a:	f807c793          	xori	a5,a5,-128
     86e:	02f40123          	sb	a5,34(s0)
     872:	bdfd                	j	770 <USB_IRQHandler+0xc4>
					UEP_CTRL_TX(ep) ^= USBFS_UEP_R_TOG;
     874:	00259793          	slli	a5,a1,0x2
     878:	02240413          	addi	s0,s0,34
     87c:	943e                	add	s0,s0,a5
     87e:	00044783          	lbu	a5,0(s0)
					HandleDataOut( ctx, ep, ctx->ENDPOINTS[ep], len );
     882:	05418613          	addi	a2,gp,84 # 200007fc <USBFSCTX>
					UEP_CTRL_TX(ep) ^= USBFS_UEP_R_TOG;
     886:	f807c793          	xori	a5,a5,-128
     88a:	00f40023          	sb	a5,0(s0)
					HandleDataOut( ctx, ep, ctx->ENDPOINTS[ep], len );
     88e:	00659793          	slli	a5,a1,0x6
     892:	07c1                	addi	a5,a5,16
     894:	963e                	add	a2,a2,a5
     896:	05418513          	addi	a0,gp,84 # 200007fc <USBFSCTX>
     89a:	1ffff097          	auipc	ra,0x1ffff
     89e:	766080e7          	jalr	1894(ra) # 20000000 <HandleDataOut>
					break;
     8a2:	b5f9                	j	770 <USB_IRQHandler+0xc4>
			if (!(USBFS->INT_ST & 0x80)) goto replycomplete;
     8a4:	00744783          	lbu	a5,7(s0)
     8a8:	07e2                	slli	a5,a5,0x18
     8aa:	87e1                	srai	a5,a5,0x18
     8ac:	ec07d2e3          	bgez	a5,770 <USB_IRQHandler+0xc4>
			UEP_CTRL_TX(0) = USBFS_UEP_T_RES_NAK | USBFS_UEP_T_TOG | USBFS_UEP_R_RES_NAK | USBFS_UEP_R_TOG | CHECK_USBFS_UEP_AUTO_TOG;
     8b0:	fda00793          	li	a5,-38
     8b4:	02f40123          	sb	a5,34(s0)
			int USBFS_SetupReqType = USBFSCTX.USBFS_SetupReqType  = pUSBFS_SetupReqPak->bmRequestType;
     8b8:	05418793          	addi	a5,gp,84 # 200007fc <USBFSCTX>
			int USBFS_SetupReqCode = USBFSCTX.USBFS_SetupReqCode  = pUSBFS_SetupReqPak->bRequest;
     8bc:	0107d703          	lhu	a4,16(a5)
     8c0:	0147d603          	lhu	a2,20(a5)
     8c4:	0127d303          	lhu	t1,18(a5)
     8c8:	00871693          	slli	a3,a4,0x8
     8cc:	0742                	slli	a4,a4,0x10
     8ce:	8341                	srli	a4,a4,0x10
     8d0:	8321                	srli	a4,a4,0x8
     8d2:	8f55                	or	a4,a4,a3
			int USBFS_SetupReqType = USBFSCTX.USBFS_SetupReqType  = pUSBFS_SetupReqPak->bmRequestType;
     8d4:	0107c883          	lbu	a7,16(a5)
			int USBFS_SetupReqLen = USBFSCTX.USBFS_SetupReqLen    = pUSBFS_SetupReqPak->wLength;
     8d8:	0167d683          	lhu	a3,22(a5)
			int USBFS_SetupReqCode = USBFSCTX.USBFS_SetupReqCode  = pUSBFS_SetupReqPak->bRequest;
     8dc:	00e79023          	sh	a4,0(a5)
     8e0:	01061713          	slli	a4,a2,0x10
     8e4:	00676733          	or	a4,a4,t1
			int USBFS_SetupReqLen = USBFSCTX.USBFS_SetupReqLen    = pUSBFS_SetupReqPak->wLength;
     8e8:	00d79123          	sh	a3,2(a5)
			int USBFS_IndexValue = USBFSCTX.USBFS_IndexValue = ( pUSBFS_SetupReqPak->wIndex << 16 ) | pUSBFS_SetupReqPak->wValue;
     8ec:	c3d8                	sw	a4,4(a5)
     8ee:	0608f313          	andi	t1,a7,96
			int USBFS_SetupReqCode = USBFSCTX.USBFS_SetupReqCode  = pUSBFS_SetupReqPak->bRequest;
     8f2:	0117ce03          	lbu	t3,17(a5)
			int USBFS_SetupReqLen = USBFSCTX.USBFS_SetupReqLen    = pUSBFS_SetupReqPak->wLength;
     8f6:	8836                	mv	a6,a3
			if( ( USBFS_SetupReqType & USB_REQ_TYP_MASK ) != USB_REQ_TYP_STANDARD )
     8f8:	00030c63          	beqz	t1,910 <USB_IRQHandler+0x264>
				if( ( USBFS_SetupReqType & USB_REQ_TYP_MASK ) == USB_REQ_TYP_CLASS || ( USBFS_SetupReqType & USB_REQ_TYP_MASK ) == USB_REQ_TYP_VENDOR )
     8fc:	1301                	addi	t1,t1,-32
     8fe:	0c037313          	andi	t1,t1,192
     902:	04031763          	bnez	t1,950 <USB_IRQHandler+0x2a4>
			UEP_CTRL_TX(0) = USBFS_UEP_T_TOG | USBFS_UEP_T_RES_STALL | USBFS_UEP_R_TOG | USBFS_UEP_R_RES_STALL;
     906:	400087b7          	lui	a5,0x40008
     90a:	fcf00713          	li	a4,-49
     90e:	b711                	j	812 <USB_IRQHandler+0x166>
				switch( USBFS_SetupReqCode )
     910:	432d                	li	t1,11
     912:	ffc36ae3          	bltu	t1,t3,906 <USB_IRQHandler+0x25a>
     916:	6e85                	lui	t4,0x1
     918:	002e1313          	slli	t1,t3,0x2
     91c:	17ce8e93          	addi	t4,t4,380 # 117c <string0+0x4>
     920:	9376                	add	t1,t1,t4
     922:	00032303          	lw	t1,0(t1)
     926:	8302                	jr	t1
						const struct descriptor_list_struct * e = descriptor_list;
     928:	6605                	lui	a2,0x1
     92a:	1f460613          	addi	a2,a2,500 # 11f4 <descriptor_list>
						for( ; e != e_end; e++ )
     92e:	04860593          	addi	a1,a2,72
							if( e->lIndexValue == (uint32_t)USBFS_IndexValue )
     932:	00062303          	lw	t1,0(a2)
     936:	04e31a63          	bne	t1,a4,98a <USB_IRQHandler+0x2de>
								ctx->pCtrlPayloadPtr = (uint8_t*)e->addr;
     93a:	4258                	lw	a4,4(a2)
						ctx->USBFS_SetupReqLen = len;
     93c:	05418513          	addi	a0,gp,84 # 200007fc <USBFSCTX>
								ctx->pCtrlPayloadPtr = (uint8_t*)e->addr;
     940:	c7d8                	sw	a4,12(a5)
								len = e->length;
     942:	00864703          	lbu	a4,8(a2)
						ctx->USBFS_SetupReqLen = len;
     946:	00d75363          	bge	a4,a3,94c <USB_IRQHandler+0x2a0>
     94a:	86ba                	mv	a3,a4
     94c:	00d51123          	sh	a3,2(a0)
				if( USBFS_SetupReqType & DEF_UEP_IN )
     950:	01889713          	slli	a4,a7,0x18
     954:	8761                	srai	a4,a4,0x18
     956:	16075063          	bgez	a4,ab6 <USB_IRQHandler+0x40a>
					len = ( USBFS_SetupReqLen > DEF_USBD_UEP0_SIZE )? DEF_USBD_UEP0_SIZE : USBFS_SetupReqLen;
     95a:	04000713          	li	a4,64
     95e:	01075463          	bge	a4,a6,966 <USB_IRQHandler+0x2ba>
     962:	04000813          	li	a6,64
					UEP_CTRL_LEN(0) = len;
     966:	40008737          	lui	a4,0x40008
     96a:	03070023          	sb	a6,32(a4) # 40008020 <_eusrstack+0x20005020>
					if (USBFS_SetupReqCode != USB_GET_DESCRIPTOR)
     96e:	4699                	li	a3,6
     970:	14de0063          	beq	t3,a3,ab0 <USB_IRQHandler+0x404>
						ctx->USBFS_SetupReqLen -= len;
     974:	0027d683          	lhu	a3,2(a5) # 40008002 <_eusrstack+0x20005002>
     978:	41068833          	sub	a6,a3,a6
     97c:	01079123          	sh	a6,2(a5)
						UEP_CTRL_TX(0) = USBFS_UEP_T_RES_ACK | USBFS_UEP_T_TOG;
     980:	04000793          	li	a5,64
     984:	02f70123          	sb	a5,34(a4)
     988:	b3e5                	j	770 <USB_IRQHandler+0xc4>
						for( ; e != e_end; e++ )
     98a:	0631                	addi	a2,a2,12
     98c:	fab613e3          	bne	a2,a1,932 <USB_IRQHandler+0x286>
     990:	bf9d                	j	906 <USB_IRQHandler+0x25a>
						ctx->USBFS_DevAddr = (uint8_t)( ctx->USBFS_IndexValue & 0xFF );
     992:	00e784a3          	sb	a4,9(a5)
						break;
     996:	bf6d                	j	950 <USB_IRQHandler+0x2a4>
						ctrl0buff[0] = ctx->USBFS_DevConfig;
     998:	0087c703          	lbu	a4,8(a5)
     99c:	00e78823          	sb	a4,16(a5)
						if( ctx->USBFS_SetupReqLen > 1 )
     9a0:	4705                	li	a4,1
     9a2:	fad777e3          	bgeu	a4,a3,950 <USB_IRQHandler+0x2a4>
							ctx->USBFS_SetupReqLen = 1;
     9a6:	00e79123          	sh	a4,2(a5)
     9aa:	b75d                	j	950 <USB_IRQHandler+0x2a4>
						ctx->USBFS_DevConfig = (uint8_t)( ctx->USBFS_IndexValue & 0xFF );
     9ac:	00e78423          	sb	a4,8(a5)
						ctx->USBFS_DevEnumStatus = 0x01;
     9b0:	4705                	li	a4,1
     9b2:	00e785a3          	sb	a4,11(a5)
							UEP_CTRL_TX(ep) &= ~USBFS_UEP_T_TOG;
     9b6:	40008737          	lui	a4,0x40008
     9ba:	02674683          	lbu	a3,38(a4) # 40008026 <_eusrstack+0x20005026>
     9be:	03f6f693          	andi	a3,a3,63
     9c2:	02d70323          	sb	a3,38(a4)
     9c6:	02a74683          	lbu	a3,42(a4)
     9ca:	03f6f693          	andi	a3,a3,63
     9ce:	02d70523          	sb	a3,42(a4)
						for(int ep = 1; ep < FUSB_CONFIG_EPS; ep++) {
     9d2:	bfbd                	j	950 <USB_IRQHandler+0x2a4>
						if( ( USBFS_SetupReqType & USB_REQ_RECIP_MASK ) == USB_REQ_RECIP_ENDP )
     9d4:	01f8f693          	andi	a3,a7,31
     9d8:	4509                	li	a0,2
     9da:	f2a696e3          	bne	a3,a0,906 <USB_IRQHandler+0x25a>
							if( (uint8_t)( USBFS_IndexValue & 0xFF ) == USB_REQ_FEAT_ENDP_HALT )
     9de:	0ff77713          	andi	a4,a4,255
     9e2:	f315                	bnez	a4,906 <USB_IRQHandler+0x25a>
								if( ep < FUSB_CONFIG_EPS ) 
     9e4:	f2b6c1e3          	blt	a3,a1,906 <USB_IRQHandler+0x25a>
									if( USBFS_SetupReqIndex & DEF_UEP_IN  && ctx->endpoint_mode[ep] == -1 ) UEP_CTRL_TX(ep) = USBFS_UEP_T_RES_NAK;
     9e8:	08067613          	andi	a2,a2,128
     9ec:	de09                	beqz	a2,906 <USB_IRQHandler+0x25a>
     9ee:	03458713          	addi	a4,a1,52
     9f2:	070a                	slli	a4,a4,0x2
     9f4:	973e                	add	a4,a4,a5
     9f6:	4310                	lw	a2,0(a4)
     9f8:	577d                	li	a4,-1
     9fa:	f0e616e3          	bne	a2,a4,906 <USB_IRQHandler+0x25a>
     9fe:	00259713          	slli	a4,a1,0x2
     a02:	400085b7          	lui	a1,0x40008
     a06:	95ba                	add	a1,a1,a4
     a08:	02d58123          	sb	a3,34(a1) # 40008022 <_eusrstack+0x20005022>
     a0c:	b791                	j	950 <USB_IRQHandler+0x2a4>
						else if( ( USBFS_SetupReqType & USB_REQ_RECIP_MASK ) == USB_REQ_RECIP_ENDP )
     a0e:	01f8f693          	andi	a3,a7,31
     a12:	4509                	li	a0,2
     a14:	eea699e3          	bne	a3,a0,906 <USB_IRQHandler+0x25a>
							if( (uint8_t)( USBFS_IndexValue & 0xFF ) == USB_REQ_FEAT_ENDP_HALT )
     a18:	0ff77713          	andi	a4,a4,255
     a1c:	ee0715e3          	bnez	a4,906 <USB_IRQHandler+0x25a>
								if( ep < FUSB_CONFIG_EPS )
     a20:	f2b6c8e3          	blt	a3,a1,950 <USB_IRQHandler+0x2a4>
									if( (USBFS_SetupReqIndex & DEF_UEP_IN) && ctx->endpoint_mode[ep] == -1 )UEP_CTRL_TX(ep) = ( UEP_CTRL_TX(ep) & ~USBFS_UEP_T_RES_MASK ) | USBFS_UEP_T_RES_STALL;
     a24:	08067613          	andi	a2,a2,128
     a28:	ec060fe3          	beqz	a2,906 <USB_IRQHandler+0x25a>
     a2c:	03458713          	addi	a4,a1,52
     a30:	070a                	slli	a4,a4,0x2
     a32:	973e                	add	a4,a4,a5
     a34:	4314                	lw	a3,0(a4)
     a36:	577d                	li	a4,-1
     a38:	ece697e3          	bne	a3,a4,906 <USB_IRQHandler+0x25a>
     a3c:	40008737          	lui	a4,0x40008
     a40:	02270713          	addi	a4,a4,34 # 40008022 <_eusrstack+0x20005022>
     a44:	058a                	slli	a1,a1,0x2
     a46:	95ba                	add	a1,a1,a4
     a48:	0005c703          	lbu	a4,0(a1)
     a4c:	00376713          	ori	a4,a4,3
     a50:	00e58023          	sb	a4,0(a1)
     a54:	bdf5                	j	950 <USB_IRQHandler+0x2a4>
						ctrl0buff[0] = 0x00;
     a56:	00078823          	sb	zero,16(a5)
						if( USBFS_SetupReqLen > 1 ) USBFS_SetupReqLen = 1;
     a5a:	eed05be3          	blez	a3,950 <USB_IRQHandler+0x2a4>
     a5e:	4805                	li	a6,1
     a60:	bdc5                	j	950 <USB_IRQHandler+0x2a4>
						ctrl0buff[0] = 0x00;
     a62:	00079823          	sh	zero,16(a5)
						if( ( USBFS_SetupReqType & USB_REQ_RECIP_MASK ) == USB_REQ_RECIP_DEVICE )
     a66:	01f8f713          	andi	a4,a7,31
     a6a:	cf15                	beqz	a4,aa6 <USB_IRQHandler+0x3fa>
						else if( ( USBFS_SetupReqType & USB_REQ_RECIP_MASK ) == USB_REQ_RECIP_ENDP )
     a6c:	4509                	li	a0,2
     a6e:	e8a71ce3          	bne	a4,a0,906 <USB_IRQHandler+0x25a>
							if( ep < FUSB_CONFIG_EPS )
     a72:	e8b74ae3          	blt	a4,a1,906 <USB_IRQHandler+0x25a>
								if( USBFS_SetupReqIndex & DEF_UEP_IN && ctx->endpoint_mode[ep] == -1 ) ctrl0buff[0] = ( UEP_CTRL_TX(ep) & USBFS_UEP_T_RES_MASK ) == USBFS_UEP_T_RES_STALL;
     a76:	08067613          	andi	a2,a2,128
     a7a:	e80606e3          	beqz	a2,906 <USB_IRQHandler+0x25a>
     a7e:	03458713          	addi	a4,a1,52
     a82:	070a                	slli	a4,a4,0x2
     a84:	973e                	add	a4,a4,a5
     a86:	4310                	lw	a2,0(a4)
     a88:	577d                	li	a4,-1
     a8a:	e6e61ee3          	bne	a2,a4,906 <USB_IRQHandler+0x25a>
     a8e:	058a                	slli	a1,a1,0x2
     a90:	40008737          	lui	a4,0x40008
     a94:	95ba                	add	a1,a1,a4
     a96:	0225c603          	lbu	a2,34(a1)
     a9a:	8a0d                	andi	a2,a2,3
     a9c:	1675                	addi	a2,a2,-3
     a9e:	00163613          	seqz	a2,a2
     aa2:	00c78823          	sb	a2,16(a5)
						if( USBFS_SetupReqLen > 2 )
     aa6:	4709                	li	a4,2
     aa8:	ead754e3          	bge	a4,a3,950 <USB_IRQHandler+0x2a4>
     aac:	4809                	li	a6,2
     aae:	b54d                	j	950 <USB_IRQHandler+0x2a4>
						UEP_CTRL_TX(0) = USBFS_UEP_T_RES_ACK;
     ab0:	02070123          	sb	zero,34(a4) # 40008022 <_eusrstack+0x20005022>
     ab4:	b975                	j	770 <USB_IRQHandler+0xc4>
						UEP_CTRL_LEN(0) = 0;
     ab6:	400087b7          	lui	a5,0x40008
						UEP_CTRL_TX(0) = CHECK_USBFS_UEP_T_AUTO_TOG | USBFS_UEP_R_RES_ACK | USBFS_UEP_R_TOG;
     aba:	f9000713          	li	a4,-112
					if( USBFS_SetupReqLen == 0 )
     abe:	d4081ae3          	bnez	a6,812 <USB_IRQHandler+0x166>
						UEP_CTRL_LEN(0) = 0;
     ac2:	02078023          	sb	zero,32(a5) # 40008020 <_eusrstack+0x20005020>
						UEP_CTRL_TX(0) = USBFS_UEP_T_RES_ACK | USBFS_UEP_T_TOG;
     ac6:	04000713          	li	a4,64
     aca:	b3a1                	j	812 <USB_IRQHandler+0x166>
	else if( intfgst & CRB_UIF_BUS_RST )
     acc:	0017f713          	andi	a4,a5,1
     ad0:	cb11                	beqz	a4,ae4 <USB_IRQHandler+0x438>
		ctx->USBFS_DevConfig = 0;
     ad2:	0401ae23          	sw	zero,92(gp) # 20000804 <USBFSCTX+0x8>
		USBFS->DEV_ADDR = 0;
     ad6:	000401a3          	sb	zero,3(s0)
		USBFS_InternalFinishSetup();
     ada:	3aa5                	jal	452 <USBFS_InternalFinishSetup>
		USBFS->INT_FG = CRB_UIF_BUS_RST;
     adc:	4785                	li	a5,1
			USBFS->INT_FG = intfgst & 0xff;
     ade:	00f40323          	sb	a5,6(s0)
     ae2:	b961                	j	77a <USB_IRQHandler+0xce>
	else if( intfgst & CRB_UIF_SUSPEND )
     ae4:	0047f713          	andi	a4,a5,4
			USBFS->INT_FG = intfgst & 0xff;
     ae8:	0ff7f793          	andi	a5,a5,255
	else if( intfgst & CRB_UIF_SUSPEND )
     aec:	db6d                	beqz	a4,ade <USB_IRQHandler+0x432>
		USBFS->INT_FG = USBFS_UMS_SUSPEND;
     aee:	4791                	li	a5,4
     af0:	00f40323          	sb	a5,6(s0)
		Delay_Us(10);
     af4:	04600513          	li	a0,70
     af8:	3291                	jal	43c <DelaySysTick>
		if( USBFS->MIS_ST & USBFS_UMS_SUSPEND )
     afa:	00544703          	lbu	a4,5(s0)
     afe:	05418793          	addi	a5,gp,84 # 200007fc <USBFSCTX>
     b02:	8b11                	andi	a4,a4,4
     b04:	cb01                	beqz	a4,b14 <USB_IRQHandler+0x468>
			ctx->USBFS_DevSleepStatus |= 0x02;
     b06:	00a7c703          	lbu	a4,10(a5)
     b0a:	00276713          	ori	a4,a4,2
			ctx->USBFS_DevSleepStatus &= ~0x02;
     b0e:	00e78523          	sb	a4,10(a5)
     b12:	b1a5                	j	77a <USB_IRQHandler+0xce>
     b14:	00a7c703          	lbu	a4,10(a5)
     b18:	9b75                	andi	a4,a4,-3
     b1a:	bfd5                	j	b0e <USB_IRQHandler+0x462>

00000b1c <memset>:
WEAK void *memset(void *dest, int c, size_t n) { unsigned char *s = dest; for (; n; n--, s++) *s = c; return dest; }
     b1c:	962a                	add	a2,a2,a0
     b1e:	87aa                	mv	a5,a0
     b20:	00c79363          	bne	a5,a2,b26 <memset+0xa>
     b24:	8082                	ret
     b26:	00b78023          	sb	a1,0(a5)
     b2a:	0785                	addi	a5,a5,1
     b2c:	bfd5                	j	b20 <memset+0x4>

00000b2e <memcpy>:
{
     b2e:	4781                	li	a5,0
	for (; n; n--) *d++ = *s++;
     b30:	00f61363          	bne	a2,a5,b36 <memcpy+0x8>
}
     b34:	8082                	ret
	for (; n; n--) *d++ = *s++;
     b36:	00f58733          	add	a4,a1,a5
     b3a:	00074683          	lbu	a3,0(a4)
     b3e:	00f50733          	add	a4,a0,a5
     b42:	0785                	addi	a5,a5,1
     b44:	00d70023          	sb	a3,0(a4)
     b48:	b7e5                	j	b30 <memcpy+0x2>

00000b4a <SystemInit>:
	}
	else
	{
		if((sc & RB_CLK_SYS_MOD) == 0x40) // PLL div
		{
			SYS_SAFE_ACCESS(
     b4a:	400017b7          	lui	a5,0x40001
     b4e:	05700593          	li	a1,87
     b52:	04b78023          	sb	a1,64(a5) # 40001040 <_eusrstack+0x1fffe040>
     b56:	fa800613          	li	a2,-88
     b5a:	04c78023          	sb	a2,64(a5)
     b5e:	0001                	nop
     b60:	0001                	nop
     b62:	00a7c703          	lbu	a4,10(a5)
     b66:	400026b7          	lui	a3,0x40002
     b6a:	0ff77713          	andi	a4,a4,255
     b6e:	01076713          	ori	a4,a4,16
     b72:	00e78523          	sb	a4,10(a5)
     b76:	4705                	li	a4,1
     b78:	80e683a3          	sb	a4,-2041(a3) # 40001807 <_eusrstack+0x1fffe807>
     b7c:	8056c703          	lbu	a4,-2043(a3)
     b80:	0ff77713          	andi	a4,a4,255
     b84:	01076713          	ori	a4,a4,16
     b88:	80e682a3          	sb	a4,-2043(a3)
     b8c:	04078023          	sb	zero,64(a5)
     b90:	0001                	nop
     b92:	0001                	nop
		{
			SYS_SAFE_ACCESS(
				R8_FLASH_CFG = (sc & 0x1F) ? 0x02 : 0x07;
			);
		}
		SYS_SAFE_ACCESS(
     b94:	04b78023          	sb	a1,64(a5)
     b98:	04c78023          	sb	a2,64(a5)
     b9c:	0001                	nop
     b9e:	0001                	nop
     ba0:	04a00713          	li	a4,74
     ba4:	00e78423          	sb	a4,8(a5)
     ba8:	04078023          	sb	zero,64(a5)
     bac:	0001                	nop
     bae:	0001                	nop
	SetupDebugPrintf();
#endif
#if defined(FUNCONF_SUPPORT_CONSTRUCTORS) && FUNCONF_SUPPORT_CONSTRUCTORS
	CallConstructors();
#endif
}
     bb0:	8082                	ret

00000bb2 <LLE_IRQHandler>:
void LLE_IRQHandler() {
     bb2:	715d                	addi	sp,sp,-80
     bb4:	dc26                	sw	s1,56(sp)
		rx_flag = LL->STATUS & 1;
     bb6:	4000c4b7          	lui	s1,0x4000c
void LLE_IRQHandler() {
     bba:	de22                	sw	s0,60(sp)
		rx_flag = LL->STATUS & 1;
     bbc:	20048413          	addi	s0,s1,512 # 4000c200 <_eusrstack+0x20009200>
void LLE_IRQHandler() {
     bc0:	d23a                	sw	a4,36(sp)
     bc2:	d03e                	sw	a5,32(sp)
     bc4:	ca4a                	sw	s2,20(sp)
		rx_flag = LL->STATUS & 1;
     bc6:	00842903          	lw	s2,8(s0)
		LL->STATUS &= LL->INT_EN;
     bca:	4458                	lw	a4,12(s0)
     bcc:	441c                	lw	a5,8(s0)
void LLE_IRQHandler() {
     bce:	da2a                	sw	a0,52(sp)
     bd0:	c686                	sw	ra,76(sp)
     bd2:	c496                	sw	t0,72(sp)
     bd4:	c29a                	sw	t1,68(sp)
     bd6:	c09e                	sw	t2,64(sp)
     bd8:	d82e                	sw	a1,48(sp)
     bda:	d632                	sw	a2,44(sp)
     bdc:	d436                	sw	a3,40(sp)
     bde:	ce42                	sw	a6,28(sp)
     be0:	cc46                	sw	a7,24(sp)
     be2:	c872                	sw	t3,16(sp)
     be4:	c676                	sw	t4,12(sp)
     be6:	c47a                	sw	t5,8(sp)
     be8:	c27e                	sw	t6,4(sp)
		LL->STATUS &= LL->INT_EN;
     bea:	8ff9                	and	a5,a5,a4
     bec:	c41c                	sw	a5,8(s0)
		BB->CTRL_TX = (BB->CTRL_TX & 0xfffffffc) | 1;
     bee:	10048713          	addi	a4,s1,256
     bf2:	5b5c                	lw	a5,52(a4)
	DevSetMode(0);
     bf4:	4501                	li	a0,0
		rx_flag = LL->STATUS & 1;
     bf6:	00197913          	andi	s2,s2,1
		BB->CTRL_TX = (BB->CTRL_TX & 0xfffffffc) | 1;
     bfa:	9bf1                	andi	a5,a5,-4
     bfc:	0017e793          	ori	a5,a5,1
     c00:	db5c                	sw	a5,52(a4)
	DevSetMode(0);
     c02:	3055                	jal	4a6 <DevSetMode>
	LL->CTRL_MOD &= CTRL_MOD_RFSTOP;
     c04:	483c                	lw	a5,80(s0)
     c06:	8ff7f793          	andi	a5,a5,-1793
     c0a:	c83c                	sw	a5,80(s0)
	LL->LL0 |= 0x08;
     c0c:	2004a783          	lw	a5,512(s1)
     c10:	0087e793          	ori	a5,a5,8
     c14:	20f4a023          	sw	a5,512(s1)
	if( rx_flag )
     c18:	00090563          	beqz	s2,c22 <LLE_IRQHandler+0x70>
		rx_ready = 1;
     c1c:	4705                	li	a4,1
     c1e:	c0e1a423          	sw	a4,-1016(gp) # 200003b0 <rx_ready>
}
     c22:	5472                	lw	s0,60(sp)
     c24:	40b6                	lw	ra,76(sp)
     c26:	42a6                	lw	t0,72(sp)
     c28:	4316                	lw	t1,68(sp)
     c2a:	4386                	lw	t2,64(sp)
     c2c:	54e2                	lw	s1,56(sp)
     c2e:	5552                	lw	a0,52(sp)
     c30:	55c2                	lw	a1,48(sp)
     c32:	5632                	lw	a2,44(sp)
     c34:	56a2                	lw	a3,40(sp)
     c36:	5712                	lw	a4,36(sp)
     c38:	5782                	lw	a5,32(sp)
     c3a:	4872                	lw	a6,28(sp)
     c3c:	48e2                	lw	a7,24(sp)
     c3e:	4952                	lw	s2,20(sp)
     c40:	4e42                	lw	t3,16(sp)
     c42:	4eb2                	lw	t4,12(sp)
     c44:	4f22                	lw	t5,8(sp)
     c46:	4f92                	lw	t6,4(sp)
     c48:	6161                	addi	sp,sp,80
     c4a:	30200073          	mret

00000c4e <main>:

int main() {
     c4e:	7159                	addi	sp,sp,-112
     c50:	d686                	sw	ra,108(sp)
     c52:	d4a2                	sw	s0,104(sp)
     c54:	d2a6                	sw	s1,100(sp)
     c56:	d0ca                	sw	s2,96(sp)
     c58:	cece                	sw	s3,92(sp)
     c5a:	ccd2                	sw	s4,88(sp)
     c5c:	cad6                	sw	s5,84(sp)
     c5e:	c8da                	sw	s6,80(sp)
     c60:	c6de                	sw	s7,76(sp)
  SystemInit();
     c62:	35e5                	jal	b4a <SystemInit>
		*(&R32_PA_PD_DRV + OFFSET_FOR_GPIOB(pin)) |= (pin & ~PB);
		*(&R32_PA_PU + OFFSET_FOR_GPIOB(pin))     &= ~(pin & ~PB);
		*(&R32_PA_DIR + OFFSET_FOR_GPIOB(pin))    &= ~(pin & ~PB);
		break;
	case GPIO_ModeOut_PP_5mA:
		*(&R32_PA_PD_DRV + OFFSET_FOR_GPIOB(pin)) &= ~(pin & ~PB);
     c64:	400017b7          	lui	a5,0x40001
     c68:	08078793          	addi	a5,a5,128 # 40001080 <_eusrstack+0x1fffe080>
     c6c:	5bd8                	lw	a4,52(a5)
	LL->LL5 = 0x8c;
     c6e:	4000c6b7          	lui	a3,0x4000c
	LL->LL7 = 0x76;
     c72:	07600613          	li	a2,118
     c76:	dff77713          	andi	a4,a4,-513
     c7a:	dbd8                	sw	a4,52(a5)
		*(&R32_PA_DIR + OFFSET_FOR_GPIOB(pin))    |= (pin & ~PB);
     c7c:	5398                	lw	a4,32(a5)
	RF->RF10 = 0x480;
     c7e:	4000d437          	lui	s0,0x4000d
	BB->BB14 = 0x2020c;
     c82:	000204b7          	lui	s1,0x20
     c86:	20076713          	ori	a4,a4,512
     c8a:	d398                	sw	a4,32(a5)
  funDigitalWrite(LED, FUN_HIGH); // Start OFF (assuming Active Low)
     c8c:	20000713          	li	a4,512
     c90:	df98                	sw	a4,56(a5)
	LL->LL5 = 0x8c;
     c92:	20068793          	addi	a5,a3,512 # 4000c200 <_eusrstack+0x20009200>
     c96:	08c00713          	li	a4,140
     c9a:	cbd8                	sw	a4,20(a5)
	LL->LL7 = 0x76;
     c9c:	cfd0                	sw	a2,28(a5)
	LL->LL9 = 0x8c;
     c9e:	d3d8                	sw	a4,36(a5)
	LL->LL13 = 0x8c;
     ca0:	dbd8                	sw	a4,52(a5)
	LL->LL17 = 0x8c;
     ca2:	c3f8                	sw	a4,68(a5)
	LL->LL19 = 0x76;
     ca4:	c7f0                	sw	a2,76(a5)
	LL->LL11 = 0x6c;
     ca6:	06c00713          	li	a4,108
     caa:	d7d8                	sw	a4,44(a5)
	LL->LL15 = 0x6c;
     cac:	dfd8                	sw	a4,60(a5)
	LL->LL1 = 0x78;
     cae:	07800713          	li	a4,120
     cb2:	c3d8                	sw	a4,4(a5)
	LL->INT_EN = 0x16000f;
     cb4:	00160737          	lui	a4,0x160
	LL->LL21 = 0;
     cb8:	0407aa23          	sw	zero,84(a5)
	LL->INT_EN = 0x16000f;
     cbc:	073d                	addi	a4,a4,15
     cbe:	c7d8                	sw	a4,12(a5)
	LL->RXBUF = (uint32_t)LLE_BUF;
     cc0:	c1418713          	addi	a4,gp,-1004 # 200003bc <LLE_BUF>
     cc4:	dff8                	sw	a4,124(a5)
	LL->STATUS = 0xffffffff;
     cc6:	577d                	li	a4,-1
     cc8:	c798                	sw	a4,8(a5)
	RF->RF10 = 0x480;
     cca:	48000793          	li	a5,1152
     cce:	d41c                	sw	a5,40(s0)
	RF->RF12 &= 0xfff9ffff;
     cd0:	581c                	lw	a5,48(s0)
     cd2:	fffa0737          	lui	a4,0xfffa0
     cd6:	177d                	addi	a4,a4,-1
     cd8:	8ff9                	and	a5,a5,a4
     cda:	d81c                	sw	a5,48(s0)
	RF->RF12 |= 0x70000000;
     cdc:	581c                	lw	a5,48(s0)
     cde:	70000737          	lui	a4,0x70000
	RF->RF15 = (RF->RF15 & 0xf8ffffff) | 0x2000000;
     ce2:	02000637          	lui	a2,0x2000
	RF->RF12 |= 0x70000000;
     ce6:	8fd9                	or	a5,a5,a4
     ce8:	d81c                	sw	a5,48(s0)
	RF->RF15 = (RF->RF15 & 0xf8ffffff) | 0x2000000;
     cea:	5c58                	lw	a4,60(s0)
     cec:	f90007b7          	lui	a5,0xf9000
     cf0:	17fd                	addi	a5,a5,-1
     cf2:	8f7d                	and	a4,a4,a5
     cf4:	8f51                	or	a4,a4,a2
     cf6:	dc58                	sw	a4,60(s0)
	RF->RF15 = (RF->RF15 & 0x1fffffff) | 0x40000000;
     cf8:	5c5c                	lw	a5,60(s0)
     cfa:	40000737          	lui	a4,0x40000
	BB->CTRL_TX = (BB->CTRL_TX & 0x1ffffff) | (TxPower | 0x40) << 0x19;
     cfe:	167d                	addi	a2,a2,-1
	RF->RF15 = (RF->RF15 & 0x1fffffff) | 0x40000000;
     d00:	078e                	slli	a5,a5,0x3
     d02:	838d                	srli	a5,a5,0x3
     d04:	8fd9                	or	a5,a5,a4
     d06:	dc5c                	sw	a5,60(s0)
	RF->RF18 &= 0xfff8ffff;
     d08:	443c                	lw	a5,72(s0)
     d0a:	fff90737          	lui	a4,0xfff90
     d0e:	177d                	addi	a4,a4,-1
     d10:	8ff9                	and	a5,a5,a4
     d12:	c43c                	sw	a5,72(s0)
	RF->RF20 = (RF->RF20 & 0xfffff8ff) | 0x300;
     d14:	4838                	lw	a4,80(s0)
	NVIC->VTFIDR[3] = 0x14;
     d16:	49d1                	li	s3,20
	DevSetMode(DEVSETMODE_TUNE);
     d18:	55800513          	li	a0,1368
	RF->RF20 = (RF->RF20 & 0xfffff8ff) | 0x300;
     d1c:	8ff77713          	andi	a4,a4,-1793
     d20:	30076713          	ori	a4,a4,768
     d24:	c838                	sw	a4,80(s0)
	RF->RF23 |= 0x70000;
     d26:	4c7c                	lw	a5,92(s0)
     d28:	00070737          	lui	a4,0x70
     d2c:	8fd9                	or	a5,a5,a4
     d2e:	cc7c                	sw	a5,92(s0)
	RF->RF23 |= 0x700000;
     d30:	4c7c                	lw	a5,92(s0)
     d32:	00700737          	lui	a4,0x700
     d36:	8fd9                	or	a5,a5,a4
     d38:	cc7c                	sw	a5,92(s0)
	BB->BB14 = 0x2020c;
     d3a:	10068713          	addi	a4,a3,256
     d3e:	20c48793          	addi	a5,s1,524 # 2020c <drv8835controller.c.16e472a3+0x1de94>
     d42:	df1c                	sw	a5,56(a4)
	BB->BB15 = 0x50;
     d44:	05000793          	li	a5,80
     d48:	df5c                	sw	a5,60(a4)
	BB->CTRL_TX = (BB->CTRL_TX & 0x1ffffff) | (TxPower | 0x40) << 0x19;
     d4a:	5b5c                	lw	a5,52(a4)
     d4c:	8ff1                	and	a5,a5,a2
     d4e:	a4000637          	lui	a2,0xa4000
     d52:	8fd1                	or	a5,a5,a2
     d54:	db5c                	sw	a5,52(a4)
	BB->CTRL_CFG &= 0xfffffcff;
     d56:	1006a703          	lw	a4,256(a3)
	NVIC->VTFIDR[3] = 0x14;
     d5a:	e000e7b7          	lui	a5,0xe000e
	BB->CTRL_CFG &= 0xfffffcff;
     d5e:	cff77713          	andi	a4,a4,-769
     d62:	10e6a023          	sw	a4,256(a3)
	NVIC->VTFIDR[3] = 0x14;
     d66:	053789a3          	sb	s3,83(a5) # e000e053 <_eusrstack+0xc000b053>
	DevSetMode(DEVSETMODE_TUNE);
     d6a:	f3cff0ef          	jal	ra,4a6 <DevSetMode>
	RF->RF1 &= 0xfffffeff;
     d6e:	4058                	lw	a4,4(s0)
	RF->RF10 &= 0xffffefff;
     d70:	76fd                	lui	a3,0xfffff
     d72:	16fd                	addi	a3,a3,-1
	RF->RF1 &= 0xfffffeff;
     d74:	eff77713          	andi	a4,a4,-257
     d78:	c058                	sw	a4,4(s0)
	RF->RF10 &= 0xffffefff;
     d7a:	5418                	lw	a4,40(s0)
	uint32_t tune2401 = RFEND_TXCTune(37);
     d7c:	02500513          	li	a0,37
	RF->RF10 &= 0xffffefff;
     d80:	8f75                	and	a4,a4,a3
     d82:	d418                	sw	a4,40(s0)
	RF->RF11 &= 0xffffffef;
     d84:	5458                	lw	a4,44(s0)
     d86:	9b3d                	andi	a4,a4,-17
     d88:	d458                	sw	a4,44(s0)
	RF->RF2 |= 0x20000;
     d8a:	441c                	lw	a5,8(s0)
     d8c:	8fc5                	or	a5,a5,s1
     d8e:	c41c                	sw	a5,8(s0)
	RF->RF1 |= 0x10;
     d90:	405c                	lw	a5,4(s0)
     d92:	0107e793          	ori	a5,a5,16
     d96:	c05c                	sw	a5,4(s0)
	uint32_t tune2401 = RFEND_TXCTune(37);
     d98:	f60ff0ef          	jal	ra,4f8 <RFEND_TXCTune>
	uint8_t nGA2401 = (uint8_t)(tune2401 >> 24) & 0x7f;
     d9c:	01855713          	srli	a4,a0,0x18
	uint32_t tune2401 = RFEND_TXCTune(37);
     da0:	842a                	mv	s0,a0
	uint32_t tune2480 = RFEND_TXCTune(39);
     da2:	02700513          	li	a0,39
	uint8_t nGA2401 = (uint8_t)(tune2401 >> 24) & 0x7f;
     da6:	07f77b13          	andi	s6,a4,127
	uint32_t tune2480 = RFEND_TXCTune(39);
     daa:	f4eff0ef          	jal	ra,4f8 <RFEND_TXCTune>
	uint8_t nGA2480 = (uint8_t)(tune2480 >> 24) & 0x7f;
     dae:	01855913          	srli	s2,a0,0x18
	uint32_t tune2480 = RFEND_TXCTune(39);
     db2:	8a2a                	mv	s4,a0
	uint32_t tune2440 = RFEND_TXCTune(18);
     db4:	4549                	li	a0,18
     db6:	f42ff0ef          	jal	ra,4f8 <RFEND_TXCTune>
	uint8_t nCO2440 = (uint8_t)(tune2440 & 0x3f);
     dba:	03f57a93          	andi	s5,a0,63
	uint8_t txctune_co[sizeof(RF->TXCTUNE_CO)] = {0};
     dbe:	02400613          	li	a2,36
     dc2:	4581                	li	a1,0
	uint8_t nGA2480 = (uint8_t)(tune2480 >> 24) & 0x7f;
     dc4:	07f97b93          	andi	s7,s2,127
	uint32_t tune2440 = RFEND_TXCTune(18);
     dc8:	84aa                	mv	s1,a0
	uint8_t nGA2440 = (uint8_t)(tune2440 >> 24) & 0x7f;
     dca:	01855913          	srli	s2,a0,0x18
	uint32_t dCO0140 = nCO2401 - nCO2440;
     dce:	03f47413          	andi	s0,s0,63
	uint8_t txctune_co[sizeof(RF->TXCTUNE_CO)] = {0};
     dd2:	0868                	addi	a0,sp,28
	uint32_t dCO0140 = nCO2401 - nCO2440;
     dd4:	41540433          	sub	s0,s0,s5
	uint8_t txctune_co[sizeof(RF->TXCTUNE_CO)] = {0};
     dd8:	cc02                	sw	zero,24(sp)
     dda:	3389                	jal	b1c <memset>
     ddc:	03340733          	mul	a4,s0,s3
	uint32_t dCO4080 = nCO2440 - nCO2480;
     de0:	03fa7a13          	andi	s4,s4,63
		txctune_co[f] = tune | (tune << 4);
     de4:	6605                	lui	a2,0x1
	uint8_t nGA2440 = (uint8_t)(tune2440 >> 24) & 0x7f;
     de6:	07f97913          	andi	s2,s2,127
	uint32_t dCO4080 = nCO2440 - nCO2480;
     dea:	414a8a33          	sub	s4,s5,s4
	for(int f = 0; f < int_points; f++) {
     dee:	4781                	li	a5,0
		tune = (dCO0140 * (int_points -f)) / int_points;
     df0:	45d1                	li	a1,20
		txctune_co[f] = tune | (tune << 4);
     df2:	1641                	addi	a2,a2,-16
     df4:	0834                	addi	a3,sp,24
     df6:	00f68833          	add	a6,a3,a5
		tune = (dCO0140 * (int_points -f)) / int_points;
     dfa:	02b75533          	divu	a0,a4,a1
	for(int f = 0; f < int_points; f++) {
     dfe:	0785                	addi	a5,a5,1
     e00:	8f01                	sub	a4,a4,s0
		txctune_co[f] = tune | (tune << 4);
     e02:	00451693          	slli	a3,a0,0x4
     e06:	8ef1                	and	a3,a3,a2
     e08:	8ec9                	or	a3,a3,a0
     e0a:	00d80023          	sb	a3,0(a6)
	for(int f = 0; f < int_points; f++) {
     e0e:	feb793e3          	bne	a5,a1,df4 <main+0x1a6>
		txctune_co[f] = tune | (tune << 4);
     e12:	6605                	lui	a2,0x1
	for(int f = 0; f < int_points; f++) {
     e14:	4681                	li	a3,0
		tune = (dCO4080 * (f -int_points)) / int_points;
     e16:	48d1                	li	a7,20
		txctune_co[f] = tune | (tune << 4);
     e18:	1641                	addi	a2,a2,-16
	for(int f = int_points; f < sizeof(RF->TXCTUNE_CO); f++) {
     e1a:	02800513          	li	a0,40
		tune = (dCO4080 * (f -int_points)) / int_points;
     e1e:	0316d5b3          	divu	a1,a3,a7
		txctune_co[f] = tune | (tune << 4);
     e22:	0838                	addi	a4,sp,24
     e24:	00f70833          	add	a6,a4,a5
	for(int f = int_points; f < sizeof(RF->TXCTUNE_CO); f++) {
     e28:	0785                	addi	a5,a5,1
     e2a:	96d2                	add	a3,a3,s4
		txctune_co[f] = tune | (tune << 4);
     e2c:	00459713          	slli	a4,a1,0x4
     e30:	8f71                	and	a4,a4,a2
     e32:	8f4d                	or	a4,a4,a1
     e34:	00e80023          	sb	a4,0(a6)
	for(int f = int_points; f < sizeof(RF->TXCTUNE_CO); f++) {
     e38:	fea793e3          	bne	a5,a0,e1e <main+0x1d0>
     e3c:	0834                	addi	a3,sp,24
	for(int i = 0; i < sizeof(txctune_co) /4; i++) {
     e3e:	4701                	li	a4,0
		RF->TXCTUNE_CO[i] = ((uint32_t*)txctune_co)[i];
     e40:	4000d537          	lui	a0,0x4000d
	for(int i = 0; i < sizeof(txctune_co) /4; i++) {
     e44:	4629                	li	a2,10
		RF->TXCTUNE_CO[i] = ((uint32_t*)txctune_co)[i];
     e46:	428c                	lw	a1,0(a3)
     e48:	02870793          	addi	a5,a4,40 # 700028 <drv8835controller.c.16e472a3+0x6fdcb0>
     e4c:	078a                	slli	a5,a5,0x2
     e4e:	97aa                	add	a5,a5,a0
     e50:	c38c                	sw	a1,0(a5)
	for(int i = 0; i < sizeof(txctune_co) /4; i++) {
     e52:	0705                	addi	a4,a4,1
     e54:	0691                	addi	a3,a3,4
     e56:	fec718e3          	bne	a4,a2,e46 <main+0x1f8>
	uint32_t dGA0140 = nGA2401 - nGA2440;
     e5a:	412b0733          	sub	a4,s6,s2
	uint32_t dGA4080 = nGA2440 - nGA2480;
     e5e:	4695                	li	a3,5
     e60:	02d706b3          	mul	a3,a4,a3
		txctune_ga[f] = tune | (tune << 4);
     e64:	6585                	lui	a1,0x1
	uint32_t dGA4080 = nGA2440 - nGA2480;
     e66:	41790933          	sub	s2,s2,s7
	uint8_t txctune_ga[sizeof(RF->TXCTUNE_GA)] = {0};
     e6a:	c602                	sw	zero,12(sp)
     e6c:	c802                	sw	zero,16(sp)
     e6e:	ca02                	sw	zero,20(sp)
	for(int f = 1; f < int_points; f++) {
     e70:	4785                	li	a5,1
		tune = (dGA0140 * (int_points -f)) / int_points;
     e72:	4519                	li	a0,6
		txctune_ga[f] = tune | (tune << 4);
     e74:	15c1                	addi	a1,a1,-16
     e76:	0070                	addi	a2,sp,12
		tune = (dGA0140 * (int_points -f)) / int_points;
     e78:	02a6d833          	divu	a6,a3,a0
		txctune_ga[f] = tune | (tune << 4);
     e7c:	00f608b3          	add	a7,a2,a5
	for(int f = 1; f < int_points; f++) {
     e80:	0785                	addi	a5,a5,1
     e82:	8e99                	sub	a3,a3,a4
		txctune_ga[f] = tune | (tune << 4);
     e84:	00481613          	slli	a2,a6,0x4
     e88:	8e6d                	and	a2,a2,a1
     e8a:	01066633          	or	a2,a2,a6
     e8e:	00c88023          	sb	a2,0(a7)
	for(int f = 1; f < int_points; f++) {
     e92:	fea792e3          	bne	a5,a0,e76 <main+0x228>
		txctune_ga[f] = tune | (tune << 4);
     e96:	6605                	lui	a2,0x1
	for(int f = 1; f < int_points; f++) {
     e98:	4701                	li	a4,0
		tune = (dGA4080 * (f -int_points)) / int_points;
     e9a:	4319                	li	t1,6
		txctune_ga[f] = tune | (tune << 4);
     e9c:	ff060893          	addi	a7,a2,-16 # ff0 <main+0x3a2>
	for(int f = int_points; f < sizeof(RF->TXCTUNE_GA) -1; f++) {
     ea0:	452d                	li	a0,11
		tune = (dGA4080 * (f -int_points)) / int_points;
     ea2:	026755b3          	divu	a1,a4,t1
		txctune_ga[f] = tune | (tune << 4);
     ea6:	0074                	addi	a3,sp,12
     ea8:	00f68833          	add	a6,a3,a5
	for(int f = int_points; f < sizeof(RF->TXCTUNE_GA) -1; f++) {
     eac:	0785                	addi	a5,a5,1
     eae:	974a                	add	a4,a4,s2
		txctune_ga[f] = tune | (tune << 4);
     eb0:	00459693          	slli	a3,a1,0x4
     eb4:	0116f6b3          	and	a3,a3,a7
     eb8:	8ecd                	or	a3,a3,a1
     eba:	00d80023          	sb	a3,0(a6)
	for(int f = int_points; f < sizeof(RF->TXCTUNE_GA) -1; f++) {
     ebe:	fea792e3          	bne	a5,a0,ea2 <main+0x254>
		RF->TXCTUNE_GA[i] = ((uint32_t*)txctune_ga)[i];
     ec2:	46b2                	lw	a3,12(sp)
     ec4:	4000d7b7          	lui	a5,0x4000d
     ec8:	08078713          	addi	a4,a5,128 # 4000d080 <_eusrstack+0x2000a080>
     ecc:	c734                	sw	a3,72(a4)
     ece:	46c2                	lw	a3,16(sp)
	RF->TXTUNE_CTRL = (RF->TXTUNE_CTRL & 0x80ffffff) | (tune2440 & 0x7f000000);
     ed0:	7f000537          	lui	a0,0x7f000
     ed4:	8ce9                	and	s1,s1,a0
		RF->TXCTUNE_GA[i] = ((uint32_t*)txctune_ga)[i];
     ed6:	c774                	sw	a3,76(a4)
     ed8:	46d2                	lw	a3,20(sp)
     eda:	cb34                	sw	a3,80(a4)
	RF->RF1 &= 0xffffffef;
     edc:	43d8                	lw	a4,4(a5)
	RF->TXTUNE_CTRL = (RF->TXTUNE_CTRL & 0x80ffffff) | (tune2440 & 0x7f000000);
     ede:	810006b7          	lui	a3,0x81000
     ee2:	16fd                	addi	a3,a3,-1
	RF->RF1 &= 0xffffffef;
     ee4:	9b3d                	andi	a4,a4,-17
     ee6:	c3d8                	sw	a4,4(a5)
	RF->RF1 &= 0xfffffffe;
     ee8:	43d8                	lw	a4,4(a5)
     eea:	9b79                	andi	a4,a4,-2
     eec:	c3d8                	sw	a4,4(a5)
	RF->RF10 |= 0x1000;
     eee:	5798                	lw	a4,40(a5)
     ef0:	8f51                	or	a4,a4,a2
     ef2:	d798                	sw	a4,40(a5)
	RF->RF11 |= 0x10;
     ef4:	57d8                	lw	a4,44(a5)
     ef6:	01076713          	ori	a4,a4,16
     efa:	d7d8                	sw	a4,44(a5)
	RF->TXTUNE_CTRL = (RF->TXTUNE_CTRL & 0xffffffc0) | (tune2440 & 0x3f);
     efc:	5f98                	lw	a4,56(a5)
     efe:	fc077713          	andi	a4,a4,-64
     f02:	01576733          	or	a4,a4,s5
     f06:	df98                	sw	a4,56(a5)
	RF->TXTUNE_CTRL = (RF->TXTUNE_CTRL & 0x80ffffff) | (tune2440 & 0x7f000000);
     f08:	5f98                	lw	a4,56(a5)
     f0a:	8f75                	and	a4,a4,a3
     f0c:	8cd9                	or	s1,s1,a4
     f0e:	df84                	sw	s1,56(a5)
	RF->RF1 |= 0x100;
     f10:	43d8                	lw	a4,4(a5)
	RF->RF20 &= 0xfffeffff;
     f12:	76c1                	lui	a3,0xffff0
     f14:	16fd                	addi	a3,a3,-1
	RF->RF1 |= 0x100;
     f16:	10076713          	ori	a4,a4,256
     f1a:	c3d8                	sw	a4,4(a5)
	RF->RF20 &= 0xfffeffff;
     f1c:	4bb8                	lw	a4,80(a5)
     f1e:	8f75                	and	a4,a4,a3
     f20:	cbb8                	sw	a4,80(a5)
	RF->RF2 |= 0x200000;
     f22:	4798                	lw	a4,8(a5)
     f24:	002006b7          	lui	a3,0x200
     f28:	8f55                	or	a4,a4,a3
     f2a:	c798                	sw	a4,8(a5)
	RF->RF3 = (RF->RF3 & 0xffffffef) | 0x10;
     f2c:	47d8                	lw	a4,12(a5)
	while(LL->TMR && ((RF->RXTUNE >> 8) & 1));
     f2e:	4000c6b7          	lui	a3,0x4000c
	RF->RF3 = (RF->RF3 & 0xffffffef) | 0x10;
     f32:	01076713          	ori	a4,a4,16
     f36:	c7d8                	sw	a4,12(a5)
	RF->RF1 |= 0x1000;
     f38:	43d8                	lw	a4,4(a5)
     f3a:	8f51                	or	a4,a4,a2
     f3c:	c3d8                	sw	a4,4(a5)
	LL->TMR = 100;
     f3e:	4000c7b7          	lui	a5,0x4000c
     f42:	06400713          	li	a4,100
     f46:	20078793          	addi	a5,a5,512 # 4000c200 <_eusrstack+0x20009200>
     f4a:	d3f8                	sw	a4,100(a5)
	while(LL->TMR && ((RF->RXTUNE >> 8) & 1));
     f4c:	4000d737          	lui	a4,0x4000d
     f50:	20068793          	addi	a5,a3,512 # 4000c200 <_eusrstack+0x20009200>
     f54:	53fc                	lw	a5,100(a5)
     f56:	c791                	beqz	a5,f62 <main+0x314>
     f58:	09c72783          	lw	a5,156(a4) # 4000d09c <_eusrstack+0x2000a09c>
     f5c:	1007f793          	andi	a5,a5,256
     f60:	fbe5                	bnez	a5,f50 <main+0x302>
	tuneFilter = RF->RXTUNE & 0x1f;
     f62:	4000d7b7          	lui	a5,0x4000d
     f66:	08078713          	addi	a4,a5,128 # 4000d080 <_eusrstack+0x2000a080>
     f6a:	4f54                	lw	a3,28(a4)
     f6c:	c0c18713          	addi	a4,gp,-1012 # 200003b4 <tuneFilter>
     f70:	8afd                	andi	a3,a3,31
     f72:	c314                	sw	a3,0(a4)
	RF->RF20 |= 0x10000;
     f74:	4bb4                	lw	a3,80(a5)
     f76:	6641                	lui	a2,0x10
     f78:	8ed1                	or	a3,a3,a2
     f7a:	cbb4                	sw	a3,80(a5)
	RF->RF20 = (RF->RF20 & 0xffffffe0) | tuneFilter;
     f7c:	4bb4                	lw	a3,80(a5)
     f7e:	4310                	lw	a2,0(a4)
     f80:	9a81                	andi	a3,a3,-32
     f82:	8ed1                	or	a3,a3,a2
     f84:	cbb4                	sw	a3,80(a5)
	RF->RF2 &= 0xffdfffff;
     f86:	4794                	lw	a3,8(a5)
     f88:	ffe00637          	lui	a2,0xffe00
     f8c:	167d                	addi	a2,a2,-1
     f8e:	8ef1                	and	a3,a3,a2
     f90:	c794                	sw	a3,8(a5)
	tuneFilter2M = (tuneFilter +2 < 0x1f) ? (tuneFilter +2) : 0x1f;
     f92:	4314                	lw	a3,0(a4)
     f94:	4679                	li	a2,30
     f96:	47fd                	li	a5,31
     f98:	0689                	addi	a3,a3,2
     f9a:	00d66463          	bltu	a2,a3,fa2 <main+0x354>
     f9e:	431c                	lw	a5,0(a4)
     fa0:	0789                	addi	a5,a5,2
     fa2:	c0f1a823          	sw	a5,-1008(gp) # 200003b8 <tuneFilter2M>
	RF->RF22 &= 0xfffeffff;
     fa6:	4000d7b7          	lui	a5,0x4000d
     faa:	4fb8                	lw	a4,88(a5)
     fac:	76c1                	lui	a3,0xffff0
     fae:	16fd                	addi	a3,a3,-1
     fb0:	8f75                	and	a4,a4,a3
     fb2:	cfb8                	sw	a4,88(a5)
	RF->RF2 |= 0x10000;
     fb4:	4798                	lw	a4,8(a5)
     fb6:	66c1                	lui	a3,0x10
	DevSetMode(0);
     fb8:	4501                	li	a0,0
	RF->RF2 |= 0x10000;
     fba:	8f55                	or	a4,a4,a3
     fbc:	c798                	sw	a4,8(a5)
	RF->RF3 = (RF->RF3 & 0xfffffeff) | 0x100;
     fbe:	47d8                	lw	a4,12(a5)
	RF->RF1 = (RF->RF1 & 0xfffeffff) | 0x100000;
     fc0:	ffef06b7          	lui	a3,0xffef0
     fc4:	16fd                	addi	a3,a3,-1
	RF->RF3 = (RF->RF3 & 0xfffffeff) | 0x100;
     fc6:	10076713          	ori	a4,a4,256
     fca:	c7d8                	sw	a4,12(a5)
	RF->RF1 = (RF->RF1 & 0xfffeffff) | 0x100000;
     fcc:	43d8                	lw	a4,4(a5)
	NVIC->IPRIOR[0x15] |= 0x80;
     fce:	e000e4b7          	lui	s1,0xe000e
	USBFS->BASE_CTRL = USBFS_UC_RESET_SIE | USBFS_UC_CLR_ALL;
     fd2:	40008437          	lui	s0,0x40008
	RF->RF1 = (RF->RF1 & 0xfffeffff) | 0x100000;
     fd6:	8f75                	and	a4,a4,a3
     fd8:	001006b7          	lui	a3,0x100
     fdc:	8f55                	or	a4,a4,a3
     fde:	c3d8                	sw	a4,4(a5)
	DevSetMode(0);
     fe0:	cc6ff0ef          	jal	ra,4a6 <DevSetMode>
	NVIC->IPRIOR[0x15] |= 0x80;
     fe4:	4154c783          	lbu	a5,1045(s1) # e000e415 <_eusrstack+0xc000b415>
	R16_PIN_ALTERNATE |= RB_PIN_USB_EN | RB_UDP_PU_EN;
     fe8:	40001737          	lui	a4,0x40001
     fec:	668d                	lui	a3,0x3
     fee:	f807e793          	ori	a5,a5,-128
     ff2:	0ff7f793          	andi	a5,a5,255
     ff6:	40f48aa3          	sb	a5,1045(s1)
	NVIC->IENR[((uint32_t)(IRQn) >> 5)] = (1 << ((uint32_t)(IRQn) & 0x1F));
     ffa:	002007b7          	lui	a5,0x200
     ffe:	10f4a023          	sw	a5,256(s1)
    1002:	01875783          	lhu	a5,24(a4) # 40001018 <_eusrstack+0x1fffe018>
	Delay_Us(10);
    1006:	04600513          	li	a0,70
      // Disable Whitening
      BB->CTRL_CFG |= (1 << 6);

      // Burst send 3 packets (reduced from 5)
      for (int i = 0; i < 3; i++) {
        Frame_TX(ACCESS_ADDRESS, rf_packet, sizeof(rf_packet), 37, PHY_1M);
    100a:	12345a37          	lui	s4,0x12345
	R16_PIN_ALTERNATE |= RB_PIN_USB_EN | RB_UDP_PU_EN;
    100e:	07c2                	slli	a5,a5,0x10
    1010:	83c1                	srli	a5,a5,0x10
    1012:	8fd5                	or	a5,a5,a3
    1014:	00f71c23          	sh	a5,24(a4)
	USBFS->BASE_CTRL = USBFS_UC_RESET_SIE | USBFS_UC_CLR_ALL;
    1018:	4799                	li	a5,6
    101a:	00f40023          	sb	a5,0(s0) # 40008000 <_eusrstack+0x20005000>
	USBFS->BASE_CTRL = 0x00;
    101e:	00040023          	sb	zero,0(s0)
	Delay_Us(10);
    1022:	c1aff0ef          	jal	ra,43c <DelaySysTick>
	USBFS->INT_EN    = USBFS_UIE_SUSPEND | USBFS_UIE_TRANSFER | USBFS_UIE_BUS_RST;
    1026:	479d                	li	a5,7
    1028:	00f40123          	sb	a5,2(s0)
	USBFS->DEV_ADDR  = 0x00;
    102c:	000401a3          	sb	zero,3(s0)
	USBFS->BASE_CTRL = USBFS_UC_INT_BUSY | USBFS_UC_DMA_EN | USBFS_UC_DEV_PU_EN;
    1030:	02900793          	li	a5,41
    1034:	00f40023          	sb	a5,0(s0)
	USBFS->INT_FG    = 0xff;
    1038:	57fd                	li	a5,-1
    103a:	00f40323          	sb	a5,6(s0)
	USBFS_InternalFinishSetup();
    103e:	c14ff0ef          	jal	ra,452 <USBFS_InternalFinishSetup>
	USBFS->UDEV_CTRL = USBFS_UD_PD_DIS | USBFS_UD_PORT_EN;
    1042:	f8100793          	li	a5,-127
    1046:	00f400a3          	sb	a5,1(s0)
    104a:	004007b7          	lui	a5,0x400
    104e:	10f4a023          	sw	a5,256(s1)
  blink(10, 20);
    1052:	45d1                	li	a1,20
    1054:	4529                	li	a0,10
    if (gs_usb_data_buf[0]) {
    1056:	13818413          	addi	s0,gp,312 # 200008e0 <gs_usb_data_buf>
      while (USBFSCTX.USBFS_Endp_Busy[USB_EP_TX] & 1)
    105a:	05418493          	addi	s1,gp,84 # 200007fc <USBFSCTX>
        Delay_Ms(5);
    105e:	6aa5                	lui	s5,0x9
  blink(10, 20);
    1060:	d44ff0ef          	jal	ra,5a4 <blink>
	if( USBFSCTX.USBFS_errata_dont_send_endpoint_in_window || USBFSCTX.USBFS_Endp_Busy[ endp ] ) return -1;
	// This prevents sending while ep0 is receiving
	if( USBFSCTX.USBFS_SetupReqLen > 0 ) return USBFSCTX.USBFS_SetupReqLen;
#if defined (CH5xx) || defined (CH32X03x)
	// Check RB_UIS_SETUP_ACT
	if( (USBFS->INT_ST & 0x80) ) return -3;
    1064:	400089b7          	lui	s3,0x40008
#endif
	if ( len )
	{
		if( copy )
		{
			UEP_DMA( endp ) = (uintptr_t)USBFSCTX.ENDPOINTS[endp];
    1068:	05048b13          	addi	s6,s1,80
			copyBuffer( USBFSCTX.ENDPOINTS[endp], data, len );
    106c:	00140b93          	addi	s7,s0,1
        Frame_TX(ACCESS_ADDRESS, rf_packet, sizeof(rf_packet), 37, PHY_1M);
    1070:	678a0a13          	addi	s4,s4,1656 # 12345678 <drv8835controller.c.16e472a3+0x12343300>
        Delay_Ms(5);
    1074:	27ca8a93          	addi	s5,s5,636 # 927c <drv8835controller.c.16e472a3+0x6f04>
    if (gs_usb_data_buf[0]) {
    1078:	00044783          	lbu	a5,0(s0)
    107c:	0ff7f793          	andi	a5,a5,255
    1080:	dfe5                	beqz	a5,1078 <main+0x42a>
      blink(1, 100); // Shorter blink to minimize delay
    1082:	06400593          	li	a1,100
    1086:	4505                	li	a0,1
    1088:	d1cff0ef          	jal	ra,5a4 <blink>
      while (USBFSCTX.USBFS_Endp_Busy[USB_EP_TX] & 1)
    108c:	0e14c783          	lbu	a5,225(s1)
    1090:	8b85                	andi	a5,a5,1
    1092:	ffed                	bnez	a5,108c <main+0x43e>
          USB_EP_TX, (uint8_t *)&gs_usb_data_buf[1], gs_usb_data_buf[0],
    1094:	00044903          	lbu	s2,0(s0)
	if( USBFSCTX.USBFS_errata_dont_send_endpoint_in_window || USBFSCTX.USBFS_Endp_Busy[ endp ] ) return -1;
    1098:	0e34c783          	lbu	a5,227(s1)
    109c:	0ff97913          	andi	s2,s2,255
    10a0:	0ff7f793          	andi	a5,a5,255
    10a4:	e3a9                	bnez	a5,10e6 <main+0x498>
    10a6:	0e14c783          	lbu	a5,225(s1)
    10aa:	0ff7f793          	andi	a5,a5,255
    10ae:	ef85                	bnez	a5,10e6 <main+0x498>
	if( USBFSCTX.USBFS_SetupReqLen > 0 ) return USBFSCTX.USBFS_SetupReqLen;
    10b0:	0024d783          	lhu	a5,2(s1)
    10b4:	eb8d                	bnez	a5,10e6 <main+0x498>
	if( (USBFS->INT_ST & 0x80) ) return -3;
    10b6:	0079c783          	lbu	a5,7(s3) # 40008007 <_eusrstack+0x20005007>
    10ba:	07e2                	slli	a5,a5,0x18
    10bc:	87e1                	srai	a5,a5,0x18
    10be:	0207c463          	bltz	a5,10e6 <main+0x498>
	if ( len )
    10c2:	00090863          	beqz	s2,10d2 <main+0x484>
			UEP_DMA( endp ) = (uintptr_t)USBFSCTX.ENDPOINTS[endp];
    10c6:	01699a23          	sh	s6,20(s3)
			copyBuffer( USBFSCTX.ENDPOINTS[endp], data, len );
    10ca:	864a                	mv	a2,s2
    10cc:	85de                	mv	a1,s7
    10ce:	855a                	mv	a0,s6
    10d0:	3cb9                	jal	b2e <memcpy>
		}
		else UEP_DMA( endp ) = (uintptr_t)data;
	}
	// NVIC_DisableIRQ( USB_IRQn );
	UEP_CTRL_LEN( endp ) = len;
	UEP_CTRL_TX( endp ) = ( UEP_CTRL_TX( endp ) & ~USBFS_UEP_T_RES_MASK ) | USBFS_UEP_T_RES_ACK;
    10d2:	0269c783          	lbu	a5,38(s3)
	UEP_CTRL_LEN( endp ) = len;
    10d6:	03298223          	sb	s2,36(s3)
	UEP_CTRL_TX( endp ) = ( UEP_CTRL_TX( endp ) & ~USBFS_UEP_T_RES_MASK ) | USBFS_UEP_T_RES_ACK;
    10da:	9bf1                	andi	a5,a5,-4
    10dc:	02f98323          	sb	a5,38(s3)
	USBFSCTX.USBFS_Endp_Busy[ endp ] = 1;
    10e0:	4785                	li	a5,1
    10e2:	0ef480a3          	sb	a5,225(s1)
      rf_packet[0] = 0xCA;               // Magic 1
    10e6:	eca00793          	li	a5,-310
    10ea:	00f11c23          	sh	a5,24(sp)
      rf_packet[2] = gs_usb_data_buf[1]; // Speed
    10ee:	00144783          	lbu	a5,1(s0)
      BB->CTRL_CFG |= (1 << 6);
    10f2:	4000c737          	lui	a4,0x4000c
    10f6:	490d                	li	s2,3
      rf_packet[2] = gs_usb_data_buf[1]; // Speed
    10f8:	00f10d23          	sb	a5,26(sp)
      rf_packet[3] = gs_usb_data_buf[2]; // Direction
    10fc:	00244783          	lbu	a5,2(s0)
    1100:	00f10da3          	sb	a5,27(sp)
      rf_packet[4] = gs_usb_data_buf[3]; // Enable
    1104:	00344783          	lbu	a5,3(s0)
    1108:	00f10e23          	sb	a5,28(sp)
      BB->CTRL_CFG |= (1 << 6);
    110c:	10072783          	lw	a5,256(a4) # 4000c100 <_eusrstack+0x20009100>
    1110:	0407e793          	ori	a5,a5,64
    1114:	10f72023          	sw	a5,256(a4)
        Frame_TX(ACCESS_ADDRESS, rf_packet, sizeof(rf_packet), 37, PHY_1M);
    1118:	4705                	li	a4,1
    111a:	02500693          	li	a3,37
    111e:	4615                	li	a2,5
    1120:	082c                	addi	a1,sp,24
    1122:	8552                	mv	a0,s4
    1124:	1ffff097          	auipc	ra,0x1ffff
    1128:	000080e7          	jalr	ra # 20000124 <iSLERTX>
        Delay_Ms(5);
    112c:	8556                	mv	a0,s5
      for (int i = 0; i < 3; i++) {
    112e:	197d                	addi	s2,s2,-1
        Delay_Ms(5);
    1130:	b0cff0ef          	jal	ra,43c <DelaySysTick>
      for (int i = 0; i < 3; i++) {
    1134:	fe0912e3          	bnez	s2,1118 <main+0x4ca>
      }

      gs_usb_data_buf[0] = 0;
    1138:	00040023          	sb	zero,0(s0)
    113c:	bf35                	j	1078 <main+0x42a>
	...

00001140 <string3>:
    1140:	0308 0035 0038 0035 0000 0000               ..5.8.5.....

0000114c <string2>:
    114c:	0314 0042 0075 006c 006b 0020 0064 0065     ..B.u.l.k. .d.e.
    115c:	006d 006f 0000 0000                         m.o.....

00001164 <string1>:
    1164:	0310 0063 0068 0033 0032 0066 0075 006e     ..c.h.3.2.f.u.n.
    1174:	0000 0000                                   ....

00001178 <string0>:
    1178:	0304 0409 0a62 0000 09d4 0000 0906 0000     ....b...........
    1188:	0a0e 0000 0906 0000 0992 0000 0928 0000     ............(...
    1198:	0906 0000 0998 0000 09ac 0000 0a56 0000     ............V...
    11a8:	0950 0000                                   P...

000011ac <channel_map>:
    11ac:	0201 0403 0605 0807 0a09 0d0c 0f0e 1110     ................
    11bc:	1312 1514 1716 1918 1b1a 1d1c 1f1e 2120     .............. !
    11cc:	2322 2524 0026 270b                         "#$%&..'

000011d4 <config_descriptor>:
    11d4:	0209 0020 0101 a000 0932 0004 0200 ffff     .. .....2.......
    11e4:	03ff 0507 0281 0040 0701 0205 4002 0100     ......@......@..

000011f4 <descriptor_list>:
    11f4:	0100 0000 123c 0000 0012 0000 0200 0000     ....<...........
    1204:	11d4 0000 0020 0000 0300 0000 1178 0000     .... .......x...
    1214:	0004 0000 0301 0409 1164 0000 0010 0000     ........d.......
    1224:	0302 0409 114c 0000 0014 0000 0303 0409     ....L...........
    1234:	1140 0000 0008 0000                         @.......

0000123c <device_descriptor>:
    123c:	0112 0200 0000 4000 1209 d035 0007 0201     .......@..5.....
    124c:	0103 0000                                   ....
