GAS LISTING C:\Users\LRNA\AppData\Local\Temp\ccr9sMkC.s 			page 1


   1              		.file	"CH57x_timer.c"
   2              		.option nopic
   3              		.text
   4              		.section	.text.TMR_TimerInit,"ax",@progbits
   5              		.align	1
   6              		.globl	TMR_TimerInit
   8              	TMR_TimerInit:
   9 0000 B7270040 		li	a5,1073750016
  10 0004 23A6A740 		sw	a0,1036(a5)
  11 0008 0947     		li	a4,2
  12 000a 2380E740 		sb	a4,1024(a5)
  13 000e 1147     		li	a4,4
  14 0010 2380E740 		sb	a4,1024(a5)
  15 0014 8280     		ret
  17              		.section	.text.TMR_EXTSingleCounterInit,"ax",@progbits
  18              		.align	1
  19              		.globl	TMR_EXTSingleCounterInit
  21              	TMR_EXTSingleCounterInit:
  22 0000 1A05     		slli	a0,a0,6
  23 0002 B7270040 		li	a5,1073750016
  24 0006 0947     		li	a4,2
  25 0008 13655501 		ori	a0,a0,21
  26 000c 2380E740 		sb	a4,1024(a5)
  27 0010 1375F50F 		andi	a0,a0,0xff
  28 0014 2380A740 		sb	a0,1024(a5)
  29 0018 8280     		ret
  31              		.section	.text.TMR_PWMInit,"ax",@progbits
  32              		.align	1
  33              		.globl	TMR_PWMInit
  35              	TMR_PWMInit:
  36 0000 1205     		slli	a0,a0,4
  37 0002 9A05     		slli	a1,a1,6
  38 0004 B7270040 		li	a5,1073750016
  39 0008 0947     		li	a4,2
  40 000a 4D8D     		or	a0,a0,a1
  41 000c 2380E740 		sb	a4,1024(a5)
  42 0010 1375F50F 		andi	a0,a0,0xff
  43 0014 2380A740 		sb	a0,1024(a5)
  44 0018 8280     		ret
  46              		.section	.text.TMR_CapInit,"ax",@progbits
  47              		.align	1
  48              		.globl	TMR_CapInit
  50              	TMR_CapInit:
  51 0000 1A05     		slli	a0,a0,6
  52 0002 B7270040 		li	a5,1073750016
  53 0006 0947     		li	a4,2
  54 0008 13655500 		ori	a0,a0,5
  55 000c 2380E740 		sb	a4,1024(a5)
  56 0010 1375F50F 		andi	a0,a0,0xff
  57 0014 2380A740 		sb	a0,1024(a5)
  58 0018 8280     		ret
  60              		.section	.text.TMR_DMACfg,"ax",@progbits
  61              		.align	1
  62              		.globl	TMR_DMACfg
  64              	TMR_DMACfg:
  65 0000 11E5     		bnez	a0,.L6
  66 0002 B7270040 		li	a5,1073750016
GAS LISTING C:\Users\LRNA\AppData\Local\Temp\ccr9sMkC.s 			page 2


  67 0006 A3800740 		sb	zero,1025(a5)
  68 000a 8280     		ret
  69              	.L6:
  70 000c C205     		slli	a1,a1,16
  71 000e B7270040 		li	a5,1073750016
  72 0012 C181     		srli	a1,a1,16
  73 0014 4206     		slli	a2,a2,16
  74 0016 239CB740 		sh	a1,1048(a5)
  75 001a 4182     		srli	a2,a2,16
  76 001c 239EC740 		sh	a2,1052(a5)
  77 0020 1547     		li	a4,5
  78 0022 91E2     		bnez	a3,.L9
  79 0024 0547     		li	a4,1
  80              	.L9:
  81 0026 A380E740 		sb	a4,1025(a5)
  82 002a 8280     		ret
  84              		.section	.text.ENC_Config,"ax",@progbits
  85              		.align	1
  86              		.globl	ENC_Config
  88              	ENC_Config:
  89 0000 11E9     		bnez	a0,.L11
  90 0002 37270040 		li	a4,1073750016
  91 0006 83470742 		lbu	a5,1056(a4)
  92 000a 93F7E70F 		andi	a5,a5,254
  93 000e 2300F742 		sb	a5,1056(a4)
  94 0012 8280     		ret
  95              	.L11:
  96 0014 B7270040 		li	a5,1073750016
  97 0018 03C70742 		lbu	a4,1056(a5)
  98 001c 0606     		slli	a2,a2,1
  99 001e 598E     		or	a2,a2,a4
 100 0020 13661600 		ori	a2,a2,1
 101 0024 1376F60F 		andi	a2,a2,0xff
 102 0028 2380C742 		sb	a2,1056(a5)
 103 002c 03A74742 		lw	a4,1060(a5)
 104 0030 4D8F     		or	a4,a4,a1
 105 0032 23A2E742 		sw	a4,1060(a5)
 106 0036 8280     		ret
 108              		.ident	"GCC: (xPack GNU RISC-V Embedded GCC, 32-bit) 8.2.0"
GAS LISTING C:\Users\LRNA\AppData\Local\Temp\ccr9sMkC.s 			page 3


DEFINED SYMBOLS
                            *ABS*:0000000000000000 CH57x_timer.c
C:\Users\LRNA\AppData\Local\Temp\ccr9sMkC.s:8      .text.TMR_TimerInit:0000000000000000 TMR_TimerInit
C:\Users\LRNA\AppData\Local\Temp\ccr9sMkC.s:21     .text.TMR_EXTSingleCounterInit:0000000000000000 TMR_EXTSingleCounterInit
C:\Users\LRNA\AppData\Local\Temp\ccr9sMkC.s:35     .text.TMR_PWMInit:0000000000000000 TMR_PWMInit
C:\Users\LRNA\AppData\Local\Temp\ccr9sMkC.s:50     .text.TMR_CapInit:0000000000000000 TMR_CapInit
C:\Users\LRNA\AppData\Local\Temp\ccr9sMkC.s:64     .text.TMR_DMACfg:0000000000000000 TMR_DMACfg
C:\Users\LRNA\AppData\Local\Temp\ccr9sMkC.s:88     .text.ENC_Config:0000000000000000 ENC_Config
C:\Users\LRNA\AppData\Local\Temp\ccr9sMkC.s:69     .text.TMR_DMACfg:000000000000000c .L6
C:\Users\LRNA\AppData\Local\Temp\ccr9sMkC.s:80     .text.TMR_DMACfg:0000000000000026 .L9
C:\Users\LRNA\AppData\Local\Temp\ccr9sMkC.s:95     .text.ENC_Config:0000000000000014 .L11

NO UNDEFINED SYMBOLS
