
iSLER.elf:     file format elf32-littleriscv


Disassembly of section .init:

00000000 <InterruptVector>:
	void InterruptVector()         __attribute__((naked)) __attribute((section(".init"))) __attribute((weak,alias("InterruptVectorDefault"))) __attribute((naked));
	void InterruptVectorDefault()  __attribute__((naked)) __attribute((section(".init"))) __attribute((naked));
	void InterruptVectorDefault( void )
	{
		#if !defined(FUNCONF_TINYVECTOR) || !FUNCONF_TINYVECTOR
			asm volatile( DEFAULT_INTERRUPT_VECTOR_CONTENTS );
   0:	51e0006f          	j	51e <handle_reset>
   4:	0000                	unimp
   6:	0000                	unimp
   8:	05a2                	slli	a1,a1,0x8
   a:	0000                	unimp
   c:	05a2                	slli	a1,a1,0x8
   e:	0000                	unimp
  10:	bda9                	j	fffffe6a <_eusrstack+0xdfffce6a>
  12:	f3f9                	bnez	a5,ffffffd8 <_eusrstack+0xdfffcfd8>
  14:	05a2                	slli	a1,a1,0x8
	...
  1e:	0000                	unimp
  20:	05a2                	slli	a1,a1,0x8
  22:	0000                	unimp
  24:	05a2                	slli	a1,a1,0x8
	...
  2e:	0000                	unimp
  30:	05a2                	slli	a1,a1,0x8
  32:	0000                	unimp
  34:	0000                	unimp
  36:	0000                	unimp
  38:	05a2                	slli	a1,a1,0x8
  3a:	0000                	unimp
  3c:	0000                	unimp
  3e:	0000                	unimp
  40:	05a2                	slli	a1,a1,0x8
  42:	0000                	unimp
  44:	05a2                	slli	a1,a1,0x8
  46:	0000                	unimp
  48:	05a2                	slli	a1,a1,0x8
  4a:	0000                	unimp
  4c:	05a2                	slli	a1,a1,0x8
  4e:	0000                	unimp
  50:	05a2                	slli	a1,a1,0x8
  52:	0000                	unimp
  54:	0e6a                	slli	t3,t3,0x1a
  56:	0000                	unimp
  58:	05a2                	slli	a1,a1,0x8
  5a:	0000                	unimp
  5c:	0000                	unimp
  5e:	0000                	unimp
  60:	05a2                	slli	a1,a1,0x8
  62:	0000                	unimp
  64:	05a2                	slli	a1,a1,0x8
  66:	0000                	unimp
  68:	05a2                	slli	a1,a1,0x8
  6a:	0000                	unimp
  6c:	05a2                	slli	a1,a1,0x8
  6e:	0000                	unimp
  70:	05a2                	slli	a1,a1,0x8
  72:	0000                	unimp
  74:	05a2                	slli	a1,a1,0x8
  76:	0000                	unimp
  78:	05a2                	slli	a1,a1,0x8
  7a:	0000                	unimp
  7c:	05a2                	slli	a1,a1,0x8
  7e:	0000                	unimp
  80:	05a2                	slli	a1,a1,0x8
  82:	0000                	unimp
  84:	05a2                	slli	a1,a1,0x8
  86:	0000                	unimp
  88:	05a2                	slli	a1,a1,0x8
  8a:	0000                	unimp
  8c:	05a2                	slli	a1,a1,0x8
	...

Disassembly of section .text:

00000090 <mini_pad>:
{
  90:	1101                	addi	sp,sp,-32
  92:	ca26                	sw	s1,20(sp)
  94:	c84a                	sw	s2,16(sp)
  96:	c64e                	sw	s3,12(sp)
  98:	ce06                	sw	ra,28(sp)
  9a:	cc22                	sw	s0,24(sp)
  9c:	84ae                	mv	s1,a1
  9e:	89aa                	mv	s3,a0
  a0:	85b2                	mv	a1,a2
	int overflow = 0;
  a2:	4901                	li	s2,0
	if(pad_to == 0) pad_to = len;
  a4:	c6bd                	beqz	a3,112 <mini_pad+0x82>
	if(len > pad_to) {
  a6:	0096d463          	bge	a3,s1,ae <mini_pad+0x1e>
  aa:	84b6                	mv	s1,a3
		overflow = 1;
  ac:	4905                	li	s2,1
	for(i = pad_to - len; i > 0; i --) {
  ae:	40968433          	sub	s0,a3,s1
		*(pbuffer++) = pad_char;
  b2:	00045363          	bgez	s0,b8 <mini_pad+0x28>
  b6:	4401                	li	s0,0
  b8:	853a                	mv	a0,a4
  ba:	8622                	mv	a2,s0
  bc:	2df9                	jal	79a <memset>
  be:	872a                	mv	a4,a0
  c0:	008506b3          	add	a3,a0,s0
  c4:	4781                	li	a5,0
	for(i = len; i > 0; i --) {
  c6:	40f48633          	sub	a2,s1,a5
  ca:	04c04663          	bgtz	a2,116 <mini_pad+0x86>
  ce:	0004d363          	bgez	s1,d4 <mini_pad+0x44>
  d2:	4481                	li	s1,0
  d4:	00968633          	add	a2,a3,s1
	len = pbuffer - buffer;
  d8:	40e60533          	sub	a0,a2,a4
	if(overflow) {
  dc:	02090463          	beqz	s2,104 <mini_pad+0x74>
		for (i = 0; i < 3 && pbuffer > buffer; i ++) {
  e0:	02c77263          	bgeu	a4,a2,104 <mini_pad+0x74>
			*(pbuffer-- - 1) = '*';
  e4:	02a00793          	li	a5,42
  e8:	fef60fa3          	sb	a5,-1(a2)
  ec:	fff60693          	addi	a3,a2,-1
		for (i = 0; i < 3 && pbuffer > buffer; i ++) {
  f0:	00d77a63          	bgeu	a4,a3,104 <mini_pad+0x74>
			*(pbuffer-- - 1) = '*';
  f4:	fef60f23          	sb	a5,-2(a2)
  f8:	ffe60693          	addi	a3,a2,-2
		for (i = 0; i < 3 && pbuffer > buffer; i ++) {
  fc:	00d77463          	bgeu	a4,a3,104 <mini_pad+0x74>
			*(pbuffer-- - 1) = '*';
 100:	fef60ea3          	sb	a5,-3(a2)
}
 104:	40f2                	lw	ra,28(sp)
 106:	4462                	lw	s0,24(sp)
 108:	44d2                	lw	s1,20(sp)
 10a:	4942                	lw	s2,16(sp)
 10c:	49b2                	lw	s3,12(sp)
 10e:	6105                	addi	sp,sp,32
 110:	8082                	ret
	if(pad_to == 0) pad_to = len;
 112:	86a6                	mv	a3,s1
 114:	bf69                	j	ae <mini_pad+0x1e>
		*(pbuffer++) = *(ptr++);
 116:	00f98633          	add	a2,s3,a5
 11a:	00064583          	lbu	a1,0(a2)
 11e:	00f68633          	add	a2,a3,a5
 122:	0785                	addi	a5,a5,1
 124:	00b60023          	sb	a1,0(a2)
	for(i = len; i > 0; i --) {
 128:	bf79                	j	c6 <mini_pad+0x36>

0000012a <mini_itoa.part.0>:
	int	negative = 0;
 12a:	4881                	li	a7,0
	if (value < 0 && !unsig) {
 12c:	00055663          	bgez	a0,138 <mini_itoa.part.0+0xe>
 130:	e681                	bnez	a3,138 <mini_itoa.part.0+0xe>
		value = -value;
 132:	40a00533          	neg	a0,a0
		negative = 1;
 136:	4885                	li	a7,1
 138:	06100793          	li	a5,97
 13c:	c219                	beqz	a2,142 <mini_itoa.part.0+0x18>
 13e:	04100793          	li	a5,65
	int	negative = 0;
 142:	883a                	mv	a6,a4
		*(pbuffer++) = (digit < 10 ? '0' + digit : (uppercase ? 'A' : 'a') + digit - 10);
 144:	4e25                	li	t3,9
 146:	ff678613          	addi	a2,a5,-10
		int digit = value % radix;
 14a:	02b577b3          	remu	a5,a0,a1
 14e:	832a                	mv	t1,a0
		*(pbuffer++) = (digit < 10 ? '0' + digit : (uppercase ? 'A' : 'a') + digit - 10);
 150:	0ff7f693          	andi	a3,a5,255
 154:	04fe6463          	bltu	t3,a5,19c <mini_itoa.part.0+0x72>
 158:	03068693          	addi	a3,a3,48
 15c:	0ff6f693          	andi	a3,a3,255
 160:	00d80023          	sb	a3,0(a6)
 164:	00180793          	addi	a5,a6,1
		value /= radix;
 168:	02b55533          	divu	a0,a0,a1
	} while (value > 0);
 16c:	02b37663          	bgeu	t1,a1,198 <mini_itoa.part.0+0x6e>
	if (negative)
 170:	00088863          	beqz	a7,180 <mini_itoa.part.0+0x56>
		*(pbuffer++) = '-';
 174:	02d00693          	li	a3,45
 178:	00d78023          	sb	a3,0(a5)
 17c:	00280793          	addi	a5,a6,2
	len = (pbuffer - buffer);
 180:	40e78533          	sub	a0,a5,a4
	for (i = 0; i < len / 2; i++) {
 184:	4609                	li	a2,2
	*(pbuffer) = '\0';
 186:	00078023          	sb	zero,0(a5)
	for (i = 0; i < len / 2; i++) {
 18a:	4681                	li	a3,0
 18c:	02c54633          	div	a2,a0,a2
 190:	17fd                	addi	a5,a5,-1
 192:	00c6c763          	blt	a3,a2,1a0 <mini_itoa.part.0+0x76>
}
 196:	8082                	ret
	} while (value > 0);
 198:	883e                	mv	a6,a5
 19a:	bf45                	j	14a <mini_itoa.part.0+0x20>
		*(pbuffer++) = (digit < 10 ? '0' + digit : (uppercase ? 'A' : 'a') + digit - 10);
 19c:	96b2                	add	a3,a3,a2
 19e:	bf7d                	j	15c <mini_itoa.part.0+0x32>
		char j = buffer[i];
 1a0:	00d705b3          	add	a1,a4,a3
		buffer[i] = buffer[len-i-1];
 1a4:	0007c883          	lbu	a7,0(a5)
		char j = buffer[i];
 1a8:	0005c803          	lbu	a6,0(a1)
	for (i = 0; i < len / 2; i++) {
 1ac:	0685                	addi	a3,a3,1
		buffer[i] = buffer[len-i-1];
 1ae:	01158023          	sb	a7,0(a1)
		buffer[len-i-1] = j;
 1b2:	01078023          	sb	a6,0(a5)
	for (i = 0; i < len / 2; i++) {
 1b6:	bfe9                	j	190 <mini_itoa.part.0+0x66>

000001b8 <DevSetMode>:
	NVIC->VTFIDR[3] = 0x14;
}

void DevSetMode(uint16_t mode) {
#if !defined(CH571_CH573)
	if(mode) {
 1b8:	fffd07b7          	lui	a5,0xfffd0
		BB->CTRL_CFG = DEVSETMODE_ON;
 1bc:	4000c6b7          	lui	a3,0x4000c
 1c0:	fff78713          	addi	a4,a5,-1 # fffcffff <_eusrstack+0xdffccfff>
 1c4:	1006a783          	lw	a5,256(a3) # 4000c100 <_eusrstack+0x20009100>
 1c8:	8ff9                	and	a5,a5,a4
	if(mode) {
 1ca:	c11d                	beqz	a0,1f0 <DevSetMode+0x38>
		BB->CTRL_CFG = DEVSETMODE_ON;
 1cc:	00020737          	lui	a4,0x20
 1d0:	8fd9                	or	a5,a5,a4
 1d2:	10f6a023          	sw	a5,256(a3)
		RF->RF2 |= 0x330000;
 1d6:	4000d737          	lui	a4,0x4000d
 1da:	471c                	lw	a5,8(a4)
 1dc:	003306b7          	lui	a3,0x330
 1e0:	8fd5                	or	a5,a5,a3
 1e2:	c71c                	sw	a5,8(a4)
	mode = (mode == 0) ? 0x80 : mode;
#elif !defined(CH32V208)
	mode |= 0x30000;
#endif
#endif // ! CH571_CH573
	LL->CTRL_MOD = mode;
 1e4:	4000c7b7          	lui	a5,0x4000c
 1e8:	20078793          	addi	a5,a5,512 # 4000c200 <_eusrstack+0x20009200>
 1ec:	cba8                	sw	a0,80(a5)
}
 1ee:	8082                	ret
		BB->CTRL_CFG = DEVSETMODE_OFF;
 1f0:	6741                	lui	a4,0x10
 1f2:	8fd9                	or	a5,a5,a4
 1f4:	10f6a023          	sw	a5,256(a3) # 330100 <iSLER.c.5eab49fd+0x32dc8a>
		RF->RF2 &= 0xffcdffff;
 1f8:	4000d6b7          	lui	a3,0x4000d
 1fc:	469c                	lw	a5,8(a3)
 1fe:	ffce0737          	lui	a4,0xffce0
 202:	177d                	addi	a4,a4,-1
 204:	8ff9                	and	a5,a5,a4
 206:	c69c                	sw	a5,8(a3)
 208:	bff1                	j	1e4 <DevSetMode+0x2c>

0000020a <RFEND_TXCTune>:

uint32_t RFEND_TXCTune(uint8_t channel) {
	// 0xbf = 2401 MHz
	RF->RF1 &= 0xfffffffe;
 20a:	4000d737          	lui	a4,0x4000d
 20e:	435c                	lw	a5,4(a4)
	RF->TXTUNE_CTRL = (RF->TXTUNE_CTRL & 0xfffe00ff) | (0xbf00 + (channel_map[channel] << 8));
 210:	6685                	lui	a3,0x1
 212:	f4068693          	addi	a3,a3,-192 # f40 <channel_map>
	RF->RF1 &= 0xfffffffe;
 216:	9bf9                	andi	a5,a5,-2
	RF->TXTUNE_CTRL = (RF->TXTUNE_CTRL & 0xfffe00ff) | (0xbf00 + (channel_map[channel] << 8));
 218:	96aa                	add	a3,a3,a0
	RF->RF1 &= 0xfffffffe;
 21a:	c35c                	sw	a5,4(a4)
	RF->TXTUNE_CTRL = (RF->TXTUNE_CTRL & 0xfffe00ff) | (0xbf00 + (channel_map[channel] << 8));
 21c:	0006c783          	lbu	a5,0(a3)
 220:	66b1                	lui	a3,0xc
 222:	5f10                	lw	a2,56(a4)
 224:	f0068693          	addi	a3,a3,-256 # bf00 <iSLER.c.5eab49fd+0x9a8a>
 228:	07a2                	slli	a5,a5,0x8
 22a:	97b6                	add	a5,a5,a3
 22c:	7681                	lui	a3,0xfffe0
 22e:	0ff68693          	addi	a3,a3,255 # fffe00ff <_eusrstack+0xdffdd0ff>
 232:	8e75                	and	a2,a2,a3
 234:	8fd1                	or	a5,a5,a2
 236:	df1c                	sw	a5,56(a4)
	RF->RF1 |= 1;
 238:	435c                	lw	a5,4(a4)

	LL->TMR = 8000;
	while(!(RF->TXCTUNE_CO_CTRL & (1 << 25)) || !(RF->TXCTUNE_CO_CTRL & (1 << 26))) {
 23a:	02000637          	lui	a2,0x2000
 23e:	040006b7          	lui	a3,0x4000
	RF->RF1 |= 1;
 242:	0017e793          	ori	a5,a5,1
 246:	c35c                	sw	a5,4(a4)
	LL->TMR = 8000;
 248:	4000c7b7          	lui	a5,0x4000c
 24c:	6709                	lui	a4,0x2
 24e:	f4070713          	addi	a4,a4,-192 # 1f40 <ch32fun.c.06290d3e+0xa15>
 252:	20078793          	addi	a5,a5,512 # 4000c200 <_eusrstack+0x20009200>
 256:	d3f8                	sw	a4,100(a5)
		if(LL->TMR == 0) {
 258:	4000c5b7          	lui	a1,0x4000c
	while(!(RF->TXCTUNE_CO_CTRL & (1 << 25)) || !(RF->TXCTUNE_CO_CTRL & (1 << 26))) {
 25c:	4000d737          	lui	a4,0x4000d
 260:	09072783          	lw	a5,144(a4) # 4000d090 <_eusrstack+0x2000a090>
 264:	8ff1                	and	a5,a5,a2
 266:	c789                	beqz	a5,270 <RFEND_TXCTune+0x66>
 268:	09072783          	lw	a5,144(a4)
 26c:	8ff5                	and	a5,a5,a3
 26e:	e789                	bnez	a5,278 <RFEND_TXCTune+0x6e>
		if(LL->TMR == 0) {
 270:	20058793          	addi	a5,a1,512 # 4000c200 <_eusrstack+0x20009200>
 274:	53fc                	lw	a5,100(a5)
 276:	f7ed                	bnez	a5,260 <RFEND_TXCTune+0x56>
			break;
		}
	}

	uint8_t nCO = (uint8_t)RF->TXCTUNE_CO_CTRL & 0x3f;
 278:	4000d7b7          	lui	a5,0x4000d
 27c:	0907a503          	lw	a0,144(a5) # 4000d090 <_eusrstack+0x2000a090>
	uint8_t nGA = (uint8_t)(RF->TXCTUNE_GA_CTRL >> 10) & 0x7f;
 280:	0947a783          	lw	a5,148(a5)

	// printf("nCO,nGA ch:%u idx:%u %u,%u\n", channel, channel_map[channel], nCO,nGA);

	return (nGA << 24) | nCO;
 284:	03f57513          	andi	a0,a0,63
	uint8_t nGA = (uint8_t)(RF->TXCTUNE_GA_CTRL >> 10) & 0x7f;
 288:	83a9                	srli	a5,a5,0xa
	return (nGA << 24) | nCO;
 28a:	07f7f793          	andi	a5,a5,127
 28e:	07e2                	slli	a5,a5,0x18
}
 290:	8d5d                	or	a0,a0,a5
 292:	8082                	ret

00000294 <blink>:
	while( ((int32_t)( SysTick->CNT - targend )) < 0 );
#elif defined(CH32V20x) || defined(CH32V30x) || defined(CH32X03x) || defined(CH32L103) || defined(CH582_CH583) || defined(CH591_CH592) || defined(CH32H41x)
	uint64_t targend = SysTick->CNT + n;
	while( ((int64_t)( SysTick->CNT - targend )) < 0 );
#elif defined(CH32V10x) || defined(CH570_CH572) || defined(CH584_CH585)
	uint32_t targend = SysTick->CNTL + n;
 294:	0003c6b7          	lui	a3,0x3c
uint8_t adv_channels[] = {37,38,39};

uint8_t hex_lut[] = "0123456789ABCDEF";

void blink(int n) {
	for(int i = n-1; i >= 0; i--) {
 298:	157d                	addi	a0,a0,-1
		funDigitalWrite( LED, FUN_LOW ); // Turn on LED
 29a:	400017b7          	lui	a5,0x40001
 29e:	e000f737          	lui	a4,0xe000f
 2a2:	6cc68693          	addi	a3,a3,1740 # 3c6cc <iSLER.c.5eab49fd+0x3a256>
	for(int i = n-1; i >= 0; i--) {
 2a6:	587d                	li	a6,-1
		funDigitalWrite( LED, FUN_LOW ); // Turn on LED
 2a8:	0ac7a603          	lw	a2,172(a5) # 400010ac <_eusrstack+0x1fffe0ac>
 2ac:	20066613          	ori	a2,a2,512
 2b0:	0ac7a623          	sw	a2,172(a5)
 2b4:	470c                	lw	a1,8(a4)
 2b6:	95b6                	add	a1,a1,a3
	while( ((int32_t)( SysTick->CNTL - targend )) < 0 );
 2b8:	4710                	lw	a2,8(a4)
 2ba:	8e0d                	sub	a2,a2,a1
 2bc:	fe064ee3          	bltz	a2,2b8 <blink+0x24>
		Delay_Ms(33);
		funDigitalWrite( LED, FUN_HIGH ); // Turn off LED
 2c0:	0a87a603          	lw	a2,168(a5)
 2c4:	20066613          	ori	a2,a2,512
 2c8:	0ac7a423          	sw	a2,168(a5)
		if(i) Delay_Ms(33);
 2cc:	c519                	beqz	a0,2da <blink+0x46>
	uint32_t targend = SysTick->CNTL + n;
 2ce:	470c                	lw	a1,8(a4)
 2d0:	95b6                	add	a1,a1,a3
	while( ((int32_t)( SysTick->CNTL - targend )) < 0 );
 2d2:	4710                	lw	a2,8(a4)
 2d4:	8e0d                	sub	a2,a2,a1
 2d6:	fe064ee3          	bltz	a2,2d2 <blink+0x3e>
	for(int i = n-1; i >= 0; i--) {
 2da:	157d                	addi	a0,a0,-1
 2dc:	fd0516e3          	bne	a0,a6,2a8 <blink+0x14>
	}
}
 2e0:	8082                	ret

000002e2 <internal_handle_input.constprop.0>:
	uint32_t dmd0 = *dmdata0;
 2e2:	e00007b7          	lui	a5,0xe0000
 2e6:	3407a783          	lw	a5,832(a5) # e0000340 <_eusrstack+0xbfffd340>
}
 2ea:	8082                	ret

000002ec <_write.constprop.0>:
	if( ( *DMDATA0 & 0xc0 ) == 0xc0 ) return 0;
 2ec:	e0000737          	lui	a4,0xe0000
 2f0:	34072783          	lw	a5,832(a4) # e0000340 <_eusrstack+0xbfffd340>
WEAK int _write(int fd, const char *buf, int size)
 2f4:	7139                	addi	sp,sp,-64
 2f6:	de06                	sw	ra,60(sp)
 2f8:	dc22                	sw	s0,56(sp)
 2fa:	da26                	sw	s1,52(sp)
 2fc:	d84a                	sw	s2,48(sp)
 2fe:	d64e                	sw	s3,44(sp)
 300:	d452                	sw	s4,40(sp)
 302:	d256                	sw	s5,36(sp)
 304:	d05a                	sw	s6,32(sp)
 306:	ce5e                	sw	s7,28(sp)
 308:	cc62                	sw	s8,24(sp)
 30a:	ca66                	sw	s9,20(sp)
	if( ( *DMDATA0 & 0xc0 ) == 0xc0 ) return 0;
 30c:	0c07f793          	andi	a5,a5,192
 310:	0c000693          	li	a3,192
 314:	0ad78a63          	beq	a5,a3,3c8 <_write.constprop.0+0xdc>
	char buffer[4] = { 0 };
 318:	c602                	sw	zero,12(sp)
 31a:	842e                	mv	s0,a1
	if( size == 0 )
 31c:	e9c5                	bnez	a1,3cc <_write.constprop.0+0xe0>
		lastdmd = (*DMDATA0);
 31e:	34072783          	lw	a5,832(a4)
		if( lastdmd && !(lastdmd&0x80) ) internal_handle_input( (uint32_t*)DMDATA0 );
 322:	c789                	beqz	a5,32c <_write.constprop.0+0x40>
 324:	0807f793          	andi	a5,a5,128
 328:	e391                	bnez	a5,32c <_write.constprop.0+0x40>
 32a:	3f65                	jal	2e2 <internal_handle_input.constprop.0>
}
 32c:	50f2                	lw	ra,60(sp)
 32e:	8522                	mv	a0,s0
 330:	5462                	lw	s0,56(sp)
 332:	54d2                	lw	s1,52(sp)
 334:	5942                	lw	s2,48(sp)
 336:	59b2                	lw	s3,44(sp)
 338:	5a22                	lw	s4,40(sp)
 33a:	5a92                	lw	s5,36(sp)
 33c:	5b02                	lw	s6,32(sp)
 33e:	4bf2                	lw	s7,28(sp)
 340:	4c62                	lw	s8,24(sp)
 342:	4cd2                	lw	s9,20(sp)
 344:	6121                	addi	sp,sp,64
 346:	8082                	ret
		int tosend = size - place;
 348:	40940cb3          	sub	s9,s0,s1
 34c:	8966                	mv	s2,s9
 34e:	019ad363          	bge	s5,s9,354 <_write.constprop.0+0x68>
 352:	491d                	li	s2,7
 354:	001b0793          	addi	a5,s6,1
		while( ( lastdmd = (*DMDATA0) ) & 0x80 )
 358:	340a2703          	lw	a4,832(s4)
 35c:	340a0693          	addi	a3,s4,832
 360:	08077613          	andi	a2,a4,128
 364:	ee21                	bnez	a2,3bc <_write.constprop.0+0xd0>
		if( lastdmd ) internal_handle_input( (uint32_t*)DMDATA0 );
 366:	c311                	beqz	a4,36a <_write.constprop.0+0x7e>
 368:	3fad                	jal	2e2 <internal_handle_input.constprop.0>
			buffer[t-3] = buf[t+place];
 36a:	4601                	li	a2,0
 36c:	019bd463          	bge	s7,s9,374 <_write.constprop.0+0x88>
 370:	ffd90613          	addi	a2,s2,-3
 374:	00348593          	addi	a1,s1,3
 378:	95ce                	add	a1,a1,s3
 37a:	0068                	addi	a0,sp,12
 37c:	2905                	jal	7ac <memcpy>
		*DMDATA1 = *(uint32_t*)&(buffer[0]);
 37e:	47b2                	lw	a5,12(sp)
 380:	00998733          	add	a4,s3,s1
 384:	34fa2223          	sw	a5,836(s4)
		t = 0;
 388:	4781                	li	a5,0
			buffer[t+1] = buf[t+place];
 38a:	00074603          	lbu	a2,0(a4)
 38e:	0785                	addi	a5,a5,1
 390:	0074                	addi	a3,sp,12
 392:	96be                	add	a3,a3,a5
 394:	00c68023          	sb	a2,0(a3)
		while( t < tosend && t < 3 )
 398:	00f90563          	beq	s2,a5,3a2 <_write.constprop.0+0xb6>
 39c:	0705                	addi	a4,a4,1
 39e:	ff8796e3          	bne	a5,s8,38a <_write.constprop.0+0x9e>
		buffer[0] = 0x80 | (tosend + 4);
 3a2:	00490793          	addi	a5,s2,4
 3a6:	f807e793          	ori	a5,a5,-128
 3aa:	00f10623          	sb	a5,12(sp)
		*DMDATA0 = *(uint32_t*)&(buffer[0]);
 3ae:	47b2                	lw	a5,12(sp)
		place += tosend;
 3b0:	94ca                	add	s1,s1,s2
		*DMDATA0 = *(uint32_t*)&(buffer[0]);
 3b2:	34fa2023          	sw	a5,832(s4)
	while( place < size )
 3b6:	f884c9e3          	blt	s1,s0,348 <_write.constprop.0+0x5c>
 3ba:	bf8d                	j	32c <_write.constprop.0+0x40>
			if( timeout-- == 0 )
 3bc:	17fd                	addi	a5,a5,-1
 3be:	ffc9                	bnez	a5,358 <_write.constprop.0+0x6c>
				*DMDATA0 |= 0xc0;
 3c0:	429c                	lw	a5,0(a3)
 3c2:	0c07e793          	ori	a5,a5,192
 3c6:	c29c                	sw	a5,0(a3)
	if( ( *DMDATA0 & 0xc0 ) == 0xc0 ) return 0;
 3c8:	4401                	li	s0,0
 3ca:	b78d                	j	32c <_write.constprop.0+0x40>
 3cc:	89aa                	mv	s3,a0
	if( size == 0 )
 3ce:	4481                	li	s1,0
 3d0:	4a9d                	li	s5,7
		int tosend = size - place;
 3d2:	00100b37          	lui	s6,0x100
		while( ( lastdmd = (*DMDATA0) ) & 0x80 )
 3d6:	e0000a37          	lui	s4,0xe0000
			buffer[t-3] = buf[t+place];
 3da:	4b89                	li	s7,2
		while( t < tosend && t < 3 )
 3dc:	4c0d                	li	s8,3
 3de:	bfe1                	j	3b6 <_write.constprop.0+0xca>

000003e0 <__puts_uart>:
{
 3e0:	1141                	addi	sp,sp,-16
 3e2:	c422                	sw	s0,8(sp)
 3e4:	c606                	sw	ra,12(sp)
 3e6:	842e                	mv	s0,a1
	_write( 0, s, len );
 3e8:	3711                	jal	2ec <_write.constprop.0>
}
 3ea:	40b2                	lw	ra,12(sp)
 3ec:	8522                	mv	a0,s0
 3ee:	4422                	lw	s0,8(sp)
 3f0:	0141                	addi	sp,sp,16
 3f2:	8082                	ret

000003f4 <Frame_TX.constprop.0>:
#endif
	RF->RF11 &= 0xfffffffd;
	BB->CTRL_CFG = (BB->CTRL_CFG & 0xffffff80) | (channel & 0x7f);
}

void Frame_TX(uint8_t adv[], size_t len, uint8_t channel, uint8_t phy_mode) {
 3f4:	7179                	addi	sp,sp,-48
 3f6:	d226                	sw	s1,36(sp)
	__attribute__((aligned(4))) uint8_t  ADV_BUF[len+2]; // for the advertisement, which is 37 bytes + 2 header bytes

	BB->CTRL_TX = (BB->CTRL_TX & 0xfffffffc) | 1;
 3f8:	4000c4b7          	lui	s1,0x4000c
void Frame_TX(uint8_t adv[], size_t len, uint8_t channel, uint8_t phy_mode) {
 3fc:	d422                	sw	s0,40(sp)
	BB->CTRL_TX = (BB->CTRL_TX & 0xfffffffc) | 1;
 3fe:	10048413          	addi	s0,s1,256 # 4000c100 <_eusrstack+0x20009100>
 402:	5858                	lw	a4,52(s0)
void Frame_TX(uint8_t adv[], size_t len, uint8_t channel, uint8_t phy_mode) {
 404:	d606                	sw	ra,44(sp)
	BB->CTRL_CFG = (BB->CTRL_CFG & 0xffffff80) | (channel & 0x7f);
 406:	07f57513          	andi	a0,a0,127
	BB->CTRL_TX = (BB->CTRL_TX & 0xfffffffc) | 1;
 40a:	9b71                	andi	a4,a4,-4
 40c:	00176713          	ori	a4,a4,1
 410:	d858                	sw	a4,52(s0)
	RF->RF11 &= 0xfffffffd;
 412:	4000d737          	lui	a4,0x4000d
 416:	575c                	lw	a5,44(a4)
	memcpy(&ADV_BUF[2], adv, len);

#if defined(CH571_CH573)
	DMA->TXBUF = (uint32_t)ADV_BUF;
#else
	LL->FRAME_BUF = (uint32_t)ADV_BUF;
 418:	20048493          	addi	s1,s1,512
	RF->RF11 &= 0xfffffffd;
 41c:	9bf5                	andi	a5,a5,-3
 41e:	d75c                	sw	a5,44(a4)
	BB->CTRL_CFG = (BB->CTRL_CFG & 0xffffff80) | (channel & 0x7f);
 420:	f004a783          	lw	a5,-256(s1)
 424:	f807f793          	andi	a5,a5,-128
 428:	8fc9                	or	a5,a5,a0
 42a:	f0f4a023          	sw	a5,-256(s1)
	DevSetMode(DEVSETMODE_TX);
 42e:	25800513          	li	a0,600
 432:	3359                	jal	1b8 <DevSetMode>
	BB->ACCESSADDRESS1 = 0x8E89BED6; // access address
 434:	8e89c737          	lui	a4,0x8e89c
 438:	ed670713          	addi	a4,a4,-298 # 8e89bed6 <_eusrstack+0x6e898ed6>
	BB->CRCINIT1 = 0x555555; // crc init
 43c:	005557b7          	lui	a5,0x555
	BB->ACCESSADDRESS1 = 0x8E89BED6; // access address
 440:	c458                	sw	a4,12(s0)
	BB->CRCINIT1 = 0x555555; // crc init
 442:	55578793          	addi	a5,a5,1365 # 555555 <iSLER.c.5eab49fd+0x5530df>
 446:	c05c                	sw	a5,4(s0)
	BB->ACCESSADDRESS2 = 0x8E89BED6;
 448:	d038                	sw	a4,96(s0)
	BB->CRCINIT2 = 0x555555;
 44a:	cc3c                	sw	a5,88(s0)
	BB->CRCPOLY1 = (BB->CRCPOLY1 & 0xff000000) | 0x80032d; // crc poly
 44c:	4418                	lw	a4,8(s0)
 44e:	ff000637          	lui	a2,0xff000
 452:	008006b7          	lui	a3,0x800
 456:	32d68693          	addi	a3,a3,813 # 80032d <iSLER.c.5eab49fd+0x7fdeb7>
 45a:	8f71                	and	a4,a4,a2
 45c:	8f55                	or	a4,a4,a3
 45e:	c418                	sw	a4,8(s0)
	BB->CRCPOLY2 = (BB->CRCPOLY2 & 0xff000000) | 0x80032d;
 460:	4c7c                	lw	a5,92(s0)
	memcpy(&ADV_BUF[2], adv, len);
 462:	c0418593          	addi	a1,gp,-1020 # 20000000 <adv>
	BB->CRCPOLY2 = (BB->CRCPOLY2 & 0xff000000) | 0x80032d;
 466:	8ff1                	and	a5,a5,a2
 468:	8fd5                	or	a5,a5,a3
 46a:	cc7c                	sw	a5,92(s0)
	ADV_BUF[0] = 0x02; // PDU 0x00, 0x02, 0x06 seem to work, with only 0x02 showing up on the phone
 46c:	6405                	lui	s0,0x1
 46e:	30240793          	addi	a5,s0,770 # 1302 <_data_lma+0x386>
	memcpy(&ADV_BUF[2], adv, len);
 472:	464d                	li	a2,19
 474:	00a10513          	addi	a0,sp,10
	ADV_BUF[0] = 0x02; // PDU 0x00, 0x02, 0x06 seem to work, with only 0x02 showing up on the phone
 478:	00f11423          	sh	a5,8(sp)
	memcpy(&ADV_BUF[2], adv, len);
 47c:	2e05                	jal	7ac <memcpy>
	LL->FRAME_BUF = (uint32_t)ADV_BUF;
 47e:	003c                	addi	a5,sp,8
 480:	dcbc                	sw	a5,120(s1)
#endif

	// Wait for tuning bit to clear.
	for( int timeout = 3000; !(RF->RF26 & 0x1000000) && timeout >= 0; timeout-- );
 482:	4000d6b7          	lui	a3,0x4000d
	LL->FRAME_BUF = (uint32_t)ADV_BUF;
 486:	bba40793          	addi	a5,s0,-1094
	for( int timeout = 3000; !(RF->RF26 & 0x1000000) && timeout >= 0; timeout-- );
 48a:	01000637          	lui	a2,0x1000
 48e:	56b8                	lw	a4,104(a3)
 490:	8f71                	and	a4,a4,a2
 492:	e319                	bnez	a4,498 <Frame_TX.constprop.0+0xa4>
 494:	17fd                	addi	a5,a5,-1
 496:	ffe5                	bnez	a5,48e <Frame_TX.constprop.0+0x9a>
	}
#elif defined(CH571_CH573)
	BB->CTRL_CFG = CTRL_CFG_PHY_1M; // no 2M PHY on ch571/3
#else
	BB->CTRL_CFG = (phy_mode == PHY_2M) ? CTRL_CFG_PHY_2M:
										  CTRL_CFG_PHY_1M; // default 1M for now
 498:	4000c7b7          	lui	a5,0x4000c
 49c:	10078713          	addi	a4,a5,256 # 4000c100 <_eusrstack+0x20009100>
 4a0:	4314                	lw	a3,0(a4)
#endif

#if defined(CH570_CH572)
	BB->BB9 = (BB->BB9 & 0xf9ffffff) | ((phy_mode == PHY_2M) ? 0 : 0x2000000);
 4a2:	fa000637          	lui	a2,0xfa000
 4a6:	167d                	addi	a2,a2,-1
										  CTRL_CFG_PHY_1M; // default 1M for now
 4a8:	cff6f693          	andi	a3,a3,-769
	BB->CTRL_CFG = (phy_mode == PHY_2M) ? CTRL_CFG_PHY_2M:
 4ac:	1006e693          	ori	a3,a3,256
 4b0:	c314                	sw	a3,0(a4)
	BB->BB9 = (BB->BB9 & 0xf9ffffff) | ((phy_mode == PHY_2M) ? 0 : 0x2000000);
 4b2:	5354                	lw	a3,36(a4)
#if defined(CH571_CH573)
	BB->BB11 = (BB->BB11 & 0xfffffffc); // |2 for RX
#endif

	// This clears bit 17 (If set, seems to have no impact.)
	LL->LL4 &= 0xfffdffff;
 4b4:	20078793          	addi	a5,a5,512
	BB->BB9 = (BB->BB9 & 0xf9ffffff) | ((phy_mode == PHY_2M) ? 0 : 0x2000000);
 4b8:	8ef1                	and	a3,a3,a2
 4ba:	02000637          	lui	a2,0x2000
 4be:	8ed1                	or	a3,a3,a2
 4c0:	d354                	sw	a3,36(a4)
	LL->LL4 &= 0xfffdffff;
 4c2:	4b94                	lw	a3,16(a5)
 4c4:	7601                	lui	a2,0xfffe0
 4c6:	167d                	addi	a2,a2,-1
 4c8:	8ef1                	and	a3,a3,a2
 4ca:	cb94                	sw	a3,16(a5)

#if !defined(CH571_CH573)
	LL->STATUS = LL_STATUS_TX;
 4cc:	000206b7          	lui	a3,0x20
 4d0:	c794                	sw	a3,8(a5)
#endif
	LL->TMR = (uint32_t)(len *512); // needs optimisation, per phy mode
 4d2:	6689                	lui	a3,0x2
 4d4:	60068693          	addi	a3,a3,1536 # 2600 <iSLER.c.5eab49fd+0x18a>
 4d8:	d3f4                	sw	a3,100(a5)

	BB->CTRL_CFG |= CTRL_CFG_START_TX;
 4da:	4314                	lw	a3,0(a4)
 4dc:	01000637          	lui	a2,0x1000
 4e0:	8ed1                	or	a3,a3,a2
 4e2:	c314                	sw	a3,0(a4)
	BB->CTRL_TX &= 0xfffffffc;
 4e4:	5b54                	lw	a3,52(a4)
 4e6:	9af1                	andi	a3,a3,-4
 4e8:	db54                	sw	a3,52(a4)

	LL->LL0 = 2; // Not sure what this does, but on RX it's 1
 4ea:	4709                	li	a4,2
 4ec:	c398                	sw	a4,0(a5)

	while(LL->TMR); // wait for tx buffer to empty
 4ee:	4000c737          	lui	a4,0x4000c
 4f2:	20070413          	addi	s0,a4,512 # 4000c200 <_eusrstack+0x20009200>
 4f6:	507c                	lw	a5,100(s0)
 4f8:	ffed                	bnez	a5,4f2 <Frame_TX.constprop.0+0xfe>
	DevSetMode(0);
 4fa:	4501                	li	a0,0
 4fc:	3975                	jal	1b8 <DevSetMode>
	if(LL->LL0 & 3) {
 4fe:	401c                	lw	a5,0(s0)
 500:	8b8d                	andi	a5,a5,3
 502:	cb89                	beqz	a5,514 <Frame_TX.constprop.0+0x120>
		LL->CTRL_MOD &= CTRL_MOD_RFSTOP;
 504:	483c                	lw	a5,80(s0)
 506:	8ff7f793          	andi	a5,a5,-1793
 50a:	c83c                	sw	a5,80(s0)
		LL->LL0 |= 0x08;
 50c:	401c                	lw	a5,0(s0)
 50e:	0087e793          	ori	a5,a5,8
 512:	c01c                	sw	a5,0(s0)
	}
}
 514:	50b2                	lw	ra,44(sp)
 516:	5422                	lw	s0,40(sp)
 518:	5492                	lw	s1,36(sp)
 51a:	6145                	addi	sp,sp,48
 51c:	8082                	ret

0000051e <handle_reset>:
	asm volatile( "\n\
 51e:	20000197          	auipc	gp,0x20000
 522:	ede18193          	addi	gp,gp,-290 # 200003fc <__global_pointer$>
 526:	20003117          	auipc	sp,0x20003
 52a:	ada10113          	addi	sp,sp,-1318 # 20003000 <_eusrstack>
	asm volatile(
 52e:	c1c18513          	addi	a0,gp,-996 # 20000018 <rx_ready>
 532:	06818593          	addi	a1,gp,104 # 20000464 <_ebss>
 536:	00b57763          	bgeu	a0,a1,544 <handle_reset+0x26>
 53a:	00052023          	sw	zero,0(a0)
 53e:	0511                	addi	a0,a0,4
 540:	feb56de3          	bltu	a0,a1,53a <handle_reset+0x1c>
 544:	00001517          	auipc	a0,0x1
 548:	a3850513          	addi	a0,a0,-1480 # f7c <_data_lma>
 54c:	c0418593          	addi	a1,gp,-1020 # 20000000 <adv>
 550:	c1c18613          	addi	a2,gp,-996 # 20000018 <rx_ready>
 554:	00c58a63          	beq	a1,a2,568 <handle_reset+0x4a>
 558:	00052283          	lw	t0,0(a0)
 55c:	0055a023          	sw	t0,0(a1)
 560:	0511                	addi	a0,a0,4
 562:	0591                	addi	a1,a1,4
 564:	fec5eae3          	bltu	a1,a2,558 <handle_reset+0x3a>
	asm volatile(
 568:	00000793          	li	a5,0
 56c:	42fd                	li	t0,31
 56e:	bc029073          	csrw	0xbc0,t0
 572:	6289                	lui	t0,0x2
 574:	88828293          	addi	t0,t0,-1912 # 1888 <ch32fun.c.06290d3e+0x35d>
 578:	3002a073          	csrs	mstatus,t0
 57c:	00000297          	auipc	t0,0x0
 580:	a8428293          	addi	t0,t0,-1404 # 0 <InterruptVector>
 584:	0032e293          	ori	t0,t0,3
 588:	30529073          	csrw	mtvec,t0
	SysTick->CTLR = 1;
 58c:	e000f7b7          	lui	a5,0xe000f
 590:	4705                	li	a4,1
 592:	c398                	sw	a4,0(a5)
	asm volatile(
 594:	6785                	lui	a5,0x1
 596:	8d878793          	addi	a5,a5,-1832 # 8d8 <main>
 59a:	34179073          	csrw	mepc,a5
 59e:	30200073          	mret

000005a2 <ADC1_2_IRQHandler>:
	asm volatile( "1: j 1b" );
 5a2:	a001                	j	5a2 <ADC1_2_IRQHandler>

000005a4 <strlen>:
{
 5a4:	87aa                	mv	a5,a0
	for (; *s; s++);
 5a6:	0007c703          	lbu	a4,0(a5)
 5aa:	e701                	bnez	a4,5b2 <strlen+0xe>
}
 5ac:	40a78533          	sub	a0,a5,a0
 5b0:	8082                	ret
	for (; *s; s++);
 5b2:	0785                	addi	a5,a5,1
 5b4:	bfcd                	j	5a6 <strlen+0x2>

000005b6 <mini_vpprintf>:
{
 5b6:	7159                	addi	sp,sp,-112
 5b8:	d4a2                	sw	s0,104(sp)
 5ba:	d2a6                	sw	s1,100(sp)
 5bc:	d0ca                	sw	s2,96(sp)
 5be:	cece                	sw	s3,92(sp)
 5c0:	ccd2                	sw	s4,88(sp)
 5c2:	cad6                	sw	s5,84(sp)
 5c4:	c6de                	sw	s7,76(sp)
 5c6:	d686                	sw	ra,108(sp)
 5c8:	c8da                	sw	s6,80(sp)
 5ca:	c4e2                	sw	s8,72(sp)
 5cc:	c2e6                	sw	s9,68(sp)
 5ce:	c0ea                	sw	s10,64(sp)
 5d0:	84aa                	mv	s1,a0
 5d2:	892e                	mv	s2,a1
 5d4:	8432                	mv	s0,a2
 5d6:	8bb6                	mv	s7,a3
	int n = 0;
 5d8:	4981                	li	s3,0
		if (ch!='%') {
 5da:	02500a13          	li	s4,37
				pad_to = pad_to * 10 + (ch - '0');
 5de:	4aa9                	li	s5,10
	while ((ch=*(fmt++))) {
 5e0:	00044783          	lbu	a5,0(s0)
 5e4:	00140c13          	addi	s8,s0,1
 5e8:	00f107a3          	sb	a5,15(sp)
 5ec:	e385                	bnez	a5,60c <mini_vpprintf+0x56>
}
 5ee:	50b6                	lw	ra,108(sp)
 5f0:	5426                	lw	s0,104(sp)
 5f2:	5496                	lw	s1,100(sp)
 5f4:	5906                	lw	s2,96(sp)
 5f6:	4a66                	lw	s4,88(sp)
 5f8:	4ad6                	lw	s5,84(sp)
 5fa:	4b46                	lw	s6,80(sp)
 5fc:	4bb6                	lw	s7,76(sp)
 5fe:	4c26                	lw	s8,72(sp)
 600:	4c96                	lw	s9,68(sp)
 602:	4d06                	lw	s10,64(sp)
 604:	854e                	mv	a0,s3
 606:	49f6                	lw	s3,92(sp)
 608:	6165                	addi	sp,sp,112
 60a:	8082                	ret
		if (ch!='%') {
 60c:	01478c63          	beq	a5,s4,624 <mini_vpprintf+0x6e>
			len = puts(&ch, len, buf);
 610:	864a                	mv	a2,s2
 612:	4585                	li	a1,1
 614:	00f10513          	addi	a0,sp,15
 618:	9482                	jalr	s1
 61a:	8b5e                	mv	s6,s7
	while ((ch=*(fmt++))) {
 61c:	8462                	mv	s0,s8
		n = n + len;
 61e:	99aa                	add	s3,s3,a0
 620:	8bda                	mv	s7,s6
 622:	bf7d                	j	5e0 <mini_vpprintf+0x2a>
			ch=*(fmt++);
 624:	00144783          	lbu	a5,1(s0)
			if (ch == '0') pad_char = '0';
 628:	03000693          	li	a3,48
			ch=*(fmt++);
 62c:	00240713          	addi	a4,s0,2
 630:	00f107a3          	sb	a5,15(sp)
			if (ch == '0') pad_char = '0';
 634:	03000c13          	li	s8,48
 638:	06d79f63          	bne	a5,a3,6b6 <mini_vpprintf+0x100>
				ch=*(fmt++);
 63c:	843a                	mv	s0,a4
 63e:	4d01                	li	s10,0
 640:	4701                	li	a4,0
			while (ch >= '0' && ch <= '9') {
 642:	4625                	li	a2,9
 644:	a801                	j	654 <mini_vpprintf+0x9e>
				pad_to = pad_to * 10 + (ch - '0');
 646:	035d0d33          	mul	s10,s10,s5
				ch=*(fmt++);
 64a:	00044783          	lbu	a5,0(s0)
 64e:	0405                	addi	s0,s0,1
 650:	4705                	li	a4,1
				pad_to = pad_to * 10 + (ch - '0');
 652:	9d36                	add	s10,s10,a3
			while (ch >= '0' && ch <= '9') {
 654:	fd078693          	addi	a3,a5,-48
 658:	0ff6f593          	andi	a1,a3,255
 65c:	feb675e3          	bgeu	a2,a1,646 <mini_vpprintf+0x90>
 660:	c319                	beqz	a4,666 <mini_vpprintf+0xb0>
 662:	00f107a3          	sb	a5,15(sp)
			if(pad_to > (signed int) sizeof(bf)) {
 666:	4761                	li	a4,24
 668:	8cea                	mv	s9,s10
 66a:	01a75363          	bge	a4,s10,670 <mini_vpprintf+0xba>
 66e:	4ce1                	li	s9,24
			if (ch == 'l') {
 670:	06c00693          	li	a3,108
			char l = 0;
 674:	4701                	li	a4,0
			if (ch == 'l') {
 676:	00d79863          	bne	a5,a3,686 <mini_vpprintf+0xd0>
				ch=*(fmt++);
 67a:	00044783          	lbu	a5,0(s0)
				l = 1;
 67e:	4705                	li	a4,1
				ch=*(fmt++);
 680:	0405                	addi	s0,s0,1
 682:	00f107a3          	sb	a5,15(sp)
			switch (ch) {
 686:	00f14683          	lbu	a3,15(sp)
 68a:	06400793          	li	a5,100
 68e:	06f68163          	beq	a3,a5,6f0 <mini_vpprintf+0x13a>
 692:	02d7e563          	bltu	a5,a3,6bc <mini_vpprintf+0x106>
 696:	05800793          	li	a5,88
 69a:	08f68c63          	beq	a3,a5,732 <mini_vpprintf+0x17c>
 69e:	06300793          	li	a5,99
 6a2:	0af68963          	beq	a3,a5,754 <mini_vpprintf+0x19e>
 6a6:	d6a1                	beqz	a3,5ee <mini_vpprintf+0x38>
					len = puts(&ch, len, buf);
 6a8:	864a                	mv	a2,s2
 6aa:	4585                	li	a1,1
 6ac:	00f10513          	addi	a0,sp,15
 6b0:	9482                	jalr	s1
 6b2:	8b5e                	mv	s6,s7
 6b4:	b7ad                	j	61e <mini_vpprintf+0x68>
			char pad_char = ' ';
 6b6:	02000c13          	li	s8,32
 6ba:	b749                	j	63c <mini_vpprintf+0x86>
			switch (ch) {
 6bc:	07500793          	li	a5,117
 6c0:	02f68863          	beq	a3,a5,6f0 <mini_vpprintf+0x13a>
 6c4:	07800793          	li	a5,120
 6c8:	06f68563          	beq	a3,a5,732 <mini_vpprintf+0x17c>
 6cc:	07300793          	li	a5,115
 6d0:	fcf69ce3          	bne	a3,a5,6a8 <mini_vpprintf+0xf2>
					ptr = va_arg(va, char*);
 6d4:	004b8b13          	addi	s6,s7,4
 6d8:	000bab83          	lw	s7,0(s7)
					len = mini_strlen(ptr);
 6dc:	855e                	mv	a0,s7
 6de:	35d9                	jal	5a4 <strlen>
 6e0:	85aa                	mv	a1,a0
					if (pad_to > 0) {
 6e2:	080d0663          	beqz	s10,76e <mini_vpprintf+0x1b8>
						len = mini_pad(ptr, len, pad_char, pad_to, bf);
 6e6:	1038                	addi	a4,sp,40
 6e8:	86e6                	mv	a3,s9
 6ea:	8662                	mv	a2,s8
 6ec:	855e                	mv	a0,s7
 6ee:	a01d                	j	714 <mini_vpprintf+0x15e>
						len = mini_itoa(va_arg(va, unsigned long), 10, 0, (ch=='u'), bf2);
 6f0:	004b8b13          	addi	s6,s7,4
					if(l) {
 6f4:	c715                	beqz	a4,720 <mini_vpprintf+0x16a>
						len = mini_itoa(va_arg(va, unsigned long), 10, 0, (ch=='u'), bf2);
 6f6:	f8b68693          	addi	a3,a3,-117
 6fa:	0818                	addi	a4,sp,16
 6fc:	0016b693          	seqz	a3,a3
 700:	000ba503          	lw	a0,0(s7)
 704:	4601                	li	a2,0
 706:	45a9                	li	a1,10
 708:	340d                	jal	12a <mini_itoa.part.0>
					len = mini_pad(bf2, len, pad_char, pad_to, bf);
 70a:	1038                	addi	a4,sp,40
 70c:	86e6                	mv	a3,s9
 70e:	8662                	mv	a2,s8
 710:	85aa                	mv	a1,a0
					len = mini_pad(bf2, len, pad_char, pad_to, bf);
 712:	0808                	addi	a0,sp,16
 714:	3ab5                	jal	90 <mini_pad>
 716:	85aa                	mv	a1,a0
					len = puts(bf, len, buf);
 718:	864a                	mv	a2,s2
 71a:	1028                	addi	a0,sp,40
 71c:	9482                	jalr	s1
					break;
 71e:	b701                	j	61e <mini_vpprintf+0x68>
						if(ch == 'u') {
 720:	07500793          	li	a5,117
 724:	0818                	addi	a4,sp,16
 726:	00f69463          	bne	a3,a5,72e <mini_vpprintf+0x178>
	if (radix > 16)
 72a:	4685                	li	a3,1
 72c:	bfd1                	j	700 <mini_vpprintf+0x14a>
 72e:	4681                	li	a3,0
 730:	bfc1                	j	700 <mini_vpprintf+0x14a>
					if(l) {
 732:	000ba503          	lw	a0,0(s7)
						len = mini_itoa(va_arg(va, unsigned long), 16, (ch=='X'), 1, bf2);
 736:	fa868613          	addi	a2,a3,-88
 73a:	0818                	addi	a4,sp,16
 73c:	4685                	li	a3,1
 73e:	00163613          	seqz	a2,a2
 742:	45c1                	li	a1,16
 744:	32dd                	jal	12a <mini_itoa.part.0>
						len = mini_itoa(va_arg(va, unsigned long), 10, 0, (ch=='u'), bf2);
 746:	004b8b13          	addi	s6,s7,4
	if (radix > 16)
 74a:	85aa                	mv	a1,a0
					len = mini_pad(bf2, len, pad_char, pad_to, bf);
 74c:	1038                	addi	a4,sp,40
 74e:	86e6                	mv	a3,s9
 750:	8662                	mv	a2,s8
 752:	b7c1                	j	712 <mini_vpprintf+0x15c>
					ch = (char)(va_arg(va, int));
 754:	000ba783          	lw	a5,0(s7)
 758:	004b8b13          	addi	s6,s7,4
					len = mini_pad(&ch, 1, pad_char, pad_to, bf);
 75c:	1038                	addi	a4,sp,40
					ch = (char)(va_arg(va, int));
 75e:	00f107a3          	sb	a5,15(sp)
					len = mini_pad(&ch, 1, pad_char, pad_to, bf);
 762:	86e6                	mv	a3,s9
 764:	8662                	mv	a2,s8
 766:	4585                	li	a1,1
 768:	00f10513          	addi	a0,sp,15
 76c:	b765                	j	714 <mini_vpprintf+0x15e>
						len = puts(ptr, len, buf);
 76e:	864a                	mv	a2,s2
 770:	855e                	mv	a0,s7
 772:	b76d                	j	71c <mini_vpprintf+0x166>

00000774 <printf>:
{
 774:	7139                	addi	sp,sp,-64
 776:	d432                	sw	a2,40(sp)
	int ret_status = mini_vpprintf(__puts_uart, 0, format, args);
 778:	862a                	mv	a2,a0
{
 77a:	d22e                	sw	a1,36(sp)
 77c:	d636                	sw	a3,44(sp)
	int ret_status = mini_vpprintf(__puts_uart, 0, format, args);
 77e:	4581                	li	a1,0
	va_start( args, format );
 780:	1054                	addi	a3,sp,36
	int ret_status = mini_vpprintf(__puts_uart, 0, format, args);
 782:	3e000513          	li	a0,992
{
 786:	ce06                	sw	ra,28(sp)
 788:	d83a                	sw	a4,48(sp)
 78a:	da3e                	sw	a5,52(sp)
 78c:	dc42                	sw	a6,56(sp)
 78e:	de46                	sw	a7,60(sp)
	va_start( args, format );
 790:	c636                	sw	a3,12(sp)
	int ret_status = mini_vpprintf(__puts_uart, 0, format, args);
 792:	3515                	jal	5b6 <mini_vpprintf>
}
 794:	40f2                	lw	ra,28(sp)
 796:	6121                	addi	sp,sp,64
 798:	8082                	ret

0000079a <memset>:
WEAK void *memset(void *dest, int c, size_t n) { unsigned char *s = dest; for (; n; n--, s++) *s = c; return dest; }
 79a:	962a                	add	a2,a2,a0
 79c:	87aa                	mv	a5,a0
 79e:	00c79363          	bne	a5,a2,7a4 <memset+0xa>
 7a2:	8082                	ret
 7a4:	00b78023          	sb	a1,0(a5)
 7a8:	0785                	addi	a5,a5,1
 7aa:	bfd5                	j	79e <memset+0x4>

000007ac <memcpy>:
{
 7ac:	4781                	li	a5,0
	for (; n; n--) *d++ = *s++;
 7ae:	00f61363          	bne	a2,a5,7b4 <memcpy+0x8>
}
 7b2:	8082                	ret
	for (; n; n--) *d++ = *s++;
 7b4:	00f58733          	add	a4,a1,a5
 7b8:	00074683          	lbu	a3,0(a4)
 7bc:	00f50733          	add	a4,a0,a5
 7c0:	0785                	addi	a5,a5,1
 7c2:	00d70023          	sb	a3,0(a4)
 7c6:	b7e5                	j	7ae <memcpy+0x2>

000007c8 <puts>:
{
 7c8:	1141                	addi	sp,sp,-16
 7ca:	c606                	sw	ra,12(sp)
 7cc:	c422                	sw	s0,8(sp)
 7ce:	c226                	sw	s1,4(sp)
 7d0:	84aa                	mv	s1,a0
	int sl = strlen( s );
 7d2:	3bc9                	jal	5a4 <strlen>
 7d4:	842a                	mv	s0,a0
	_write(0, s, sl );
 7d6:	85aa                	mv	a1,a0
 7d8:	8526                	mv	a0,s1
 7da:	3e09                	jal	2ec <_write.constprop.0>
	_write(0, "\n", 1 );
 7dc:	6505                	lui	a0,0x1
 7de:	4585                	li	a1,1
 7e0:	ef850513          	addi	a0,a0,-264 # ef8 <LLE_IRQHandler+0x8e>
 7e4:	3621                	jal	2ec <_write.constprop.0>
}
 7e6:	40b2                	lw	ra,12(sp)
 7e8:	00140513          	addi	a0,s0,1
 7ec:	4422                	lw	s0,8(sp)
 7ee:	4492                	lw	s1,4(sp)
 7f0:	0141                	addi	sp,sp,16
 7f2:	8082                	ret

000007f4 <putchar>:
	if( ( *DMDATA0 & 0xc0 ) == 0xc0 ) return 0;
 7f4:	e00007b7          	lui	a5,0xe0000
 7f8:	3407a783          	lw	a5,832(a5) # e0000340 <_eusrstack+0xbfffd340>
 7fc:	0c000713          	li	a4,192
 800:	0c07f793          	andi	a5,a5,192
 804:	04e78c63          	beq	a5,a4,85c <putchar+0x68>
{
 808:	1141                	addi	sp,sp,-16
	if( ( *DMDATA0 & 0xc0 ) == 0xc0 ) return 0;
 80a:	001007b7          	lui	a5,0x100
{
 80e:	c422                	sw	s0,8(sp)
 810:	c606                	sw	ra,12(sp)
 812:	842a                	mv	s0,a0
	if( ( *DMDATA0 & 0xc0 ) == 0xc0 ) return 0;
 814:	0785                	addi	a5,a5,1
	while( ( lastdmd = (*DMDATA0) ) & 0x80 )
 816:	e00006b7          	lui	a3,0xe0000
 81a:	3406a703          	lw	a4,832(a3) # e0000340 <_eusrstack+0xbfffd340>
 81e:	34068613          	addi	a2,a3,832
 822:	08077593          	andi	a1,a4,128
 826:	e185                	bnez	a1,846 <putchar+0x52>
	if( lastdmd ) internal_handle_input( (uint32_t*)DMDATA0 );
 828:	c311                	beqz	a4,82c <putchar+0x38>
 82a:	3c65                	jal	2e2 <internal_handle_input.constprop.0>
	*DMDATA0 = 0x85 | ((const char)c<<8);
 82c:	6541                	lui	a0,0x10
 82e:	157d                	addi	a0,a0,-1
 830:	00841793          	slli	a5,s0,0x8
 834:	8fe9                	and	a5,a5,a0
 836:	0857e793          	ori	a5,a5,133
 83a:	e0000737          	lui	a4,0xe0000
 83e:	34f72023          	sw	a5,832(a4) # e0000340 <_eusrstack+0xbfffd340>
	return 1;
 842:	4505                	li	a0,1
 844:	a801                	j	854 <putchar+0x60>
		if( timeout-- == 0 )
 846:	17fd                	addi	a5,a5,-1
 848:	fbe9                	bnez	a5,81a <putchar+0x26>
			*DMDATA0 |= 0xc0;
 84a:	421c                	lw	a5,0(a2)
 84c:	4501                	li	a0,0
 84e:	0c07e793          	ori	a5,a5,192
 852:	c21c                	sw	a5,0(a2)
}
 854:	40b2                	lw	ra,12(sp)
 856:	4422                	lw	s0,8(sp)
 858:	0141                	addi	sp,sp,16
 85a:	8082                	ret
	if( ( *DMDATA0 & 0xc0 ) == 0xc0 ) return 0;
 85c:	4501                	li	a0,0
}
 85e:	8082                	ret

00000860 <SystemInit>:
	}
	else
	{
		if((sc & RB_CLK_SYS_MOD) == 0x40) // PLL div
		{
			SYS_SAFE_ACCESS(
 860:	400017b7          	lui	a5,0x40001
 864:	05700593          	li	a1,87
 868:	04b78023          	sb	a1,64(a5) # 40001040 <_eusrstack+0x1fffe040>
 86c:	fa800613          	li	a2,-88
 870:	04c78023          	sb	a2,64(a5)
 874:	0001                	nop
 876:	0001                	nop
 878:	00a7c703          	lbu	a4,10(a5)
 87c:	400026b7          	lui	a3,0x40002
 880:	0ff77713          	andi	a4,a4,255
 884:	01076713          	ori	a4,a4,16
 888:	00e78523          	sb	a4,10(a5)
 88c:	4705                	li	a4,1
 88e:	80e683a3          	sb	a4,-2041(a3) # 40001807 <_eusrstack+0x1fffe807>
 892:	8056c703          	lbu	a4,-2043(a3)
 896:	0ff77713          	andi	a4,a4,255
 89a:	01076713          	ori	a4,a4,16
 89e:	80e682a3          	sb	a4,-2043(a3)
 8a2:	04078023          	sb	zero,64(a5)
 8a6:	0001                	nop
 8a8:	0001                	nop
		{
			SYS_SAFE_ACCESS(
				R8_FLASH_CFG = (sc & 0x1F) ? 0x02 : 0x07;
			);
		}
		SYS_SAFE_ACCESS(
 8aa:	04b78023          	sb	a1,64(a5)
 8ae:	04c78023          	sb	a2,64(a5)
 8b2:	0001                	nop
 8b4:	0001                	nop
 8b6:	04a00713          	li	a4,74
 8ba:	00e78423          	sb	a4,8(a5)
 8be:	04078023          	sb	zero,64(a5)
 8c2:	0001                	nop
 8c4:	0001                	nop
	*DMDATA1 = 0x00;
 8c6:	e00007b7          	lui	a5,0xe0000
 8ca:	3407a223          	sw	zero,836(a5) # e0000344 <_eusrstack+0xbfffd344>
	*DMDATA0 = 0x80;
 8ce:	08000713          	li	a4,128
 8d2:	34e7a023          	sw	a4,832(a5)
	SetupDebugPrintf();
#endif
#if defined(FUNCONF_SUPPORT_CONSTRUCTORS) && FUNCONF_SUPPORT_CONSTRUCTORS
	CallConstructors();
#endif
}
 8d6:	8082                	ret

000008d8 <main>:
		}
	}
}

int main()
{
 8d8:	7119                	addi	sp,sp,-128
 8da:	de86                	sw	ra,124(sp)
 8dc:	dca2                	sw	s0,120(sp)
 8de:	daa6                	sw	s1,116(sp)
 8e0:	d8ca                	sw	s2,112(sp)
 8e2:	d6ce                	sw	s3,108(sp)
 8e4:	d4d2                	sw	s4,104(sp)
 8e6:	d2d6                	sw	s5,100(sp)
 8e8:	d0da                	sw	s6,96(sp)
 8ea:	cede                	sw	s7,92(sp)
 8ec:	cce2                	sw	s8,88(sp)
 8ee:	cae6                	sw	s9,84(sp)
 8f0:	c8ea                	sw	s10,80(sp)
 8f2:	c6ee                	sw	s11,76(sp)
	SystemInit();
 8f4:	37b5                	jal	860 <SystemInit>
		*(&R32_PA_PD_DRV + OFFSET_FOR_GPIOB(pin)) |= (pin & ~PB);
		*(&R32_PA_PU + OFFSET_FOR_GPIOB(pin))     &= ~(pin & ~PB);
		*(&R32_PA_DIR + OFFSET_FOR_GPIOB(pin))    &= ~(pin & ~PB);
		break;
	case GPIO_ModeOut_PP_5mA:
		*(&R32_PA_PD_DRV + OFFSET_FOR_GPIOB(pin)) &= ~(pin & ~PB);
 8f6:	400017b7          	lui	a5,0x40001
 8fa:	08078793          	addi	a5,a5,128 # 40001080 <_eusrstack+0x1fffe080>
 8fe:	5bd8                	lw	a4,52(a5)
	LL->LL5 = 0x8c;
 900:	4000c6b7          	lui	a3,0x4000c
	LL->LL7 = 0x76;
 904:	07600613          	li	a2,118
 908:	dff77713          	andi	a4,a4,-513
 90c:	dbd8                	sw	a4,52(a5)
		*(&R32_PA_DIR + OFFSET_FOR_GPIOB(pin))    |= (pin & ~PB);
 90e:	5398                	lw	a4,32(a5)
	RF->RF10 = 0x480;
 910:	4000d437          	lui	s0,0x4000d
 914:	20076713          	ori	a4,a4,512
 918:	d398                	sw	a4,32(a5)
	LL->LL5 = 0x8c;
 91a:	20068793          	addi	a5,a3,512 # 4000c200 <_eusrstack+0x20009200>
 91e:	08c00713          	li	a4,140
 922:	cbd8                	sw	a4,20(a5)
	LL->LL7 = 0x76;
 924:	cfd0                	sw	a2,28(a5)
	LL->LL9 = 0x8c;
 926:	d3d8                	sw	a4,36(a5)
	LL->LL13 = 0x8c;
 928:	dbd8                	sw	a4,52(a5)
	LL->LL17 = 0x8c;
 92a:	c3f8                	sw	a4,68(a5)
	LL->LL19 = 0x76;
 92c:	c7f0                	sw	a2,76(a5)
	LL->LL11 = 0x6c;
 92e:	06c00713          	li	a4,108
 932:	d7d8                	sw	a4,44(a5)
	LL->LL15 = 0x6c;
 934:	dfd8                	sw	a4,60(a5)
	LL->LL1 = 0x78;
 936:	07800713          	li	a4,120
 93a:	c3d8                	sw	a4,4(a5)
	LL->INT_EN = 0x16000f;
 93c:	00160737          	lui	a4,0x160
	LL->LL21 = 0;
 940:	0407aa23          	sw	zero,84(a5)
	LL->INT_EN = 0x16000f;
 944:	073d                	addi	a4,a4,15
 946:	c7d8                	sw	a4,12(a5)
	LL->STATE_BUF = (uint32_t)LLE_BUF;
 948:	c2818713          	addi	a4,gp,-984 # 20000024 <LLE_BUF>
 94c:	dff8                	sw	a4,124(a5)
	LL->STATUS = 0xffffffff;
 94e:	577d                	li	a4,-1
 950:	c798                	sw	a4,8(a5)
	RF->RF10 = 0x480;
 952:	48000793          	li	a5,1152
 956:	d41c                	sw	a5,40(s0)
	RF->RF12 &= 0xfff9ffff;
 958:	581c                	lw	a5,48(s0)
 95a:	fffa0737          	lui	a4,0xfffa0
 95e:	177d                	addi	a4,a4,-1
 960:	8ff9                	and	a5,a5,a4
 962:	d81c                	sw	a5,48(s0)
	RF->RF12 |= 0x70000000;
 964:	581c                	lw	a5,48(s0)
 966:	70000737          	lui	a4,0x70000
	RF->RF15 = (RF->RF15 & 0xf8ffffff) | 0x2000000;
 96a:	02000637          	lui	a2,0x2000
	RF->RF12 |= 0x70000000;
 96e:	8fd9                	or	a5,a5,a4
 970:	d81c                	sw	a5,48(s0)
	RF->RF15 = (RF->RF15 & 0xf8ffffff) | 0x2000000;
 972:	5c58                	lw	a4,60(s0)
 974:	f90007b7          	lui	a5,0xf9000
 978:	17fd                	addi	a5,a5,-1
 97a:	8f7d                	and	a4,a4,a5
 97c:	8f51                	or	a4,a4,a2
 97e:	dc58                	sw	a4,60(s0)
	RF->RF15 = (RF->RF15 & 0x1fffffff) | 0x40000000;
 980:	5c5c                	lw	a5,60(s0)
 982:	40000737          	lui	a4,0x40000
	BB->BB14 = 0x2020c;
 986:	00020937          	lui	s2,0x20
	RF->RF15 = (RF->RF15 & 0x1fffffff) | 0x40000000;
 98a:	078e                	slli	a5,a5,0x3
 98c:	838d                	srli	a5,a5,0x3
 98e:	8fd9                	or	a5,a5,a4
 990:	dc5c                	sw	a5,60(s0)
	RF->RF18 &= 0xfff8ffff;
 992:	443c                	lw	a5,72(s0)
 994:	fff90737          	lui	a4,0xfff90
 998:	177d                	addi	a4,a4,-1
 99a:	8ff9                	and	a5,a5,a4
 99c:	c43c                	sw	a5,72(s0)
	RF->RF20 = (RF->RF20 & 0xfffff8ff) | 0x300;
 99e:	4838                	lw	a4,80(s0)
	BB->CTRL_TX = (BB->CTRL_TX & 0x1ffffff) | (TxPower | 0x40) << 0x19;
 9a0:	167d                	addi	a2,a2,-1
	NVIC->VTFIDR[3] = 0x14;
 9a2:	4ad1                	li	s5,20
	RF->RF20 = (RF->RF20 & 0xfffff8ff) | 0x300;
 9a4:	8ff77713          	andi	a4,a4,-1793
 9a8:	30076713          	ori	a4,a4,768
 9ac:	c838                	sw	a4,80(s0)
	RF->RF23 |= 0x70000;
 9ae:	4c7c                	lw	a5,92(s0)
 9b0:	00070737          	lui	a4,0x70
	DevSetMode(DEVSETMODE_TUNE);
 9b4:	55800513          	li	a0,1368
	RF->RF23 |= 0x70000;
 9b8:	8fd9                	or	a5,a5,a4
 9ba:	cc7c                	sw	a5,92(s0)
	RF->RF23 |= 0x700000;
 9bc:	4c7c                	lw	a5,92(s0)
 9be:	00700737          	lui	a4,0x700
 9c2:	c2818493          	addi	s1,gp,-984 # 20000024 <LLE_BUF>
 9c6:	8fd9                	or	a5,a5,a4
 9c8:	cc7c                	sw	a5,92(s0)
	BB->BB14 = 0x2020c;
 9ca:	10068713          	addi	a4,a3,256
 9ce:	20c90793          	addi	a5,s2,524 # 2020c <iSLER.c.5eab49fd+0x1dd96>
 9d2:	df1c                	sw	a5,56(a4)
	BB->BB15 = 0x50;
 9d4:	05000793          	li	a5,80
 9d8:	df5c                	sw	a5,60(a4)
	BB->CTRL_TX = (BB->CTRL_TX & 0x1ffffff) | (TxPower | 0x40) << 0x19;
 9da:	5b5c                	lw	a5,52(a4)
 9dc:	8ff1                	and	a5,a5,a2
 9de:	a4000637          	lui	a2,0xa4000
 9e2:	8fd1                	or	a5,a5,a2
 9e4:	db5c                	sw	a5,52(a4)
	BB->CTRL_CFG &= 0xfffffcff;
 9e6:	1006a703          	lw	a4,256(a3)
	NVIC->VTFIDR[3] = 0x14;
 9ea:	e000e7b7          	lui	a5,0xe000e
	BB->CTRL_CFG &= 0xfffffcff;
 9ee:	cff77713          	andi	a4,a4,-769
 9f2:	10e6a023          	sw	a4,256(a3)
	NVIC->VTFIDR[3] = 0x14;
 9f6:	055789a3          	sb	s5,83(a5) # e000e053 <_eusrstack+0xc000b053>
	DevSetMode(DEVSETMODE_TUNE);
 9fa:	fbeff0ef          	jal	ra,1b8 <DevSetMode>
	RF->RF1 &= 0xfffffeff;
 9fe:	4058                	lw	a4,4(s0)
	RF->RF10 &= 0xffffefff;
 a00:	76fd                	lui	a3,0xfffff
 a02:	16fd                	addi	a3,a3,-1
	RF->RF1 &= 0xfffffeff;
 a04:	eff77713          	andi	a4,a4,-257
 a08:	c058                	sw	a4,4(s0)
	RF->RF10 &= 0xffffefff;
 a0a:	5418                	lw	a4,40(s0)
	uint32_t tune2401 = RFEND_TXCTune(37);
 a0c:	02500513          	li	a0,37
	RF->RF10 &= 0xffffefff;
 a10:	8f75                	and	a4,a4,a3
 a12:	d418                	sw	a4,40(s0)
	RF->RF11 &= 0xffffffef;
 a14:	5458                	lw	a4,44(s0)
 a16:	9b3d                	andi	a4,a4,-17
 a18:	d458                	sw	a4,44(s0)
	RF->RF2 |= 0x20000;
 a1a:	441c                	lw	a5,8(s0)
 a1c:	0127e7b3          	or	a5,a5,s2
 a20:	c41c                	sw	a5,8(s0)
	RF->RF1 |= 0x10;
 a22:	405c                	lw	a5,4(s0)
 a24:	0107e793          	ori	a5,a5,16
 a28:	c05c                	sw	a5,4(s0)
	uint32_t tune2401 = RFEND_TXCTune(37);
 a2a:	fe0ff0ef          	jal	ra,20a <RFEND_TXCTune>
 a2e:	842a                	mv	s0,a0
	uint8_t nGA2401 = (uint8_t)(tune2401 >> 24) & 0x7f;
 a30:	01855a13          	srli	s4,a0,0x18
	uint32_t tune2480 = RFEND_TXCTune(39);
 a34:	02700513          	li	a0,39
 a38:	fd2ff0ef          	jal	ra,20a <RFEND_TXCTune>
 a3c:	8b2a                	mv	s6,a0
	uint8_t nGA2480 = (uint8_t)(tune2480 >> 24) & 0x7f;
 a3e:	01855c13          	srli	s8,a0,0x18
	uint32_t tune2440 = RFEND_TXCTune(18);
 a42:	4549                	li	a0,18
 a44:	fc6ff0ef          	jal	ra,20a <RFEND_TXCTune>
	uint8_t nCO2440 = (uint8_t)(tune2440 & 0x3f);
 a48:	03f57b93          	andi	s7,a0,63
	uint8_t nGA2440 = (uint8_t)(tune2440 >> 24) & 0x7f;
 a4c:	01855993          	srli	s3,a0,0x18
	uint8_t txctune_co[sizeof(RF->TXCTUNE_CO)] = {0};
 a50:	02400613          	li	a2,36
 a54:	4581                	li	a1,0
	uint32_t tune2440 = RFEND_TXCTune(18);
 a56:	892a                	mv	s2,a0
	uint32_t dCO0140 = nCO2401 - nCO2440;
 a58:	03f47413          	andi	s0,s0,63
	uint8_t txctune_co[sizeof(RF->TXCTUNE_CO)] = {0};
 a5c:	0868                	addi	a0,sp,28
	uint32_t dCO0140 = nCO2401 - nCO2440;
 a5e:	41740433          	sub	s0,s0,s7
	uint8_t txctune_co[sizeof(RF->TXCTUNE_CO)] = {0};
 a62:	cc02                	sw	zero,24(sp)
 a64:	3b1d                	jal	79a <memset>
 a66:	03540733          	mul	a4,s0,s5
	uint32_t dCO4080 = nCO2440 - nCO2480;
 a6a:	03fb7b13          	andi	s6,s6,63
		txctune_co[f] = tune | (tune << 4);
 a6e:	6605                	lui	a2,0x1
	uint8_t nGA2401 = (uint8_t)(tune2401 >> 24) & 0x7f;
 a70:	07fa7a13          	andi	s4,s4,127
	uint8_t nGA2480 = (uint8_t)(tune2480 >> 24) & 0x7f;
 a74:	07fc7c13          	andi	s8,s8,127
	uint8_t nGA2440 = (uint8_t)(tune2440 >> 24) & 0x7f;
 a78:	07f9f993          	andi	s3,s3,127
	uint32_t dCO4080 = nCO2440 - nCO2480;
 a7c:	416b8b33          	sub	s6,s7,s6
	for(int f = 0; f < int_points; f++) {
 a80:	4781                	li	a5,0
		tune = (dCO0140 * (int_points -f)) / int_points;
 a82:	45d1                	li	a1,20
		txctune_co[f] = tune | (tune << 4);
 a84:	1641                	addi	a2,a2,-16
		tune = (dCO0140 * (int_points -f)) / int_points;
 a86:	02b75533          	divu	a0,a4,a1
		txctune_co[f] = tune | (tune << 4);
 a8a:	0834                	addi	a3,sp,24
 a8c:	00f68833          	add	a6,a3,a5
	for(int f = 0; f < int_points; f++) {
 a90:	0785                	addi	a5,a5,1
 a92:	8f01                	sub	a4,a4,s0
		txctune_co[f] = tune | (tune << 4);
 a94:	00451693          	slli	a3,a0,0x4
 a98:	8ef1                	and	a3,a3,a2
 a9a:	8ec9                	or	a3,a3,a0
 a9c:	00d80023          	sb	a3,0(a6)
	for(int f = 0; f < int_points; f++) {
 aa0:	feb793e3          	bne	a5,a1,a86 <main+0x1ae>
		txctune_co[f] = tune | (tune << 4);
 aa4:	6605                	lui	a2,0x1
	for(int f = 0; f < int_points; f++) {
 aa6:	4681                	li	a3,0
		tune = (dCO4080 * (f -int_points)) / int_points;
 aa8:	48d1                	li	a7,20
		txctune_co[f] = tune | (tune << 4);
 aaa:	1641                	addi	a2,a2,-16
	for(int f = int_points; f < sizeof(RF->TXCTUNE_CO); f++) {
 aac:	02800513          	li	a0,40
		tune = (dCO4080 * (f -int_points)) / int_points;
 ab0:	0316d5b3          	divu	a1,a3,a7
		txctune_co[f] = tune | (tune << 4);
 ab4:	0838                	addi	a4,sp,24
 ab6:	00f70833          	add	a6,a4,a5
	for(int f = int_points; f < sizeof(RF->TXCTUNE_CO); f++) {
 aba:	0785                	addi	a5,a5,1
 abc:	96da                	add	a3,a3,s6
		txctune_co[f] = tune | (tune << 4);
 abe:	00459713          	slli	a4,a1,0x4
 ac2:	8f71                	and	a4,a4,a2
 ac4:	8f4d                	or	a4,a4,a1
 ac6:	00e80023          	sb	a4,0(a6)
	for(int f = int_points; f < sizeof(RF->TXCTUNE_CO); f++) {
 aca:	fea793e3          	bne	a5,a0,ab0 <main+0x1d8>
 ace:	083c                	addi	a5,sp,24
	for(int i = 0; i < sizeof(txctune_co) /4; i++) {
 ad0:	4681                	li	a3,0
		RF->TXCTUNE_CO[i] = ((uint32_t*)txctune_co)[i];
 ad2:	4000d537          	lui	a0,0x4000d
	for(int i = 0; i < sizeof(txctune_co) /4; i++) {
 ad6:	4629                	li	a2,10
		RF->TXCTUNE_CO[i] = ((uint32_t*)txctune_co)[i];
 ad8:	438c                	lw	a1,0(a5)
 ada:	02868713          	addi	a4,a3,40 # fffff028 <_eusrstack+0xdfffc028>
 ade:	070a                	slli	a4,a4,0x2
 ae0:	972a                	add	a4,a4,a0
 ae2:	c30c                	sw	a1,0(a4)
	for(int i = 0; i < sizeof(txctune_co) /4; i++) {
 ae4:	0685                	addi	a3,a3,1
 ae6:	0791                	addi	a5,a5,4
 ae8:	fec698e3          	bne	a3,a2,ad8 <main+0x200>
	uint32_t dGA0140 = nGA2401 - nGA2440;
 aec:	413a0a33          	sub	s4,s4,s3
	uint32_t dGA4080 = nGA2440 - nGA2480;
 af0:	4695                	li	a3,5
 af2:	02da06b3          	mul	a3,s4,a3
		txctune_ga[f] = tune | (tune << 4);
 af6:	6705                	lui	a4,0x1
	uint32_t dGA4080 = nGA2440 - nGA2480;
 af8:	418989b3          	sub	s3,s3,s8
	uint8_t txctune_ga[sizeof(RF->TXCTUNE_GA)] = {0};
 afc:	c602                	sw	zero,12(sp)
 afe:	c802                	sw	zero,16(sp)
 b00:	ca02                	sw	zero,20(sp)
	for(int f = 1; f < int_points; f++) {
 b02:	4785                	li	a5,1
		tune = (dGA0140 * (int_points -f)) / int_points;
 b04:	4599                	li	a1,6
		txctune_ga[f] = tune | (tune << 4);
 b06:	1741                	addi	a4,a4,-16
 b08:	0070                	addi	a2,sp,12
		tune = (dGA0140 * (int_points -f)) / int_points;
 b0a:	02b6d533          	divu	a0,a3,a1
		txctune_ga[f] = tune | (tune << 4);
 b0e:	00f60833          	add	a6,a2,a5
	for(int f = 1; f < int_points; f++) {
 b12:	0785                	addi	a5,a5,1
 b14:	414686b3          	sub	a3,a3,s4
		txctune_ga[f] = tune | (tune << 4);
 b18:	00451613          	slli	a2,a0,0x4
 b1c:	8e79                	and	a2,a2,a4
 b1e:	8e49                	or	a2,a2,a0
 b20:	00c80023          	sb	a2,0(a6)
	for(int f = 1; f < int_points; f++) {
 b24:	feb792e3          	bne	a5,a1,b08 <main+0x230>
		txctune_ga[f] = tune | (tune << 4);
 b28:	6605                	lui	a2,0x1
	for(int f = 1; f < int_points; f++) {
 b2a:	4701                	li	a4,0
		tune = (dGA4080 * (f -int_points)) / int_points;
 b2c:	4319                	li	t1,6
		txctune_ga[f] = tune | (tune << 4);
 b2e:	ff060893          	addi	a7,a2,-16 # ff0 <_data_lma+0x74>
	for(int f = int_points; f < sizeof(RF->TXCTUNE_GA) -1; f++) {
 b32:	452d                	li	a0,11
		tune = (dGA4080 * (f -int_points)) / int_points;
 b34:	026755b3          	divu	a1,a4,t1
		txctune_ga[f] = tune | (tune << 4);
 b38:	0074                	addi	a3,sp,12
 b3a:	00f68833          	add	a6,a3,a5
	for(int f = int_points; f < sizeof(RF->TXCTUNE_GA) -1; f++) {
 b3e:	0785                	addi	a5,a5,1
 b40:	974e                	add	a4,a4,s3
		txctune_ga[f] = tune | (tune << 4);
 b42:	00459693          	slli	a3,a1,0x4
 b46:	0116f6b3          	and	a3,a3,a7
 b4a:	8ecd                	or	a3,a3,a1
 b4c:	00d80023          	sb	a3,0(a6)
	for(int f = int_points; f < sizeof(RF->TXCTUNE_GA) -1; f++) {
 b50:	fea792e3          	bne	a5,a0,b34 <main+0x25c>
		RF->TXCTUNE_GA[i] = ((uint32_t*)txctune_ga)[i];
 b54:	46b2                	lw	a3,12(sp)
 b56:	4000d7b7          	lui	a5,0x4000d
 b5a:	08078713          	addi	a4,a5,128 # 4000d080 <_eusrstack+0x2000a080>
 b5e:	c734                	sw	a3,72(a4)
 b60:	46c2                	lw	a3,16(sp)
	RF->TXTUNE_CTRL = (RF->TXTUNE_CTRL & 0x80ffffff) | (tune2440 & 0x7f000000);
 b62:	7f000537          	lui	a0,0x7f000
 b66:	00a97933          	and	s2,s2,a0
		RF->TXCTUNE_GA[i] = ((uint32_t*)txctune_ga)[i];
 b6a:	c774                	sw	a3,76(a4)
 b6c:	46d2                	lw	a3,20(sp)
 b6e:	cb34                	sw	a3,80(a4)
	RF->RF1 &= 0xffffffef;
 b70:	43d8                	lw	a4,4(a5)
	RF->TXTUNE_CTRL = (RF->TXTUNE_CTRL & 0x80ffffff) | (tune2440 & 0x7f000000);
 b72:	810006b7          	lui	a3,0x81000
 b76:	16fd                	addi	a3,a3,-1
	RF->RF1 &= 0xffffffef;
 b78:	9b3d                	andi	a4,a4,-17
 b7a:	c3d8                	sw	a4,4(a5)
	RF->RF1 &= 0xfffffffe;
 b7c:	43d8                	lw	a4,4(a5)
 b7e:	9b79                	andi	a4,a4,-2
 b80:	c3d8                	sw	a4,4(a5)
	RF->RF10 |= 0x1000;
 b82:	5798                	lw	a4,40(a5)
 b84:	8f51                	or	a4,a4,a2
 b86:	d798                	sw	a4,40(a5)
	RF->RF11 |= 0x10;
 b88:	57d8                	lw	a4,44(a5)
 b8a:	01076713          	ori	a4,a4,16
 b8e:	d7d8                	sw	a4,44(a5)
	RF->TXTUNE_CTRL = (RF->TXTUNE_CTRL & 0xffffffc0) | (tune2440 & 0x3f);
 b90:	5f98                	lw	a4,56(a5)
 b92:	fc077713          	andi	a4,a4,-64
 b96:	01776733          	or	a4,a4,s7
 b9a:	df98                	sw	a4,56(a5)
	RF->TXTUNE_CTRL = (RF->TXTUNE_CTRL & 0x80ffffff) | (tune2440 & 0x7f000000);
 b9c:	5f98                	lw	a4,56(a5)
 b9e:	8f75                	and	a4,a4,a3
 ba0:	01276933          	or	s2,a4,s2
 ba4:	0327ac23          	sw	s2,56(a5)
	RF->RF1 |= 0x100;
 ba8:	43d8                	lw	a4,4(a5)
	RF->RF20 &= 0xfffeffff;
 baa:	76c1                	lui	a3,0xffff0
 bac:	16fd                	addi	a3,a3,-1
	RF->RF1 |= 0x100;
 bae:	10076713          	ori	a4,a4,256
 bb2:	c3d8                	sw	a4,4(a5)
	RF->RF20 &= 0xfffeffff;
 bb4:	4bb8                	lw	a4,80(a5)
 bb6:	8f75                	and	a4,a4,a3
 bb8:	cbb8                	sw	a4,80(a5)
	RF->RF2 |= 0x200000;
 bba:	4798                	lw	a4,8(a5)
 bbc:	002006b7          	lui	a3,0x200
 bc0:	8f55                	or	a4,a4,a3
 bc2:	c798                	sw	a4,8(a5)
	RF->RF3 = (RF->RF3 & 0xffffffef) | 0x10;
 bc4:	47d8                	lw	a4,12(a5)
	while(LL->TMR && ((RF->RXTUNE >> 8) & 1));
 bc6:	4000c6b7          	lui	a3,0x4000c
	RF->RF3 = (RF->RF3 & 0xffffffef) | 0x10;
 bca:	01076713          	ori	a4,a4,16
 bce:	c7d8                	sw	a4,12(a5)
	RF->RF1 |= 0x1000;
 bd0:	43d8                	lw	a4,4(a5)
 bd2:	8f51                	or	a4,a4,a2
 bd4:	c3d8                	sw	a4,4(a5)
	LL->TMR = 100;
 bd6:	4000c7b7          	lui	a5,0x4000c
 bda:	06400713          	li	a4,100
 bde:	20078793          	addi	a5,a5,512 # 4000c200 <_eusrstack+0x20009200>
 be2:	d3f8                	sw	a4,100(a5)
	while(LL->TMR && ((RF->RXTUNE >> 8) & 1));
 be4:	4000d737          	lui	a4,0x4000d
 be8:	20068793          	addi	a5,a3,512 # 4000c200 <_eusrstack+0x20009200>
 bec:	53fc                	lw	a5,100(a5)
 bee:	c791                	beqz	a5,bfa <main+0x322>
 bf0:	09c72783          	lw	a5,156(a4) # 4000d09c <_eusrstack+0x2000a09c>
 bf4:	1007f793          	andi	a5,a5,256
 bf8:	fbe5                	bnez	a5,be8 <main+0x310>
	tuneFilter = RF->RXTUNE & 0x1f;
 bfa:	4000d7b7          	lui	a5,0x4000d
 bfe:	08078713          	addi	a4,a5,128 # 4000d080 <_eusrstack+0x2000a080>
 c02:	4f58                	lw	a4,28(a4)
 c04:	c2018693          	addi	a3,gp,-992 # 2000001c <tuneFilter>
 c08:	8b7d                	andi	a4,a4,31
 c0a:	c298                	sw	a4,0(a3)
	RF->RF20 |= 0x10000;
 c0c:	4bb8                	lw	a4,80(a5)
 c0e:	6641                	lui	a2,0x10
 c10:	c2018913          	addi	s2,gp,-992 # 2000001c <tuneFilter>
 c14:	8f51                	or	a4,a4,a2
 c16:	cbb8                	sw	a4,80(a5)
	RF->RF20 = (RF->RF20 & 0xffffffe0) | tuneFilter;
 c18:	4bb8                	lw	a4,80(a5)
 c1a:	4290                	lw	a2,0(a3)
 c1c:	9b01                	andi	a4,a4,-32
 c1e:	8f51                	or	a4,a4,a2
 c20:	cbb8                	sw	a4,80(a5)
	RF->RF2 &= 0xffdfffff;
 c22:	4798                	lw	a4,8(a5)
 c24:	ffe00637          	lui	a2,0xffe00
 c28:	167d                	addi	a2,a2,-1
 c2a:	8f71                	and	a4,a4,a2
 c2c:	c798                	sw	a4,8(a5)
	tuneFilter2M = (tuneFilter +2 < 0x1f) ? (tuneFilter +2) : 0x1f;
 c2e:	4298                	lw	a4,0(a3)
 c30:	46f9                	li	a3,30
 c32:	47fd                	li	a5,31
 c34:	0709                	addi	a4,a4,2
 c36:	00e6e563          	bltu	a3,a4,c40 <main+0x368>
 c3a:	00092783          	lw	a5,0(s2)
 c3e:	0789                	addi	a5,a5,2
 c40:	c2f1a223          	sw	a5,-988(gp) # 20000020 <tuneFilter2M>
	RF->RF22 &= 0xfffeffff;
 c44:	4000d7b7          	lui	a5,0x4000d
 c48:	4fb8                	lw	a4,88(a5)
 c4a:	76c1                	lui	a3,0xffff0
 c4c:	16fd                	addi	a3,a3,-1
 c4e:	8f75                	and	a4,a4,a3
 c50:	cfb8                	sw	a4,88(a5)
	RF->RF2 |= 0x10000;
 c52:	4798                	lw	a4,8(a5)
 c54:	66c1                	lui	a3,0x10
	DevSetMode(0);
 c56:	4501                	li	a0,0
	RF->RF2 |= 0x10000;
 c58:	8f55                	or	a4,a4,a3
 c5a:	c798                	sw	a4,8(a5)
	RF->RF3 = (RF->RF3 & 0xfffffeff) | 0x100;
 c5c:	47d8                	lw	a4,12(a5)
	RF->RF1 = (RF->RF1 & 0xfffeffff) | 0x100000;
 c5e:	ffef06b7          	lui	a3,0xffef0
 c62:	16fd                	addi	a3,a3,-1
	RF->RF3 = (RF->RF3 & 0xfffffeff) | 0x100;
 c64:	10076713          	ori	a4,a4,256
 c68:	c7d8                	sw	a4,12(a5)
	RF->RF1 = (RF->RF1 & 0xfffeffff) | 0x100000;
 c6a:	43d8                	lw	a4,4(a5)
	BB->CTRL_CFG = (phy_mode == PHY_2M) ? CTRL_CFG_PHY_2M:
										  CTRL_CFG_PHY_1M; // default 1M for now
#endif

#ifdef CH570_CH572
	BB->BB9 = (BB->BB9 & 0xf9ffffff) | ((phy_mode == PHY_2M) ? 0 : 0x2000000);
 c6c:	fa000b37          	lui	s6,0xfa000
	RF->RF20 = (RF->RF20 & 0xffffffe0) | ((phy_mode == PHY_2M) ? (tuneFilter2M & 0x1f) : (tuneFilter & 0x1f));
	BB->BB5 = (BB->BB5 & 0xffffffc0) | ((phy_mode == PHY_2M) ? 0xd : 0xb);
	BB->BB7 = (BB->BB7 & 0xff00fc00) | ((phy_mode == PHY_2M) ? 0x7f00a0 : 0x79009c);
 c70:	ff010bb7          	lui	s7,0xff010
	RF->RF1 = (RF->RF1 & 0xfffeffff) | 0x100000;
 c74:	8f75                	and	a4,a4,a3
 c76:	001006b7          	lui	a3,0x100
 c7a:	8f55                	or	a4,a4,a3
 c7c:	c3d8                	sw	a4,4(a5)
	DevSetMode(0);
 c7e:	d3aff0ef          	jal	ra,1b8 <DevSetMode>
	NVIC->IPRIOR[0x15] |= 0x80;
 c82:	e000e737          	lui	a4,0xe000e
 c86:	41574783          	lbu	a5,1045(a4) # e000e415 <_eusrstack+0xc000b415>
	funPinMode( LED, GPIO_CFGLR_OUT_2Mhz_PP );

	RFCoreInit(LL_TX_POWER_0_DBM);
	uint8_t frame_info[] = {0xff, 0x10}; // PDU, len, (maybe not?) needed in RX mode

	blink(5);
 c8a:	4515                	li	a0,5
	BB->BB7 = (BB->BB7 & 0xff00fc00) | ((phy_mode == PHY_2M) ? 0x7f00a0 : 0x79009c);
 c8c:	00790c37          	lui	s8,0x790
	NVIC->IPRIOR[0x15] |= 0x80;
 c90:	f807e793          	ori	a5,a5,-128
 c94:	0ff7f793          	andi	a5,a5,255
 c98:	40f70aa3          	sb	a5,1045(a4)
	NVIC->IENR[((uint32_t)(IRQn) >> 5)] = (1 << ((uint32_t)(IRQn) & 0x1F));
 c9c:	002007b7          	lui	a5,0x200
 ca0:	10f72023          	sw	a5,256(a4)
 ca4:	df0ff0ef          	jal	ra,294 <blink>
	printf(".~ ch32fun iSLER ~.\n");
 ca8:	6505                	lui	a0,0x1
 caa:	efc50513          	addi	a0,a0,-260 # efc <LLE_IRQHandler+0x92>
 cae:	3e29                	jal	7c8 <puts>

	// send out a first RX:?? advertisement to show we are alive
	for(int c = 0; c < sizeof(adv_channels); c++) {
		Frame_TX(adv, sizeof(adv), adv_channels[c], PHY_MODE);
 cb0:	02500513          	li	a0,37
 cb4:	f40ff0ef          	jal	ra,3f4 <Frame_TX.constprop.0>
 cb8:	02600513          	li	a0,38
 cbc:	f38ff0ef          	jal	ra,3f4 <Frame_TX.constprop.0>
 cc0:	02700513          	li	a0,39
#elif defined(CH584_CH585) || defined(CH591_CH592)
	BB->BB6 = (BB->BB6 & 0xfffffc00) | ((phy_mode == PHY_2M) ? 0x13a : 0x132);
	BB->BB4 = (BB->BB4 & 0x00ffffff) | ((phy_mode == PHY_2M) ? 0x78000000 : 0x7f000000);
#endif

	BB->ACCESSADDRESS1 = 0x8E89BED6; // access address
 cc4:	8e89cab7          	lui	s5,0x8e89c
		adv[sizeof(adv) -2] = hex_lut[(frame[7] >> 4)];
 cc8:	6a05                	lui	s4,0x1
		Frame_TX(adv, sizeof(adv), adv_channels[c], PHY_MODE);
 cca:	f2aff0ef          	jal	ra,3f4 <Frame_TX.constprop.0>
	BB->BB9 = (BB->BB9 & 0xf9ffffff) | ((phy_mode == PHY_2M) ? 0 : 0x2000000);
 cce:	1b7d                	addi	s6,s6,-1
	BB->BB7 = (BB->BB7 & 0xff00fc00) | ((phy_mode == PHY_2M) ? 0x7f00a0 : 0x79009c);
 cd0:	c00b8b93          	addi	s7,s7,-1024 # ff00fc00 <_eusrstack+0xdf00cc00>
 cd4:	09cc0c13          	addi	s8,s8,156 # 79009c <iSLER.c.5eab49fd+0x78dc26>
	BB->ACCESSADDRESS1 = 0x8E89BED6; // access address
 cd8:	ed6a8a93          	addi	s5,s5,-298 # 8e89bed6 <_eusrstack+0x6e898ed6>
		printf("%02x ", frame[i]);
 cdc:	6c85                	lui	s9,0x1
		adv[sizeof(adv) -2] = hex_lut[(frame[7] >> 4)];
 cde:	c0418993          	addi	s3,gp,-1020 # 20000000 <adv>
 ce2:	f68a0a13          	addi	s4,s4,-152 # f68 <hex_lut>
	DevSetMode(0);
 ce6:	4501                	li	a0,0
 ce8:	cd0ff0ef          	jal	ra,1b8 <DevSetMode>
	if(LL->LL0 & 3) {
 cec:	4000c7b7          	lui	a5,0x4000c
 cf0:	2007a703          	lw	a4,512(a5) # 4000c200 <_eusrstack+0x20009200>
 cf4:	20078693          	addi	a3,a5,512
 cf8:	8b0d                	andi	a4,a4,3
 cfa:	cb19                	beqz	a4,d10 <main+0x438>
		LL->CTRL_MOD &= CTRL_MOD_RFSTOP;
 cfc:	4ab8                	lw	a4,80(a3)
 cfe:	8ff77713          	andi	a4,a4,-1793
 d02:	cab8                	sw	a4,80(a3)
		LL->LL0 |= 0x08;
 d04:	2007a703          	lw	a4,512(a5)
 d08:	00876713          	ori	a4,a4,8
 d0c:	20e7a023          	sw	a4,512(a5)
	LL->TMR = 0;
 d10:	4000cd37          	lui	s10,0x4000c
 d14:	200d0793          	addi	a5,s10,512 # 4000c200 <_eusrstack+0x20009200>
 d18:	0607a223          	sw	zero,100(a5)
	RF->RF11 &= 0xfffffffd;
 d1c:	4000ddb7          	lui	s11,0x4000d
 d20:	02cda783          	lw	a5,44(s11) # 4000d02c <_eusrstack+0x2000a02c>
	DevSetMode(DEVSETMODE_RX);
 d24:	15800513          	li	a0,344
	BB->CTRL_CFG = (BB->CTRL_CFG & 0xffffff80) | (channel & 0x7f);
 d28:	100d0413          	addi	s0,s10,256
	RF->RF11 &= 0xfffffffd;
 d2c:	9bf5                	andi	a5,a5,-3
 d2e:	02fda623          	sw	a5,44(s11)
	BB->CTRL_CFG = (BB->CTRL_CFG & 0xffffff80) | (channel & 0x7f);
 d32:	100d2783          	lw	a5,256(s10)
 d36:	f807f793          	andi	a5,a5,-128
 d3a:	0257e793          	ori	a5,a5,37
 d3e:	10fd2023          	sw	a5,256(s10)
	DevSetMode(DEVSETMODE_RX);
 d42:	c76ff0ef          	jal	ra,1b8 <DevSetMode>
										  CTRL_CFG_PHY_1M; // default 1M for now
 d46:	100d2783          	lw	a5,256(s10)
	BB->BB9 = (BB->BB9 & 0xf9ffffff) | ((phy_mode == PHY_2M) ? 0 : 0x2000000);
 d4a:	02000737          	lui	a4,0x2000
	BB->CRCINIT1 = 0x555555; // crc init
#ifdef CH570_CH572
	BB->ACCESSADDRESS2 = 0x8E89BED6;
	BB->CRCINIT2 = 0x555555;
	BB->CRCPOLY1 = (BB->CRCPOLY1 & 0xff000000) | 0x80032d; // crc poly
 d4e:	ff000637          	lui	a2,0xff000
										  CTRL_CFG_PHY_1M; // default 1M for now
 d52:	cff7f793          	andi	a5,a5,-769
	BB->CTRL_CFG = (phy_mode == PHY_2M) ? CTRL_CFG_PHY_2M:
 d56:	1007e793          	ori	a5,a5,256
 d5a:	10fd2023          	sw	a5,256(s10)
	BB->BB9 = (BB->BB9 & 0xf9ffffff) | ((phy_mode == PHY_2M) ? 0 : 0x2000000);
 d5e:	505c                	lw	a5,36(s0)
	BB->CRCPOLY1 = (BB->CRCPOLY1 & 0xff000000) | 0x80032d; // crc poly
 d60:	008006b7          	lui	a3,0x800
 d64:	32d68693          	addi	a3,a3,813 # 80032d <iSLER.c.5eab49fd+0x7fdeb7>
	BB->BB9 = (BB->BB9 & 0xf9ffffff) | ((phy_mode == PHY_2M) ? 0 : 0x2000000);
 d68:	0167f7b3          	and	a5,a5,s6
 d6c:	8fd9                	or	a5,a5,a4
 d6e:	d05c                	sw	a5,36(s0)
	RF->RF20 = (RF->RF20 & 0xffffffe0) | ((phy_mode == PHY_2M) ? (tuneFilter2M & 0x1f) : (tuneFilter & 0x1f));
 d70:	050da783          	lw	a5,80(s11)
 d74:	00092703          	lw	a4,0(s2)
 d78:	9b81                	andi	a5,a5,-32
 d7a:	8b7d                	andi	a4,a4,31
 d7c:	8fd9                	or	a5,a5,a4
 d7e:	04fda823          	sw	a5,80(s11)
	BB->BB5 = (BB->BB5 & 0xffffffc0) | ((phy_mode == PHY_2M) ? 0xd : 0xb);
 d82:	485c                	lw	a5,20(s0)
 d84:	fc07f793          	andi	a5,a5,-64
 d88:	00b7e793          	ori	a5,a5,11
 d8c:	c85c                	sw	a5,20(s0)
	BB->BB7 = (BB->BB7 & 0xff00fc00) | ((phy_mode == PHY_2M) ? 0x7f00a0 : 0x79009c);
 d8e:	4c5c                	lw	a5,28(s0)
 d90:	0177f7b3          	and	a5,a5,s7
 d94:	0187e7b3          	or	a5,a5,s8
 d98:	cc5c                	sw	a5,28(s0)
	BB->CRCINIT1 = 0x555555; // crc init
 d9a:	005557b7          	lui	a5,0x555
	BB->ACCESSADDRESS1 = 0x8E89BED6; // access address
 d9e:	01542623          	sw	s5,12(s0) # 4000d00c <_eusrstack+0x2000a00c>
	BB->CRCINIT1 = 0x555555; // crc init
 da2:	55578793          	addi	a5,a5,1365 # 555555 <iSLER.c.5eab49fd+0x5530df>
 da6:	c05c                	sw	a5,4(s0)
	BB->ACCESSADDRESS2 = 0x8E89BED6;
 da8:	07542023          	sw	s5,96(s0)
	BB->CRCINIT2 = 0x555555;
 dac:	cc3c                	sw	a5,88(s0)
	BB->CRCPOLY1 = (BB->CRCPOLY1 & 0xff000000) | 0x80032d; // crc poly
 dae:	4418                	lw	a4,8(s0)
 db0:	8f71                	and	a4,a4,a2
 db2:	8f55                	or	a4,a4,a3
 db4:	c418                	sw	a4,8(s0)
	BB->CRCPOLY2 = (BB->CRCPOLY2 & 0xff000000) | 0x80032d;
 db6:	4c7c                	lw	a5,92(s0)
 db8:	8ff1                	and	a5,a5,a2
 dba:	8fd5                	or	a5,a5,a3
 dbc:	cc7c                	sw	a5,92(s0)
#endif

	//LL->LL1 = (LL->LL1 & 0xfffffffe) | 1; // 1: AUTO mode, to swap between RX <-> TX when either happened. 0: BASIC
	//LL->FRAME_BUF = (uint32_t)frame_info; // also this only in AUTO mode

	LL->LL0 = 1; // Not sure what this does, but on TX it's 2
 dbe:	4785                	li	a5,1
 dc0:	20fd2023          	sw	a5,512(s10)
	rx_ready = 0;
 dc4:	c1c18713          	addi	a4,gp,-996 # 20000018 <rx_ready>
 dc8:	00072023          	sw	zero,0(a4) # 2000000 <iSLER.c.5eab49fd+0x1ffdb8a>
 dcc:	c1c18793          	addi	a5,gp,-996 # 20000018 <rx_ready>

	while(1) {
		// now listen for frames on channel 37. When the RF subsystem
		// detects and finalizes one, "rx_ready" in iSLER.h is set true
		Frame_RX(frame_info, 37, PHY_MODE);
		while(!rx_ready);
 dd0:	4398                	lw	a4,0(a5)
 dd2:	df7d                	beqz	a4,dd0 <main+0x4f8>

		// we stepped over !rx_ready so we got a frame
		blink(1);
 dd4:	4505                	li	a0,1
 dd6:	cbeff0ef          	jal	ra,294 <blink>
	printf("RSSI:%d len:%d MAC:", frame[0], frame[1]);
 dda:	0014c603          	lbu	a2,1(s1)
 dde:	0004c583          	lbu	a1,0(s1)
 de2:	6505                	lui	a0,0x1
 de4:	f1050513          	addi	a0,a0,-240 # f10 <LLE_IRQHandler+0xa6>
 de8:	3271                	jal	774 <printf>
	for(int i = 7; i > 2; i--) {
 dea:	441d                	li	s0,7
		printf("%02x:", frame[i]);
 dec:	6d85                	lui	s11,0x1
	for(int i = 7; i > 2; i--) {
 dee:	4d09                	li	s10,2
		printf("%02x:", frame[i]);
 df0:	008487b3          	add	a5,s1,s0
 df4:	0007c583          	lbu	a1,0(a5)
 df8:	f24d8513          	addi	a0,s11,-220 # f24 <LLE_IRQHandler+0xba>
	for(int i = 7; i > 2; i--) {
 dfc:	147d                	addi	s0,s0,-1
		printf("%02x:", frame[i]);
 dfe:	3a9d                	jal	774 <printf>
	for(int i = 7; i > 2; i--) {
 e00:	ffa418e3          	bne	s0,s10,df0 <main+0x518>
	printf("%02x data:", frame[2]);
 e04:	0024c583          	lbu	a1,2(s1)
 e08:	6505                	lui	a0,0x1
 e0a:	f2c50513          	addi	a0,a0,-212 # f2c <LLE_IRQHandler+0xc2>
 e0e:	329d                	jal	774 <printf>
	for(int i = 8; i < frame[1] +2; i++) {
 e10:	4421                	li	s0,8
 e12:	0014c783          	lbu	a5,1(s1)
 e16:	0785                	addi	a5,a5,1
 e18:	0487d063          	bge	a5,s0,e58 <main+0x580>
	printf("\n");
 e1c:	4529                	li	a0,10
 e1e:	3ad9                	jal	7f4 <putchar>
		adv[sizeof(adv) -2] = hex_lut[(frame[7] >> 4)];
 e20:	0074c783          	lbu	a5,7(s1)
			Frame_TX(adv, sizeof(adv), adv_channels[c], PHY_MODE);
 e24:	02500513          	li	a0,37
		adv[sizeof(adv) -2] = hex_lut[(frame[7] >> 4)];
 e28:	0047d713          	srli	a4,a5,0x4
		adv[sizeof(adv) -1] = hex_lut[(frame[7] & 0xf)];
 e2c:	8bbd                	andi	a5,a5,15
		adv[sizeof(adv) -2] = hex_lut[(frame[7] >> 4)];
 e2e:	9752                	add	a4,a4,s4
		adv[sizeof(adv) -1] = hex_lut[(frame[7] & 0xf)];
 e30:	97d2                	add	a5,a5,s4
		adv[sizeof(adv) -2] = hex_lut[(frame[7] >> 4)];
 e32:	00074703          	lbu	a4,0(a4)
		adv[sizeof(adv) -1] = hex_lut[(frame[7] & 0xf)];
 e36:	0007c783          	lbu	a5,0(a5)
		adv[sizeof(adv) -2] = hex_lut[(frame[7] >> 4)];
 e3a:	00e988a3          	sb	a4,17(s3)
		adv[sizeof(adv) -1] = hex_lut[(frame[7] & 0xf)];
 e3e:	00f98923          	sb	a5,18(s3)
			Frame_TX(adv, sizeof(adv), adv_channels[c], PHY_MODE);
 e42:	db2ff0ef          	jal	ra,3f4 <Frame_TX.constprop.0>
 e46:	02600513          	li	a0,38
 e4a:	daaff0ef          	jal	ra,3f4 <Frame_TX.constprop.0>
 e4e:	02700513          	li	a0,39
 e52:	da2ff0ef          	jal	ra,3f4 <Frame_TX.constprop.0>
		for(int c = 0; c < sizeof(adv_channels); c++) {
 e56:	bd41                	j	ce6 <main+0x40e>
		printf("%02x ", frame[i]);
 e58:	008487b3          	add	a5,s1,s0
 e5c:	0007c583          	lbu	a1,0(a5)
 e60:	f38c8513          	addi	a0,s9,-200 # f38 <LLE_IRQHandler+0xce>
	for(int i = 8; i < frame[1] +2; i++) {
 e64:	0405                	addi	s0,s0,1
		printf("%02x ", frame[i]);
 e66:	3239                	jal	774 <printf>
	for(int i = 8; i < frame[1] +2; i++) {
 e68:	b76d                	j	e12 <main+0x53a>

00000e6a <LLE_IRQHandler>:
void LLE_IRQHandler() {
 e6a:	715d                	addi	sp,sp,-80
 e6c:	dc26                	sw	s1,56(sp)
		LL->STATUS &= LL->INT_EN;
 e6e:	4000c4b7          	lui	s1,0x4000c
void LLE_IRQHandler() {
 e72:	de22                	sw	s0,60(sp)
		LL->STATUS &= LL->INT_EN;
 e74:	20048413          	addi	s0,s1,512 # 4000c200 <_eusrstack+0x20009200>
void LLE_IRQHandler() {
 e78:	d23a                	sw	a4,36(sp)
 e7a:	d03e                	sw	a5,32(sp)
		LL->STATUS &= LL->INT_EN;
 e7c:	4458                	lw	a4,12(s0)
 e7e:	441c                	lw	a5,8(s0)
void LLE_IRQHandler() {
 e80:	da2a                	sw	a0,52(sp)
 e82:	c686                	sw	ra,76(sp)
 e84:	c496                	sw	t0,72(sp)
 e86:	c29a                	sw	t1,68(sp)
 e88:	c09e                	sw	t2,64(sp)
 e8a:	d82e                	sw	a1,48(sp)
 e8c:	d632                	sw	a2,44(sp)
 e8e:	d436                	sw	a3,40(sp)
 e90:	ce42                	sw	a6,28(sp)
 e92:	cc46                	sw	a7,24(sp)
 e94:	ca72                	sw	t3,20(sp)
 e96:	c876                	sw	t4,16(sp)
 e98:	c67a                	sw	t5,12(sp)
 e9a:	c47e                	sw	t6,8(sp)
		LL->STATUS &= LL->INT_EN;
 e9c:	8ff9                	and	a5,a5,a4
 e9e:	c41c                	sw	a5,8(s0)
		BB->CTRL_TX = (BB->CTRL_TX & 0xfffffffc) | 1;
 ea0:	10048713          	addi	a4,s1,256
 ea4:	5b5c                	lw	a5,52(a4)
	DevSetMode(0);
 ea6:	4501                	li	a0,0
		BB->CTRL_TX = (BB->CTRL_TX & 0xfffffffc) | 1;
 ea8:	9bf1                	andi	a5,a5,-4
 eaa:	0017e793          	ori	a5,a5,1
 eae:	db5c                	sw	a5,52(a4)
	DevSetMode(0);
 eb0:	b08ff0ef          	jal	ra,1b8 <DevSetMode>
	LL->CTRL_MOD &= CTRL_MOD_RFSTOP;
 eb4:	483c                	lw	a5,80(s0)
	rx_ready = 1;
 eb6:	4705                	li	a4,1
}
 eb8:	40b6                	lw	ra,76(sp)
	LL->CTRL_MOD &= CTRL_MOD_RFSTOP;
 eba:	8ff7f793          	andi	a5,a5,-1793
 ebe:	c83c                	sw	a5,80(s0)
	LL->LL0 |= 0x08;
 ec0:	2004a783          	lw	a5,512(s1)
}
 ec4:	5472                	lw	s0,60(sp)
 ec6:	42a6                	lw	t0,72(sp)
	LL->LL0 |= 0x08;
 ec8:	0087e793          	ori	a5,a5,8
 ecc:	20f4a023          	sw	a5,512(s1)
	rx_ready = 1;
 ed0:	c0e1ae23          	sw	a4,-996(gp) # 20000018 <rx_ready>
}
 ed4:	4316                	lw	t1,68(sp)
 ed6:	4386                	lw	t2,64(sp)
 ed8:	54e2                	lw	s1,56(sp)
 eda:	5552                	lw	a0,52(sp)
 edc:	55c2                	lw	a1,48(sp)
 ede:	5632                	lw	a2,44(sp)
 ee0:	56a2                	lw	a3,40(sp)
 ee2:	5712                	lw	a4,36(sp)
 ee4:	5782                	lw	a5,32(sp)
 ee6:	4872                	lw	a6,28(sp)
 ee8:	48e2                	lw	a7,24(sp)
 eea:	4e52                	lw	t3,20(sp)
 eec:	4ec2                	lw	t4,16(sp)
 eee:	4f32                	lw	t5,12(sp)
 ef0:	4fa2                	lw	t6,8(sp)
 ef2:	6161                	addi	sp,sp,80
 ef4:	30200073          	mret
 ef8:	000a                	c.slli	zero,0x2
 efa:	0000                	unimp
 efc:	7e2e                	flw	ft8,232(sp)
 efe:	6320                	flw	fs0,64(a4)
 f00:	3368                	fld	fa0,224(a4)
 f02:	6632                	flw	fa2,12(sp)
 f04:	6e75                	lui	t3,0x1d
 f06:	6920                	flw	fs0,80(a0)
 f08:	52454c53          	0x52454c53
 f0c:	7e20                	flw	fs0,120(a2)
 f0e:	002e                	c.slli	zero,0xb
 f10:	5352                	lw	t1,52(sp)
 f12:	253a4953          	0x253a4953
 f16:	2064                	fld	fs1,192(s0)
 f18:	656c                	flw	fa1,76(a0)
 f1a:	3a6e                	fld	fs4,248(sp)
 f1c:	6425                	lui	s0,0x9
 f1e:	4d20                	lw	s0,88(a0)
 f20:	4341                	li	t1,16
 f22:	003a                	c.slli	zero,0xe
 f24:	3025                	jal	74c <mini_vpprintf+0x196>
 f26:	7832                	flw	fa6,44(sp)
 f28:	003a                	c.slli	zero,0xe
 f2a:	0000                	unimp
 f2c:	3025                	jal	754 <mini_vpprintf+0x19e>
 f2e:	7832                	flw	fa6,44(sp)
 f30:	6420                	flw	fs0,72(s0)
 f32:	7461                	lui	s0,0xffff8
 f34:	3a61                	jal	8cc <SystemInit+0x6c>
 f36:	0000                	unimp
 f38:	3025                	jal	760 <mini_vpprintf+0x1aa>
 f3a:	7832                	flw	fa6,44(sp)
 f3c:	0020                	addi	s0,sp,8
	...

00000f40 <channel_map>:
 f40:	0201 0403 0605 0807 0a09 0d0c 0f0e 1110     ................
 f50:	1312 1514 1716 1918 1b1a 1d1c 1f1e 2120     .............. !
 f60:	2322 2524 0026 270b                         "#$%&..'

00000f68 <hex_lut>:
 f68:	3130 3332 3534 3736 3938 4241 4443 4645     0123456789ABCDEF
 f78:	0000 0000                                   ....
