
ScienceOlympiadEV.elf:     file format elf32-littleriscv
ScienceOlympiadEV.elf
architecture: riscv:rv32, flags 0x00000112:
EXEC_P, HAS_SYMS, D_PAGED
start address 0x00000000

Program Header:
    LOAD off    0x00001000 vaddr 0x00000000 paddr 0x00000000 align 2**12
         filesz 0x00000004 memsz 0x00000004 flags r-x
    LOAD off    0x00002000 vaddr 0x20000000 paddr 0x00000004 align 2**12
         filesz 0x00000788 memsz 0x00000788 flags r-x
    LOAD off    0x0000278c vaddr 0x0000078c paddr 0x0000078c align 2**12
         filesz 0x000001ac memsz 0x000001ac flags r-x
    LOAD off    0x00003600 vaddr 0x20006600 paddr 0x20006600 align 2**12
         filesz 0x00000000 memsz 0x00000200 flags rw-

Sections:
Idx Name            Size      VMA       LMA       File off  Algn  Flags
  0 .init           00000004  00000000  00000000  00001000  2**1  CONTENTS, ALLOC, LOAD, READONLY, CODE
  1 .highcodelalign 00000000  00000004  00000004  00002938  2**0  CONTENTS
  2 .highcode       00000788  20000000  00000004  00002000  2**1  CONTENTS, ALLOC, LOAD, READONLY, CODE
  3 .text           000001ac  0000078c  0000078c  0000278c  2**2  CONTENTS, ALLOC, LOAD, READONLY, CODE
  4 .fini           00000000  00000938  00000938  00002938  2**0  CONTENTS, ALLOC, LOAD, CODE
  5 .dalign         00000000  20000788  20000788  00002938  2**0  CONTENTS
  6 .dlalign        00000000  00000938  00000938  00002938  2**0  CONTENTS
  7 .data           00000000  20000788  20000788  00002938  2**0  CONTENTS, ALLOC, LOAD, DATA
  8 .bss            00000000  20000788  0000078c  00000000  2**0  ALLOC
  9 .stack          00000200  20006600  20006600  00003600  2**0  ALLOC
 10 .debug_info     0000341e  00000000  00000000  00002938  2**0  CONTENTS, READONLY, DEBUGGING
 11 .debug_abbrev   000008fd  00000000  00000000  00005d56  2**0  CONTENTS, READONLY, DEBUGGING
 12 .debug_aranges  00000128  00000000  00000000  00006658  2**3  CONTENTS, READONLY, DEBUGGING
 13 .debug_ranges   00000150  00000000  00000000  00006780  2**3  CONTENTS, READONLY, DEBUGGING
 14 .debug_line     00001e59  00000000  00000000  000068d0  2**0  CONTENTS, READONLY, DEBUGGING
 15 .debug_str      00000cbf  00000000  00000000  00008729  2**0  CONTENTS, READONLY, DEBUGGING
 16 .comment        00000033  00000000  00000000  000093e8  2**0  CONTENTS, READONLY
 17 .debug_frame    000001e4  00000000  00000000  0000941c  2**2  CONTENTS, READONLY, DEBUGGING
 18 .debug_loc      000007b7  00000000  00000000  00009600  2**0  CONTENTS, READONLY, DEBUGGING
SYMBOL TABLE:
00000000 l    d  .init	00000000 .init
00000004 l    d  .highcodelalign	00000000 .highcodelalign
20000000 l    d  .highcode	00000000 .highcode
0000078c l    d  .text	00000000 .text
00000938 l    d  .fini	00000000 .fini
20000788 l    d  .dalign	00000000 .dalign
00000938 l    d  .dlalign	00000000 .dlalign
20000788 l    d  .data	00000000 .data
20000788 l    d  .bss	00000000 .bss
20006600 l    d  .stack	00000000 .stack
00000000 l    d  .debug_info	00000000 .debug_info
00000000 l    d  .debug_abbrev	00000000 .debug_abbrev
00000000 l    d  .debug_aranges	00000000 .debug_aranges
00000000 l    d  .debug_ranges	00000000 .debug_ranges
00000000 l    d  .debug_line	00000000 .debug_line
00000000 l    d  .debug_str	00000000 .debug_str
00000000 l    d  .comment	00000000 .comment
00000000 l    d  .debug_frame	00000000 .debug_frame
00000000 l    d  .debug_loc	00000000 .debug_loc
00000000 l    df *ABS*	00000000 ./Startup/startup_CH592.o
20000000 l       .highcode	00000000 _vector_base
00000000 l    df *ABS*	00000000 CH59x_sys.c
00000000 l    df *ABS*	00000000 ISP583.c
20000372 l       .highcode	00000000 .loop18
20000380 l       .highcode	00000000 .loop29
2000038e l       .highcode	00000000 .loop40
2000061a l       .highcode	00000000 .loop402
00000000 l    df *ABS*	00000000 Main.c
00000000 l    df *ABS*	00000000 CH59x_gpio.c
2000038e g     F .highcode	0000000e FLASH_ROM_OUT
20000f88 g       .data	00000000 __global_pointer$
2000032a g     F .highcode	0000000e mDelayuS
200002aa  w    F .highcode	00000080 HardFault_Handler
20000090  w      .highcode	00000000 GPIOB_IRQHandler
20000090  w      .highcode	00000000 GPIOA_IRQHandler
20000090  w      .highcode	00000000 SysTick_Handler
20000090  w      .highcode	00000000 NMI_Handler
20000090  w      .highcode	00000000 UART1_IRQHandler
20000788 g       .bss	00000000 _sbss
00000200 g       *ABS*	00000000 __stack_size
20000380 g     F .highcode	0000000e FLASH_ROM_IN
20000090  w      .highcode	00000000 UART0_IRQHandler
00000004 g       .init	00000000 _einit
20000090  w      .highcode	00000000 BB_IRQHandler
2000041c g     F .highcode	0000036a FLASH_EEPROM_CMD
20000090  w      .highcode	00000000 Break_Point_Handler
20000090  w      .highcode	00000000 TMR0_IRQHandler
20000360 g     F .highcode	00000012 FLASH_ROM_BEG
20000338 g     F .highcode	00000028 mDelaymS
20000090  w      .highcode	00000000 Ecall_M_Mode_Handler
20006600 g       .stack	00000000 _heap_end
2000039c g     F .highcode	00000048 FLASH_ROM_ADDR
20000090  w      .highcode	00000000 RTC_IRQHandler
20000788 g       .bss	00000000 _ebss
200003e4 g     F .highcode	00000038 FLASH_ROM_WAIT
20000090  w      .highcode	00000000 UART2_IRQHandler
20000090  w      .highcode	00000000 PWMX_IRQHandler
00000000 g       .init	00000000 _start
20000090  w      .highcode	00000000 ADC_IRQHandler
20000000 g       .highcode	00000000 _highcode_vma_start
20000090  w      .highcode	00000000 TMR2_IRQHandler
20000788 g       .data	00000000 _data_vma
20000092 g     F .highcode	000001c0 SetSysClock
20000090  w      .highcode	00000000 USB_IRQHandler
20000090  w      .highcode	00000000 I2C_IRQHandler
00000842 g     F .text	0000003a main
00000004 g       .highcodelalign	00000000 _highcode_lma
20000090  w      .highcode	00000000 LLE_IRQHandler
00000000 g       .init	00000000 _sinit
20000090  w      .highcode	00000000 WDOG_BAT_IRQHandler
20000090  w      .highcode	00000000 Ecall_U_Mode_Handler
20000090  w      .highcode	00000000 TMR3_IRQHandler
20006800 g       .stack	00000000 _eusrstack
20000090  w      .highcode	00000000 SW_Handler
0000087c g     F .text	000000a6 GPIOA_ModeCfg
20000788 g       .data	00000000 _edata
20000090  w      .highcode	00000000 SPI0_IRQHandler
20000788 g       .bss	00000000 _end
20000788 g       .highcode	00000000 _highcode_vma_end
00000938 g       .dlalign	00000000 _data_lma
0000078c  w      .text	00000000 handle_reset
20000090  w      .highcode	00000000 UART3_IRQHandler
20000372 g     F .highcode	0000000e FLASH_ROM_END
20000090  w      .highcode	00000000 TMR1_IRQHandler
20000252 g     F .highcode	00000058 SYS_ResetExecute



Disassembly of section .init:

00000000 <_sinit>:
_start():
c:\Users\LRNA\Desktop\code\mounriver\ch592\ScienceOlympiadEV\obj/../Startup/startup_CH592.S:17

	.section	.init,"ax",@progbits
	.global	_start
	.align	1
_start:
	j	handle_reset
   0:	78c0006f          	j	78c <handle_reset>

Disassembly of section .highcode:

20000000 <_highcode_vma_start>:
	...
_vector_base():
20000008:	0090                	addi	a2,sp,64
2000000a:	2000                	fld	fs0,0(s0)
2000000c:	02aa                	slli	t0,t0,0xa
2000000e:	2000                	fld	fs0,0(s0)
20000010:	bda9                	j	1ffffe6a <_data_lma+0x1ffff532>
20000012:	f5f9                	bnez	a1,1fffffe0 <_data_lma+0x1ffff6a8>
20000014:	0090                	addi	a2,sp,64
20000016:	2000                	fld	fs0,0(s0)
	...
20000020:	0090                	addi	a2,sp,64
20000022:	2000                	fld	fs0,0(s0)
20000024:	0090                	addi	a2,sp,64
20000026:	2000                	fld	fs0,0(s0)
	...
20000030:	0090                	addi	a2,sp,64
20000032:	2000                	fld	fs0,0(s0)
20000034:	0000                	unimp
20000036:	0000                	unimp
20000038:	0090                	addi	a2,sp,64
2000003a:	2000                	fld	fs0,0(s0)
2000003c:	0000                	unimp
2000003e:	0000                	unimp
20000040:	0090                	addi	a2,sp,64
20000042:	2000                	fld	fs0,0(s0)
20000044:	0090                	addi	a2,sp,64
20000046:	2000                	fld	fs0,0(s0)
20000048:	0090                	addi	a2,sp,64
2000004a:	2000                	fld	fs0,0(s0)
2000004c:	0090                	addi	a2,sp,64
2000004e:	2000                	fld	fs0,0(s0)
20000050:	0090                	addi	a2,sp,64
20000052:	2000                	fld	fs0,0(s0)
20000054:	0090                	addi	a2,sp,64
20000056:	2000                	fld	fs0,0(s0)
20000058:	0090                	addi	a2,sp,64
2000005a:	2000                	fld	fs0,0(s0)
2000005c:	0000                	unimp
2000005e:	0000                	unimp
20000060:	0090                	addi	a2,sp,64
20000062:	2000                	fld	fs0,0(s0)
20000064:	0090                	addi	a2,sp,64
20000066:	2000                	fld	fs0,0(s0)
20000068:	0090                	addi	a2,sp,64
2000006a:	2000                	fld	fs0,0(s0)
2000006c:	0090                	addi	a2,sp,64
2000006e:	2000                	fld	fs0,0(s0)
20000070:	0090                	addi	a2,sp,64
20000072:	2000                	fld	fs0,0(s0)
20000074:	0090                	addi	a2,sp,64
20000076:	2000                	fld	fs0,0(s0)
20000078:	0090                	addi	a2,sp,64
2000007a:	2000                	fld	fs0,0(s0)
2000007c:	0090                	addi	a2,sp,64
2000007e:	2000                	fld	fs0,0(s0)
20000080:	0090                	addi	a2,sp,64
20000082:	2000                	fld	fs0,0(s0)
20000084:	0090                	addi	a2,sp,64
20000086:	2000                	fld	fs0,0(s0)
20000088:	0090                	addi	a2,sp,64
2000008a:	2000                	fld	fs0,0(s0)
2000008c:	0090                	addi	a2,sp,64
2000008e:	2000                	fld	fs0,0(s0)

20000090 <ADC_IRQHandler>:
GPIOB_IRQHandler():
c:\Users\LRNA\Desktop\code\mounriver\ch592\ScienceOlympiadEV\obj/../Startup/startup_CH592.S:119
TMR3_IRQHandler:
UART2_IRQHandler:
UART3_IRQHandler:
WDOG_BAT_IRQHandler: 
1:  
	j 1b
20000090:	a001                	j	20000090 <ADC_IRQHandler>

20000092 <SetSysClock>:
SetSysClock():
c:\Users\LRNA\Desktop\code\mounriver\ch592\ScienceOlympiadEV\obj/../StdPeriphDriver/CH59x_sys.c:28
 */
__HIGH_CODE
void SetSysClock(SYS_CLKTypeDef sc)
{
    uint8_t chip_type=0;
    if(((*(uint32_t*)ROM_CFG_VERISON)&0xFF) == DEF_CHIP_ID_CH592A)
20000092:	0007f7b7          	lui	a5,0x7f
c:\Users\LRNA\Desktop\code\mounriver\ch592\ScienceOlympiadEV\obj/../StdPeriphDriver/CH59x_sys.c:26
{
20000096:	1101                	addi	sp,sp,-32
c:\Users\LRNA\Desktop\code\mounriver\ch592\ScienceOlympiadEV\obj/../StdPeriphDriver/CH59x_sys.c:28
    if(((*(uint32_t*)ROM_CFG_VERISON)&0xFF) == DEF_CHIP_ID_CH592A)
20000098:	4b94                	lw	a3,16(a5)
__risc_v_disable_irq():
c:/Users/LRNA/Desktop/code/mounriver/ch592/ScienceOlympiadEV/RVMSIS/core_riscv.h:130
 */
__attribute__((always_inline)) RV_STATIC_INLINE uint32_t __risc_v_disable_irq(void)
{
  uint32_t result;

  __asm volatile ("csrrc %0, 0x800, %1" : \
2000009a:	08800713          	li	a4,136
2000009e:	800737f3          	csrrc	a5,0x800,a4
c:/Users/LRNA/Desktop/code/mounriver/ch592/ScienceOlympiadEV/RVMSIS/core_riscv.h:132
          "=r"(result): "r"(0x88) : "memory");
  return result & 0x88;
200000a2:	0887f793          	andi	a5,a5,136
SetSysClock():
c:\Users\LRNA\Desktop\code\mounriver\ch592\ScienceOlympiadEV\obj/../StdPeriphDriver/CH59x_sys.c:32
    {
        chip_type = 1;
    }
    sys_safe_access_enable();
200000a6:	c23e                	sw	a5,4(sp)
200000a8:	0000100f          	fence.i
200000ac:	400017b7          	lui	a5,0x40001
200000b0:	05700813          	li	a6,87
200000b4:	05078023          	sb	a6,64(a5) # 40001040 <_eusrstack+0x1fffa840>
200000b8:	fa800593          	li	a1,-88
200000bc:	04b78023          	sb	a1,64(a5)
200000c0:	0000100f          	fence.i
c:\Users\LRNA\Desktop\code\mounriver\ch592\ScienceOlympiadEV\obj/../StdPeriphDriver/CH59x_sys.c:33
    R8_PLL_CONFIG &= ~(1 << 5); //
200000c4:	04b7c603          	lbu	a2,75(a5)
200000c8:	0df67613          	andi	a2,a2,223
200000cc:	04c785a3          	sb	a2,75(a5)
c:\Users\LRNA\Desktop\code\mounriver\ch592\ScienceOlympiadEV\obj/../StdPeriphDriver/CH59x_sys.c:34
    sys_safe_access_disable();
200000d0:	04078023          	sb	zero,64(a5)
200000d4:	4612                	lw	a2,4(sp)
__risc_v_enable_irq():
c:/Users/LRNA/Desktop/code/mounriver/ch592/ScienceOlympiadEV/RVMSIS/core_riscv.h:114
  __asm volatile ("csrrs %0, 0x800, %1" : \
200000d6:	80062673          	csrrs	a2,0x800,a2
SetSysClock():
c:\Users\LRNA\Desktop\code\mounriver\ch592\ScienceOlympiadEV\obj/../StdPeriphDriver/CH59x_sys.c:34
200000da:	0000100f          	fence.i
c:\Users\LRNA\Desktop\code\mounriver\ch592\ScienceOlympiadEV\obj/../StdPeriphDriver/CH59x_sys.c:35
    if(sc & 0x20)  // HSE div
200000de:	02057613          	andi	a2,a0,32
200000e2:	ce55                	beqz	a2,2000019e <SetSysClock+0x10c>
__risc_v_disable_irq():
c:/Users/LRNA/Desktop/code/mounriver/ch592/ScienceOlympiadEV/RVMSIS/core_riscv.h:130
  __asm volatile ("csrrc %0, 0x800, %1" : \
200000e4:	800736f3          	csrrc	a3,0x800,a4
c:/Users/LRNA/Desktop/code/mounriver/ch592/ScienceOlympiadEV/RVMSIS/core_riscv.h:132
  return result & 0x88;
200000e8:	0886f693          	andi	a3,a3,136
SetSysClock():
c:\Users\LRNA\Desktop\code\mounriver\ch592\ScienceOlympiadEV\obj/../StdPeriphDriver/CH59x_sys.c:37
    {
        sys_safe_access_enable();
200000ec:	c436                	sw	a3,8(sp)
200000ee:	0000100f          	fence.i
200000f2:	05078023          	sb	a6,64(a5)
200000f6:	04b78023          	sb	a1,64(a5)
200000fa:	0000100f          	fence.i
c:\Users\LRNA\Desktop\code\mounriver\ch592\ScienceOlympiadEV\obj/../StdPeriphDriver/CH59x_sys.c:38
        R32_CLK_SYS_CFG = (0 << 6) | (sc & 0x1f) | RB_TX_32M_PWR_EN | RB_PLL_PWR_EN;
200000fe:	001406b7          	lui	a3,0x140
20000102:	897d                	andi	a0,a0,31
20000104:	8d55                	or	a0,a0,a3
20000106:	c788                	sw	a0,8(a5)
c:\Users\LRNA\Desktop\code\mounriver\ch592\ScienceOlympiadEV\obj/../StdPeriphDriver/CH59x_sys.c:39
        __nop();
20000108:	0001                	nop
c:\Users\LRNA\Desktop\code\mounriver\ch592\ScienceOlympiadEV\obj/../StdPeriphDriver/CH59x_sys.c:40
        __nop();
2000010a:	0001                	nop
c:\Users\LRNA\Desktop\code\mounriver\ch592\ScienceOlympiadEV\obj/../StdPeriphDriver/CH59x_sys.c:41
        __nop();
2000010c:	0001                	nop
c:\Users\LRNA\Desktop\code\mounriver\ch592\ScienceOlympiadEV\obj/../StdPeriphDriver/CH59x_sys.c:42
        __nop();
2000010e:	0001                	nop
c:\Users\LRNA\Desktop\code\mounriver\ch592\ScienceOlympiadEV\obj/../StdPeriphDriver/CH59x_sys.c:43
        sys_safe_access_disable();
20000110:	04078023          	sb	zero,64(a5)
20000114:	46a2                	lw	a3,8(sp)
__risc_v_enable_irq():
c:/Users/LRNA/Desktop/code/mounriver/ch592/ScienceOlympiadEV/RVMSIS/core_riscv.h:114
  __asm volatile ("csrrs %0, 0x800, %1" : \
20000116:	8006a6f3          	csrrs	a3,0x800,a3
SetSysClock():
c:\Users\LRNA\Desktop\code\mounriver\ch592\ScienceOlympiadEV\obj/../StdPeriphDriver/CH59x_sys.c:43
2000011a:	0000100f          	fence.i
__risc_v_disable_irq():
c:/Users/LRNA/Desktop/code/mounriver/ch592/ScienceOlympiadEV/RVMSIS/core_riscv.h:130
  __asm volatile ("csrrc %0, 0x800, %1" : \
2000011e:	80073773          	csrrc	a4,0x800,a4
c:/Users/LRNA/Desktop/code/mounriver/ch592/ScienceOlympiadEV/RVMSIS/core_riscv.h:132
  return result & 0x88;
20000122:	08877713          	andi	a4,a4,136
SetSysClock():
c:\Users\LRNA\Desktop\code\mounriver\ch592\ScienceOlympiadEV\obj/../StdPeriphDriver/CH59x_sys.c:44
        sys_safe_access_enable();
20000126:	c63a                	sw	a4,12(sp)
20000128:	0000100f          	fence.i
2000012c:	05078023          	sb	a6,64(a5)
20000130:	04b78023          	sb	a1,64(a5)
20000134:	0000100f          	fence.i
c:\Users\LRNA\Desktop\code\mounriver\ch592\ScienceOlympiadEV\obj/../StdPeriphDriver/CH59x_sys.c:45
        SAFEOPERATE;
20000138:	0000100f          	fence.i
c:\Users\LRNA\Desktop\code\mounriver\ch592\ScienceOlympiadEV\obj/../StdPeriphDriver/CH59x_sys.c:46
        R8_FLASH_CFG = 0X51;
2000013c:	40002737          	lui	a4,0x40002
20000140:	05100693          	li	a3,81
20000144:	80d703a3          	sb	a3,-2041(a4) # 40001807 <_eusrstack+0x1fffb007>
c:\Users\LRNA\Desktop\code\mounriver\ch592\ScienceOlympiadEV\obj/../StdPeriphDriver/CH59x_sys.c:47
        sys_safe_access_disable();
20000148:	04078023          	sb	zero,64(a5)
2000014c:	47b2                	lw	a5,12(sp)
__risc_v_enable_irq():
c:/Users/LRNA/Desktop/code/mounriver/ch592/ScienceOlympiadEV/RVMSIS/core_riscv.h:114
  __asm volatile ("csrrs %0, 0x800, %1" : \
2000014e:	8007a7f3          	csrrs	a5,0x800,a5
SetSysClock():
c:\Users\LRNA\Desktop\code\mounriver\ch592\ScienceOlympiadEV\obj/../StdPeriphDriver/CH59x_sys.c:74
    }
    else
    {
        sys_safe_access_enable();
        R32_CLK_SYS_CFG |= RB_CLK_SYS_MOD;
        sys_safe_access_disable();
20000152:	0000100f          	fence.i
__risc_v_disable_irq():
c:/Users/LRNA/Desktop/code/mounriver/ch592/ScienceOlympiadEV/RVMSIS/core_riscv.h:130
  __asm volatile ("csrrc %0, 0x800, %1" : \
20000156:	08800793          	li	a5,136
2000015a:	8007b7f3          	csrrc	a5,0x800,a5
c:/Users/LRNA/Desktop/code/mounriver/ch592/ScienceOlympiadEV/RVMSIS/core_riscv.h:132
  return result & 0x88;
2000015e:	0887f793          	andi	a5,a5,136
SetSysClock():
c:\Users\LRNA\Desktop\code\mounriver\ch592\ScienceOlympiadEV\obj/../StdPeriphDriver/CH59x_sys.c:77
    }
    //更改FLASH clk的驱动能力
    sys_safe_access_enable();
20000162:	ce3e                	sw	a5,28(sp)
20000164:	0000100f          	fence.i
20000168:	400017b7          	lui	a5,0x40001
2000016c:	05700713          	li	a4,87
20000170:	04e78023          	sb	a4,64(a5) # 40001040 <_eusrstack+0x1fffa840>
20000174:	fa800713          	li	a4,-88
20000178:	04e78023          	sb	a4,64(a5)
2000017c:	0000100f          	fence.i
c:\Users\LRNA\Desktop\code\mounriver\ch592\ScienceOlympiadEV\obj/../StdPeriphDriver/CH59x_sys.c:78
    R8_PLL_CONFIG |= 1 << 7;
20000180:	04b7c703          	lbu	a4,75(a5)
20000184:	08076713          	ori	a4,a4,128
20000188:	04e785a3          	sb	a4,75(a5)
c:\Users\LRNA\Desktop\code\mounriver\ch592\ScienceOlympiadEV\obj/../StdPeriphDriver/CH59x_sys.c:79
    sys_safe_access_disable();
2000018c:	04078023          	sb	zero,64(a5)
20000190:	47f2                	lw	a5,28(sp)
__risc_v_enable_irq():
c:/Users/LRNA/Desktop/code/mounriver/ch592/ScienceOlympiadEV/RVMSIS/core_riscv.h:114
  __asm volatile ("csrrs %0, 0x800, %1" : \
20000192:	8007a7f3          	csrrs	a5,0x800,a5
SetSysClock():
c:\Users\LRNA\Desktop\code\mounriver\ch592\ScienceOlympiadEV\obj/../StdPeriphDriver/CH59x_sys.c:79
20000196:	0000100f          	fence.i
c:\Users\LRNA\Desktop\code\mounriver\ch592\ScienceOlympiadEV\obj/../StdPeriphDriver/CH59x_sys.c:80
}
2000019a:	6105                	addi	sp,sp,32
2000019c:	8082                	ret
c:\Users\LRNA\Desktop\code\mounriver\ch592\ScienceOlympiadEV\obj/../StdPeriphDriver/CH59x_sys.c:50
    else if(sc & 0x40) // PLL div
2000019e:	04057613          	andi	a2,a0,64
200001a2:	c259                	beqz	a2,20000228 <SetSysClock+0x196>
__risc_v_disable_irq():
c:/Users/LRNA/Desktop/code/mounriver/ch592/ScienceOlympiadEV/RVMSIS/core_riscv.h:130
  __asm volatile ("csrrc %0, 0x800, %1" : \
200001a4:	80073673          	csrrc	a2,0x800,a4
c:/Users/LRNA/Desktop/code/mounriver/ch592/ScienceOlympiadEV/RVMSIS/core_riscv.h:132
  return result & 0x88;
200001a8:	08867613          	andi	a2,a2,136
SetSysClock():
c:\Users\LRNA\Desktop\code\mounriver\ch592\ScienceOlympiadEV\obj/../StdPeriphDriver/CH59x_sys.c:52
        sys_safe_access_enable();
200001ac:	c832                	sw	a2,16(sp)
200001ae:	0000100f          	fence.i
200001b2:	05078023          	sb	a6,64(a5)
200001b6:	04b78023          	sb	a1,64(a5)
200001ba:	0000100f          	fence.i
c:\Users\LRNA\Desktop\code\mounriver\ch592\ScienceOlympiadEV\obj/../StdPeriphDriver/CH59x_sys.c:53
        R32_CLK_SYS_CFG = (1 << 6) | (sc & 0x1f) | RB_TX_32M_PWR_EN | RB_PLL_PWR_EN;
200001be:	00140637          	lui	a2,0x140
200001c2:	04060613          	addi	a2,a2,64 # 140040 <_data_lma+0x13f708>
200001c6:	897d                	andi	a0,a0,31
200001c8:	8d51                	or	a0,a0,a2
200001ca:	c788                	sw	a0,8(a5)
c:\Users\LRNA\Desktop\code\mounriver\ch592\ScienceOlympiadEV\obj/../StdPeriphDriver/CH59x_sys.c:54
        __nop();
200001cc:	0001                	nop
c:\Users\LRNA\Desktop\code\mounriver\ch592\ScienceOlympiadEV\obj/../StdPeriphDriver/CH59x_sys.c:55
        __nop();
200001ce:	0001                	nop
c:\Users\LRNA\Desktop\code\mounriver\ch592\ScienceOlympiadEV\obj/../StdPeriphDriver/CH59x_sys.c:56
        __nop();
200001d0:	0001                	nop
c:\Users\LRNA\Desktop\code\mounriver\ch592\ScienceOlympiadEV\obj/../StdPeriphDriver/CH59x_sys.c:57
        __nop();
200001d2:	0001                	nop
c:\Users\LRNA\Desktop\code\mounriver\ch592\ScienceOlympiadEV\obj/../StdPeriphDriver/CH59x_sys.c:58
        sys_safe_access_disable();
200001d4:	04078023          	sb	zero,64(a5)
200001d8:	4642                	lw	a2,16(sp)
__risc_v_enable_irq():
c:/Users/LRNA/Desktop/code/mounriver/ch592/ScienceOlympiadEV/RVMSIS/core_riscv.h:114
  __asm volatile ("csrrs %0, 0x800, %1" : \
200001da:	80062673          	csrrs	a2,0x800,a2
SetSysClock():
c:\Users\LRNA\Desktop\code\mounriver\ch592\ScienceOlympiadEV\obj/../StdPeriphDriver/CH59x_sys.c:58
200001de:	0000100f          	fence.i
__risc_v_disable_irq():
c:/Users/LRNA/Desktop/code/mounriver/ch592/ScienceOlympiadEV/RVMSIS/core_riscv.h:130
  __asm volatile ("csrrc %0, 0x800, %1" : \
200001e2:	80073773          	csrrc	a4,0x800,a4
c:/Users/LRNA/Desktop/code/mounriver/ch592/ScienceOlympiadEV/RVMSIS/core_riscv.h:132
  return result & 0x88;
200001e6:	08877713          	andi	a4,a4,136
SetSysClock():
c:\Users\LRNA\Desktop\code\mounriver\ch592\ScienceOlympiadEV\obj/../StdPeriphDriver/CH59x_sys.c:59
        sys_safe_access_enable();
200001ea:	ca3a                	sw	a4,20(sp)
200001ec:	0000100f          	fence.i
200001f0:	05078023          	sb	a6,64(a5)
200001f4:	04b78023          	sb	a1,64(a5)
200001f8:	0000100f          	fence.i
c:\Users\LRNA\Desktop\code\mounriver\ch592\ScienceOlympiadEV\obj/../StdPeriphDriver/CH59x_sys.c:60
        if(chip_type)
200001fc:	47a5                	li	a5,9
c:\Users\LRNA\Desktop\code\mounriver\ch592\ScienceOlympiadEV\obj/../StdPeriphDriver/CH59x_sys.c:28
    if(((*(uint32_t*)ROM_CFG_VERISON)&0xFF) == DEF_CHIP_ID_CH592A)
200001fe:	0ff6f693          	andi	a3,a3,255
c:\Users\LRNA\Desktop\code\mounriver\ch592\ScienceOlympiadEV\obj/../StdPeriphDriver/CH59x_sys.c:60
        if(chip_type)
20000202:	00f69e63          	bne	a3,a5,2000021e <SetSysClock+0x18c>
c:\Users\LRNA\Desktop\code\mounriver\ch592\ScienceOlympiadEV\obj/../StdPeriphDriver/CH59x_sys.c:62
            R8_FLASH_CFG = 0X53;
20000206:	400027b7          	lui	a5,0x40002
2000020a:	05300713          	li	a4,83
c:\Users\LRNA\Desktop\code\mounriver\ch592\ScienceOlympiadEV\obj/../StdPeriphDriver/CH59x_sys.c:66
            R8_FLASH_CFG = 0X52;
2000020e:	80e783a3          	sb	a4,-2041(a5) # 40001807 <_eusrstack+0x1fffb007>
c:\Users\LRNA\Desktop\code\mounriver\ch592\ScienceOlympiadEV\obj/../StdPeriphDriver/CH59x_sys.c:68
        sys_safe_access_disable();
20000212:	400017b7          	lui	a5,0x40001
20000216:	04078023          	sb	zero,64(a5) # 40001040 <_eusrstack+0x1fffa840>
2000021a:	47d2                	lw	a5,20(sp)
__risc_v_enable_irq():
c:/Users/LRNA/Desktop/code/mounriver/ch592/ScienceOlympiadEV/RVMSIS/core_riscv.h:114
  __asm volatile ("csrrs %0, 0x800, %1" : \
2000021c:	bf0d                	j	2000014e <SetSysClock+0xbc>
SetSysClock():
c:\Users\LRNA\Desktop\code\mounriver\ch592\ScienceOlympiadEV\obj/../StdPeriphDriver/CH59x_sys.c:66
            R8_FLASH_CFG = 0X52;
2000021e:	400027b7          	lui	a5,0x40002
20000222:	05200713          	li	a4,82
20000226:	b7e5                	j	2000020e <SetSysClock+0x17c>
__risc_v_disable_irq():
c:/Users/LRNA/Desktop/code/mounriver/ch592/ScienceOlympiadEV/RVMSIS/core_riscv.h:130
  __asm volatile ("csrrc %0, 0x800, %1" : \
20000228:	80073773          	csrrc	a4,0x800,a4
c:/Users/LRNA/Desktop/code/mounriver/ch592/ScienceOlympiadEV/RVMSIS/core_riscv.h:132
  return result & 0x88;
2000022c:	08877713          	andi	a4,a4,136
SetSysClock():
c:\Users\LRNA\Desktop\code\mounriver\ch592\ScienceOlympiadEV\obj/../StdPeriphDriver/CH59x_sys.c:72
        sys_safe_access_enable();
20000230:	cc3a                	sw	a4,24(sp)
20000232:	0000100f          	fence.i
20000236:	05078023          	sb	a6,64(a5) # 40002040 <_eusrstack+0x1fffb840>
2000023a:	04b78023          	sb	a1,64(a5)
2000023e:	0000100f          	fence.i
c:\Users\LRNA\Desktop\code\mounriver\ch592\ScienceOlympiadEV\obj/../StdPeriphDriver/CH59x_sys.c:73
        R32_CLK_SYS_CFG |= RB_CLK_SYS_MOD;
20000242:	4798                	lw	a4,8(a5)
20000244:	0c076713          	ori	a4,a4,192
20000248:	c798                	sw	a4,8(a5)
c:\Users\LRNA\Desktop\code\mounriver\ch592\ScienceOlympiadEV\obj/../StdPeriphDriver/CH59x_sys.c:74
        sys_safe_access_disable();
2000024a:	04078023          	sb	zero,64(a5)
2000024e:	47e2                	lw	a5,24(sp)
20000250:	bdfd                	j	2000014e <SetSysClock+0xbc>

20000252 <SYS_ResetExecute>:
SYS_ResetExecute():
c:\Users\LRNA\Desktop\code\mounriver\ch592\ScienceOlympiadEV\obj/../StdPeriphDriver/CH59x_sys.c:142
 *
 * @return  none
 */
__HIGH_CODE
void SYS_ResetExecute(void)
{
20000252:	1101                	addi	sp,sp,-32
c:\Users\LRNA\Desktop\code\mounriver\ch592\ScienceOlympiadEV\obj/../StdPeriphDriver/CH59x_sys.c:143
    FLASH_ROM_SW_RESET();
20000254:	4681                	li	a3,0
20000256:	4601                	li	a2,0
20000258:	4581                	li	a1,0
2000025a:	4511                	li	a0,4
c:\Users\LRNA\Desktop\code\mounriver\ch592\ScienceOlympiadEV\obj/../StdPeriphDriver/CH59x_sys.c:142
{
2000025c:	ce06                	sw	ra,28(sp)
c:\Users\LRNA\Desktop\code\mounriver\ch592\ScienceOlympiadEV\obj/../StdPeriphDriver/CH59x_sys.c:143
    FLASH_ROM_SW_RESET();
2000025e:	2a7d                	jal	2000041c <FLASH_EEPROM_CMD>
__risc_v_disable_irq():
c:/Users/LRNA/Desktop/code/mounriver/ch592/ScienceOlympiadEV/RVMSIS/core_riscv.h:130
  __asm volatile ("csrrc %0, 0x800, %1" : \
20000260:	08800793          	li	a5,136
20000264:	8007b7f3          	csrrc	a5,0x800,a5
c:/Users/LRNA/Desktop/code/mounriver/ch592/ScienceOlympiadEV/RVMSIS/core_riscv.h:132
  return result & 0x88;
20000268:	0887f793          	andi	a5,a5,136
SYS_ResetExecute():
c:\Users\LRNA\Desktop\code\mounriver\ch592\ScienceOlympiadEV\obj/../StdPeriphDriver/CH59x_sys.c:144
    sys_safe_access_enable();
2000026c:	c63e                	sw	a5,12(sp)
2000026e:	0000100f          	fence.i
20000272:	400017b7          	lui	a5,0x40001
20000276:	05700713          	li	a4,87
2000027a:	04e78023          	sb	a4,64(a5) # 40001040 <_eusrstack+0x1fffa840>
2000027e:	fa800713          	li	a4,-88
20000282:	04e78023          	sb	a4,64(a5)
20000286:	0000100f          	fence.i
c:\Users\LRNA\Desktop\code\mounriver\ch592\ScienceOlympiadEV\obj/../StdPeriphDriver/CH59x_sys.c:145
    R8_RST_WDOG_CTRL |= RB_SOFTWARE_RESET;
2000028a:	0467c703          	lbu	a4,70(a5)
2000028e:	00176713          	ori	a4,a4,1
20000292:	04e78323          	sb	a4,70(a5)
c:\Users\LRNA\Desktop\code\mounriver\ch592\ScienceOlympiadEV\obj/../StdPeriphDriver/CH59x_sys.c:146
    sys_safe_access_disable();
20000296:	04078023          	sb	zero,64(a5)
2000029a:	47b2                	lw	a5,12(sp)
__risc_v_enable_irq():
c:/Users/LRNA/Desktop/code/mounriver/ch592/ScienceOlympiadEV/RVMSIS/core_riscv.h:114
  __asm volatile ("csrrs %0, 0x800, %1" : \
2000029c:	8007a7f3          	csrrs	a5,0x800,a5
SYS_ResetExecute():
c:\Users\LRNA\Desktop\code\mounriver\ch592\ScienceOlympiadEV\obj/../StdPeriphDriver/CH59x_sys.c:146
200002a0:	0000100f          	fence.i
c:\Users\LRNA\Desktop\code\mounriver\ch592\ScienceOlympiadEV\obj/../StdPeriphDriver/CH59x_sys.c:147
}
200002a4:	40f2                	lw	ra,28(sp)
200002a6:	6105                	addi	sp,sp,32
200002a8:	8082                	ret

200002aa <HardFault_Handler>:
HardFault_Handler():
c:\Users\LRNA\Desktop\code\mounriver\ch592\ScienceOlympiadEV\obj/../StdPeriphDriver/CH59x_sys.c:281
 */
__INTERRUPT
__HIGH_CODE
__attribute__((weak))
void HardFault_Handler(void)
{
200002aa:	1141                	addi	sp,sp,-16
c:\Users\LRNA\Desktop\code\mounriver\ch592\ScienceOlympiadEV\obj/../StdPeriphDriver/CH59x_sys.c:282
    FLASH_ROM_SW_RESET();
200002ac:	4681                	li	a3,0
200002ae:	4601                	li	a2,0
200002b0:	4581                	li	a1,0
200002b2:	4511                	li	a0,4
200002b4:	22a5                	jal	2000041c <FLASH_EEPROM_CMD>
__risc_v_disable_irq():
c:/Users/LRNA/Desktop/code/mounriver/ch592/ScienceOlympiadEV/RVMSIS/core_riscv.h:130
  __asm volatile ("csrrc %0, 0x800, %1" : \
200002b6:	08800713          	li	a4,136
200002ba:	800737f3          	csrrc	a5,0x800,a4
c:/Users/LRNA/Desktop/code/mounriver/ch592/ScienceOlympiadEV/RVMSIS/core_riscv.h:132
  return result & 0x88;
200002be:	0887f793          	andi	a5,a5,136
HardFault_Handler():
c:\Users\LRNA\Desktop\code\mounriver\ch592\ScienceOlympiadEV\obj/../StdPeriphDriver/CH59x_sys.c:283
    sys_safe_access_enable();
200002c2:	c43e                	sw	a5,8(sp)
200002c4:	0000100f          	fence.i
200002c8:	400017b7          	lui	a5,0x40001
200002cc:	05700613          	li	a2,87
200002d0:	04c78023          	sb	a2,64(a5) # 40001040 <_eusrstack+0x1fffa840>
200002d4:	fa800693          	li	a3,-88
200002d8:	04d78023          	sb	a3,64(a5)
200002dc:	0000100f          	fence.i
c:\Users\LRNA\Desktop\code\mounriver\ch592\ScienceOlympiadEV\obj/../StdPeriphDriver/CH59x_sys.c:284
    R16_INT32K_TUNE = 0xFFFF;
200002e0:	55fd                	li	a1,-1
200002e2:	02b79623          	sh	a1,44(a5)
c:\Users\LRNA\Desktop\code\mounriver\ch592\ScienceOlympiadEV\obj/../StdPeriphDriver/CH59x_sys.c:285
    sys_safe_access_disable();
200002e6:	04078023          	sb	zero,64(a5)
200002ea:	45a2                	lw	a1,8(sp)
__risc_v_enable_irq():
c:/Users/LRNA/Desktop/code/mounriver/ch592/ScienceOlympiadEV/RVMSIS/core_riscv.h:114
  __asm volatile ("csrrs %0, 0x800, %1" : \
200002ec:	8005a5f3          	csrrs	a1,0x800,a1
HardFault_Handler():
c:\Users\LRNA\Desktop\code\mounriver\ch592\ScienceOlympiadEV\obj/../StdPeriphDriver/CH59x_sys.c:285
200002f0:	0000100f          	fence.i
__risc_v_disable_irq():
c:/Users/LRNA/Desktop/code/mounriver/ch592/ScienceOlympiadEV/RVMSIS/core_riscv.h:130
  __asm volatile ("csrrc %0, 0x800, %1" : \
200002f4:	80073773          	csrrc	a4,0x800,a4
c:/Users/LRNA/Desktop/code/mounriver/ch592/ScienceOlympiadEV/RVMSIS/core_riscv.h:132
  return result & 0x88;
200002f8:	08877713          	andi	a4,a4,136
HardFault_Handler():
c:\Users\LRNA\Desktop\code\mounriver\ch592\ScienceOlympiadEV\obj/../StdPeriphDriver/CH59x_sys.c:286
    sys_safe_access_enable();
200002fc:	c63a                	sw	a4,12(sp)
200002fe:	0000100f          	fence.i
20000302:	04c78023          	sb	a2,64(a5)
20000306:	04d78023          	sb	a3,64(a5)
2000030a:	0000100f          	fence.i
c:\Users\LRNA\Desktop\code\mounriver\ch592\ScienceOlympiadEV\obj/../StdPeriphDriver/CH59x_sys.c:287
    R8_RST_WDOG_CTRL |= RB_SOFTWARE_RESET;
2000030e:	0467c703          	lbu	a4,70(a5)
20000312:	00176713          	ori	a4,a4,1
20000316:	04e78323          	sb	a4,70(a5)
c:\Users\LRNA\Desktop\code\mounriver\ch592\ScienceOlympiadEV\obj/../StdPeriphDriver/CH59x_sys.c:288
    sys_safe_access_disable();
2000031a:	04078023          	sb	zero,64(a5)
2000031e:	47b2                	lw	a5,12(sp)
__risc_v_enable_irq():
c:/Users/LRNA/Desktop/code/mounriver/ch592/ScienceOlympiadEV/RVMSIS/core_riscv.h:114
  __asm volatile ("csrrs %0, 0x800, %1" : \
20000320:	8007a7f3          	csrrs	a5,0x800,a5
HardFault_Handler():
c:\Users\LRNA\Desktop\code\mounriver\ch592\ScienceOlympiadEV\obj/../StdPeriphDriver/CH59x_sys.c:288
20000324:	0000100f          	fence.i
c:\Users\LRNA\Desktop\code\mounriver\ch592\ScienceOlympiadEV\obj/../StdPeriphDriver/CH59x_sys.c:289 (discriminator 1)
    while(1);
20000328:	a001                	j	20000328 <HardFault_Handler+0x7e>

2000032a <mDelayuS>:
mDelayuS():
c:\Users\LRNA\Desktop\code\mounriver\ch592\ScienceOlympiadEV\obj/../StdPeriphDriver/CH59x_sys.c:308
{
    uint32_t i;
#if(FREQ_SYS == 80000000)
    i = t * 20;
#elif(FREQ_SYS == 60000000)
    i = t * 15;
2000032a:	47bd                	li	a5,15
2000032c:	02f50533          	mul	a0,a0,a5
c:\Users\LRNA\Desktop\code\mounriver\ch592\ScienceOlympiadEV\obj/../StdPeriphDriver/CH59x_sys.c:332 (discriminator 1)
#else
    i = t << 1;
#endif
    do
    {
        __nop();
20000330:	0001                	nop
c:\Users\LRNA\Desktop\code\mounriver\ch592\ScienceOlympiadEV\obj/../StdPeriphDriver/CH59x_sys.c:333 (discriminator 1)
    } while(--i);
20000332:	157d                	addi	a0,a0,-1
20000334:	fd75                	bnez	a0,20000330 <mDelayuS+0x6>
c:\Users\LRNA\Desktop\code\mounriver\ch592\ScienceOlympiadEV\obj/../StdPeriphDriver/CH59x_sys.c:334
}
20000336:	8082                	ret

20000338 <mDelaymS>:
mDelaymS():
c:\Users\LRNA\Desktop\code\mounriver\ch592\ScienceOlympiadEV\obj/../StdPeriphDriver/CH59x_sys.c:347
 *
 * @return  none
 */
__HIGH_CODE
void mDelaymS(uint16_t t)
{
20000338:	1141                	addi	sp,sp,-16
2000033a:	c422                	sw	s0,8(sp)
2000033c:	c226                	sw	s1,4(sp)
2000033e:	c606                	sw	ra,12(sp)
20000340:	84aa                	mv	s1,a0
c:\Users\LRNA\Desktop\code\mounriver\ch592\ScienceOlympiadEV\obj/../StdPeriphDriver/CH59x_sys.c:350
    uint16_t i;

    for(i = 0; i < t; i++)
20000342:	4401                	li	s0,0
c:\Users\LRNA\Desktop\code\mounriver\ch592\ScienceOlympiadEV\obj/../StdPeriphDriver/CH59x_sys.c:350 (discriminator 1)
20000344:	00941763          	bne	s0,s1,20000352 <mDelaymS+0x1a>
c:\Users\LRNA\Desktop\code\mounriver\ch592\ScienceOlympiadEV\obj/../StdPeriphDriver/CH59x_sys.c:354
    {
        mDelayuS(1000);
    }
}
20000348:	40b2                	lw	ra,12(sp)
2000034a:	4422                	lw	s0,8(sp)
2000034c:	4492                	lw	s1,4(sp)
2000034e:	0141                	addi	sp,sp,16
20000350:	8082                	ret
c:\Users\LRNA\Desktop\code\mounriver\ch592\ScienceOlympiadEV\obj/../StdPeriphDriver/CH59x_sys.c:350 (discriminator 3)
    for(i = 0; i < t; i++)
20000352:	0405                	addi	s0,s0,1
c:\Users\LRNA\Desktop\code\mounriver\ch592\ScienceOlympiadEV\obj/../StdPeriphDriver/CH59x_sys.c:352 (discriminator 3)
        mDelayuS(1000);
20000354:	3e800513          	li	a0,1000
c:\Users\LRNA\Desktop\code\mounriver\ch592\ScienceOlympiadEV\obj/../StdPeriphDriver/CH59x_sys.c:350 (discriminator 3)
    for(i = 0; i < t; i++)
20000358:	0442                	slli	s0,s0,0x10
c:\Users\LRNA\Desktop\code\mounriver\ch592\ScienceOlympiadEV\obj/../StdPeriphDriver/CH59x_sys.c:352 (discriminator 3)
        mDelayuS(1000);
2000035a:	3fc1                	jal	2000032a <mDelayuS>
c:\Users\LRNA\Desktop\code\mounriver\ch592\ScienceOlympiadEV\obj/../StdPeriphDriver/CH59x_sys.c:350 (discriminator 3)
    for(i = 0; i < t; i++)
2000035c:	8041                	srli	s0,s0,0x10
2000035e:	b7dd                	j	20000344 <mDelaymS+0xc>

20000360 <FLASH_ROM_BEG>:
FLASH_ROM_BEG():
20000360:	80040323          	sb	zero,-2042(s0)
20000364:	4715                	li	a4,5
20000366:	80e40323          	sb	a4,-2042(s0)
2000036a:	0001                	nop
2000036c:	80a40223          	sb	a0,-2044(s0)
20000370:	8082                	ret

20000372 <FLASH_ROM_END>:
FLASH_ROM_END():
20000372:	80640783          	lb	a5,-2042(s0)
20000376:	fe07cee3          	bltz	a5,20000372 <FLASH_ROM_END>
2000037a:	80040323          	sb	zero,-2042(s0)
2000037e:	8082                	ret

20000380 <FLASH_ROM_IN>:
FLASH_ROM_IN():
20000380:	80640783          	lb	a5,-2042(s0)
20000384:	fe07cee3          	bltz	a5,20000380 <FLASH_ROM_IN>
20000388:	80444503          	lbu	a0,-2044(s0)
2000038c:	8082                	ret

2000038e <FLASH_ROM_OUT>:
FLASH_ROM_OUT():
2000038e:	80640783          	lb	a5,-2042(s0)
20000392:	fe07cee3          	bltz	a5,2000038e <FLASH_ROM_OUT>
20000396:	80a40223          	sb	a0,-2044(s0)
2000039a:	8082                	ret

2000039c <FLASH_ROM_ADDR>:
FLASH_ROM_ADDR():
2000039c:	1141                	addi	sp,sp,-16
2000039e:	c426                	sw	s1,8(sp)
200003a0:	c24a                	sw	s2,4(sp)
200003a2:	c04e                	sw	s3,0(sp)
200003a4:	c606                	sw	ra,12(sp)
200003a6:	0bf57713          	andi	a4,a0,191
200003aa:	47ad                	li	a5,11
200003ac:	89aa                	mv	s3,a0
200003ae:	892e                	mv	s2,a1
200003b0:	4495                	li	s1,5
200003b2:	00f70663          	beq	a4,a5,200003be <FLASH_ROM_ADDR+0x22>
200003b6:	4519                	li	a0,6
200003b8:	3765                	jal	20000360 <FLASH_ROM_BEG>
200003ba:	3f65                	jal	20000372 <FLASH_ROM_END>
200003bc:	448d                	li	s1,3
200003be:	854e                	mv	a0,s3
200003c0:	3745                	jal	20000360 <FLASH_ROM_BEG>
200003c2:	59fd                	li	s3,-1
200003c4:	14fd                	addi	s1,s1,-1
200003c6:	01349863          	bne	s1,s3,200003d6 <FLASH_ROM_ADDR+0x3a>
200003ca:	40b2                	lw	ra,12(sp)
200003cc:	44a2                	lw	s1,8(sp)
200003ce:	4912                	lw	s2,4(sp)
200003d0:	4982                	lw	s3,0(sp)
200003d2:	0141                	addi	sp,sp,16
200003d4:	8082                	ret
200003d6:	01095513          	srli	a0,s2,0x10
200003da:	0ff57513          	andi	a0,a0,255
200003de:	3f45                	jal	2000038e <FLASH_ROM_OUT>
200003e0:	0922                	slli	s2,s2,0x8
200003e2:	b7cd                	j	200003c4 <FLASH_ROM_ADDR+0x28>

200003e4 <FLASH_ROM_WAIT>:
FLASH_ROM_WAIT():
200003e4:	1101                	addi	sp,sp,-32
200003e6:	cc26                	sw	s1,24(sp)
200003e8:	ce06                	sw	ra,28(sp)
200003ea:	000804b7          	lui	s1,0x80
200003ee:	3751                	jal	20000372 <FLASH_ROM_END>
200003f0:	4515                	li	a0,5
200003f2:	37bd                	jal	20000360 <FLASH_ROM_BEG>
200003f4:	3771                	jal	20000380 <FLASH_ROM_IN>
200003f6:	3769                	jal	20000380 <FLASH_ROM_IN>
200003f8:	c62a                	sw	a0,12(sp)
200003fa:	3fa5                	jal	20000372 <FLASH_ROM_END>
200003fc:	4532                	lw	a0,12(sp)
200003fe:	00157793          	andi	a5,a0,1
20000402:	eb89                	bnez	a5,20000414 <FLASH_ROM_WAIT+0x30>
20000404:	00156513          	ori	a0,a0,1
20000408:	0ff57513          	andi	a0,a0,255
2000040c:	40f2                	lw	ra,28(sp)
2000040e:	44e2                	lw	s1,24(sp)
20000410:	6105                	addi	sp,sp,32
20000412:	8082                	ret
20000414:	14fd                	addi	s1,s1,-1
20000416:	fce9                	bnez	s1,200003f0 <FLASH_ROM_WAIT+0xc>
20000418:	4501                	li	a0,0
2000041a:	bfcd                	j	2000040c <FLASH_ROM_WAIT+0x28>

2000041c <FLASH_EEPROM_CMD>:
FLASH_EEPROM_CMD():
2000041c:	7139                	addi	sp,sp,-64
2000041e:	dc26                	sw	s1,56(sp)
20000420:	da4a                	sw	s2,52(sp)
20000422:	d84e                	sw	s3,48(sp)
20000424:	d652                	sw	s4,44(sp)
20000426:	d456                	sw	s5,40(sp)
20000428:	d25a                	sw	s6,36(sp)
2000042a:	d05e                	sw	s7,32(sp)
2000042c:	de06                	sw	ra,60(sp)
2000042e:	ce62                	sw	s8,28(sp)
20000430:	cc66                	sw	s9,24(sp)
20000432:	e000e7b7          	lui	a5,0xe000e
20000436:	577d                	li	a4,-1
20000438:	0007aa83          	lw	s5,0(a5) # e000e000 <_eusrstack+0xc0007800>
2000043c:	c622                	sw	s0,12(sp)
2000043e:	0047aa03          	lw	s4,4(a5)
20000442:	18e7a023          	sw	a4,384(a5)
20000446:	18e7a223          	sw	a4,388(a5)
2000044a:	400017b7          	lui	a5,0x40001
2000044e:	05700713          	li	a4,87
20000452:	04e78023          	sb	a4,64(a5) # 40001040 <_eusrstack+0x1fffa840>
20000456:	fa800713          	li	a4,-88
2000045a:	04e78023          	sb	a4,64(a5)
2000045e:	0447c783          	lbu	a5,68(a5)
20000462:	ff750b93          	addi	s7,a0,-9
20000466:	84b6                	mv	s1,a3
20000468:	07e2                	slli	a5,a5,0x18
2000046a:	0ffbfb93          	andi	s7,s7,255
2000046e:	4685                	li	a3,1
20000470:	89aa                	mv	s3,a0
20000472:	8b2e                	mv	s6,a1
20000474:	8932                	mv	s2,a2
20000476:	40002437          	lui	s0,0x40002
2000047a:	87e1                	srai	a5,a5,0x18
2000047c:	5701                	li	a4,-32
2000047e:	0176fa63          	bgeu	a3,s7,20000492 <FLASH_EEPROM_CMD+0x76>
20000482:	00d50863          	beq	a0,a3,20000492 <FLASH_EEPROM_CMD+0x76>
20000486:	4689                	li	a3,2
20000488:	02000713          	li	a4,32
2000048c:	00d51363          	bne	a0,a3,20000492 <FLASH_EEPROM_CMD+0x76>
20000490:	5701                	li	a4,-32
20000492:	8fd9                	or	a5,a5,a4
20000494:	0ff7f793          	andi	a5,a5,255
20000498:	40001cb7          	lui	s9,0x40001
2000049c:	04fc8223          	sb	a5,68(s9) # 40001044 <_eusrstack+0x1fffa844>
200004a0:	4711                	li	a4,4
200004a2:	80e40323          	sb	a4,-2042(s0) # 40001806 <_eusrstack+0x1fffb006>
200004a6:	0ff00513          	li	a0,255
200004aa:	3d5d                	jal	20000360 <FLASH_ROM_BEG>
200004ac:	4c09                	li	s8,2
200004ae:	35d1                	jal	20000372 <FLASH_ROM_END>
200004b0:	117c6d63          	bltu	s8,s7,200005ca <FLASH_EEPROM_CMD+0x1ae>
200004b4:	000705b7          	lui	a1,0x70
200004b8:	95da                	add	a1,a1,s6
200004ba:	00078737          	lui	a4,0x78
200004be:	5579                	li	a0,-2
200004c0:	04e5f263          	bgeu	a1,a4,20000504 <FLASH_EEPROM_CMD+0xe8>
200004c4:	009587b3          	add	a5,a1,s1
200004c8:	02f76e63          	bltu	a4,a5,20000504 <FLASH_EEPROM_CMD+0xe8>
200004cc:	00080b37          	lui	s6,0x80
200004d0:	47a9                	li	a5,10
200004d2:	0165eb33          	or	s6,a1,s6
200004d6:	06f99963          	bne	s3,a5,20000548 <FLASH_EEPROM_CMD+0x12c>
200004da:	e489                	bnez	s1,200004e4 <FLASH_EEPROM_CMD+0xc8>
200004dc:	4481                	li	s1,0
200004de:	3d51                	jal	20000372 <FLASH_ROM_END>
200004e0:	8526                	mv	a0,s1
200004e2:	a00d                	j	20000504 <FLASH_EEPROM_CMD+0xe8>
200004e4:	85da                	mv	a1,s6
200004e6:	4509                	li	a0,2
200004e8:	3d55                	jal	2000039c <FLASH_ROM_ADDR>
200004ea:	0905                	addi	s2,s2,1
200004ec:	fff94503          	lbu	a0,-1(s2)
200004f0:	14fd                	addi	s1,s1,-1
200004f2:	0b05                	addi	s6,s6,1
200004f4:	3d69                	jal	2000038e <FLASH_ROM_OUT>
200004f6:	c481                	beqz	s1,200004fe <FLASH_EEPROM_CMD+0xe2>
200004f8:	0ffb7793          	andi	a5,s6,255
200004fc:	f7fd                	bnez	a5,200004ea <FLASH_EEPROM_CMD+0xce>
200004fe:	35dd                	jal	200003e4 <FLASH_ROM_WAIT>
20000500:	fd69                	bnez	a0,200004da <FLASH_EEPROM_CMD+0xbe>
20000502:	557d                	li	a0,-1
20000504:	400017b7          	lui	a5,0x40001
20000508:	05700713          	li	a4,87
2000050c:	04e78023          	sb	a4,64(a5) # 40001040 <_eusrstack+0x1fffa840>
20000510:	fa800713          	li	a4,-88
20000514:	04e78023          	sb	a4,64(a5)
20000518:	0447c703          	lbu	a4,68(a5)
2000051c:	8b41                	andi	a4,a4,16
2000051e:	04e78223          	sb	a4,68(a5)
20000522:	50f2                	lw	ra,60(sp)
20000524:	e000e7b7          	lui	a5,0xe000e
20000528:	1157a023          	sw	s5,256(a5) # e000e100 <_eusrstack+0xc0007900>
2000052c:	1147a223          	sw	s4,260(a5)
20000530:	54e2                	lw	s1,56(sp)
20000532:	4432                	lw	s0,12(sp)
20000534:	5952                	lw	s2,52(sp)
20000536:	59c2                	lw	s3,48(sp)
20000538:	5a32                	lw	s4,44(sp)
2000053a:	5aa2                	lw	s5,40(sp)
2000053c:	5b12                	lw	s6,36(sp)
2000053e:	5b82                	lw	s7,32(sp)
20000540:	4c72                	lw	s8,28(sp)
20000542:	4ce2                	lw	s9,24(sp)
20000544:	6121                	addi	sp,sp,64
20000546:	8082                	ret
20000548:	47a5                	li	a5,9
2000054a:	06f99563          	bne	s3,a5,200005b4 <FLASH_EEPROM_CMD+0x198>
2000054e:	6985                	lui	s3,0x1
20000550:	0ff00913          	li	s2,255
20000554:	009906b3          	add	a3,s2,s1
20000558:	012b74b3          	and	s1,s6,s2
2000055c:	94b6                	add	s1,s1,a3
2000055e:	fff94913          	not	s2,s2
20000562:	009974b3          	and	s1,s2,s1
20000566:	6b85                	lui	s7,0x1
20000568:	01697933          	and	s2,s2,s6
2000056c:	6b41                	lui	s6,0x10
2000056e:	fff98793          	addi	a5,s3,-1 # fff <_data_lma+0x6c7>
20000572:	0127f7b3          	and	a5,a5,s2
20000576:	e399                	bnez	a5,2000057c <FLASH_EEPROM_CMD+0x160>
20000578:	0134fc63          	bgeu	s1,s3,20000590 <FLASH_EEPROM_CMD+0x174>
2000057c:	0049d993          	srli	s3,s3,0x4
20000580:	47c1                	li	a5,16
20000582:	ff37e6e3          	bltu	a5,s3,2000056e <FLASH_EEPROM_CMD+0x152>
20000586:	bf99                	j	200004dc <FLASH_EEPROM_CMD+0xc0>
20000588:	6905                	lui	s2,0x1
2000058a:	69c1                	lui	s3,0x10
2000058c:	197d                	addi	s2,s2,-1
2000058e:	b7d9                	j	20000554 <FLASH_EEPROM_CMD+0x138>
20000590:	0d800513          	li	a0,216
20000594:	01698863          	beq	s3,s6,200005a4 <FLASH_EEPROM_CMD+0x188>
20000598:	02000513          	li	a0,32
2000059c:	01798463          	beq	s3,s7,200005a4 <FLASH_EEPROM_CMD+0x188>
200005a0:	08100513          	li	a0,129
200005a4:	85ca                	mv	a1,s2
200005a6:	3bdd                	jal	2000039c <FLASH_ROM_ADDR>
200005a8:	3d35                	jal	200003e4 <FLASH_ROM_WAIT>
200005aa:	dd21                	beqz	a0,20000502 <FLASH_EEPROM_CMD+0xe6>
200005ac:	994e                	add	s2,s2,s3
200005ae:	413484b3          	sub	s1,s1,s3
200005b2:	b7d9                	j	20000578 <FLASH_EEPROM_CMD+0x15c>
200005b4:	85da                	mv	a1,s6
200005b6:	452d                	li	a0,11
200005b8:	33d5                	jal	2000039c <FLASH_ROM_ADDR>
200005ba:	94ca                	add	s1,s1,s2
200005bc:	f29900e3          	beq	s2,s1,200004dc <FLASH_EEPROM_CMD+0xc0>
200005c0:	0905                	addi	s2,s2,1
200005c2:	3b7d                	jal	20000380 <FLASH_ROM_IN>
200005c4:	fea90fa3          	sb	a0,-1(s2) # fff <_data_lma+0x6c7>
200005c8:	bfd5                	j	200005bc <FLASH_EEPROM_CMD+0x1a0>
200005ca:	fff98793          	addi	a5,s3,-1 # ffff <_data_lma+0xf6c7>
200005ce:	0ff7f793          	andi	a5,a5,255
200005d2:	0cfc6163          	bltu	s8,a5,20000694 <.loop402+0x7a>
200005d6:	041cc783          	lbu	a5,65(s9)
200005da:	08300713          	li	a4,131
200005de:	04f71f63          	bne	a4,a5,2000063c <.loop402+0x22>
200005e2:	00080737          	lui	a4,0x80
200005e6:	04eb6b63          	bltu	s6,a4,2000063c <.loop402+0x22>
200005ea:	009b07b3          	add	a5,s6,s1
200005ee:	001006b7          	lui	a3,0x100
200005f2:	04d7f563          	bgeu	a5,a3,2000063c <.loop402+0x22>
200005f6:	00eb4b33          	xor	s6,s6,a4
200005fa:	4789                	li	a5,2
200005fc:	06f99363          	bne	s3,a5,20000662 <.loop402+0x48>
20000600:	8089                	srli	s1,s1,0x2
20000602:	49d5                	li	s3,21
20000604:	ec048ce3          	beqz	s1,200004dc <FLASH_EEPROM_CMD+0xc0>
20000608:	85da                	mv	a1,s6
2000060a:	4509                	li	a0,2
2000060c:	3b41                	jal	2000039c <FLASH_ROM_ADDR>
2000060e:	0911                	addi	s2,s2,4
20000610:	ffc92703          	lw	a4,-4(s2)
20000614:	4791                	li	a5,4
20000616:	80e42023          	sw	a4,-2048(s0)

2000061a <.loop402>:
2000061a:	80640703          	lb	a4,-2042(s0)
2000061e:	fe074ee3          	bltz	a4,2000061a <.loop402>
20000622:	81340323          	sb	s3,-2042(s0)
20000626:	17fd                	addi	a5,a5,-1
20000628:	fbed                	bnez	a5,2000061a <.loop402>
2000062a:	14fd                	addi	s1,s1,-1
2000062c:	0b11                	addi	s6,s6,4
2000062e:	c481                	beqz	s1,20000636 <.loop402+0x1c>
20000630:	0ffb7793          	andi	a5,s6,255
20000634:	ffe9                	bnez	a5,2000060e <FLASH_EEPROM_CMD+0x1f2>
20000636:	337d                	jal	200003e4 <FLASH_ROM_WAIT>
20000638:	f571                	bnez	a0,20000604 <FLASH_EEPROM_CMD+0x1e8>
2000063a:	b5e1                	j	20000502 <FLASH_EEPROM_CMD+0xe6>
2000063c:	400017b7          	lui	a5,0x40001
20000640:	0457c703          	lbu	a4,69(a5) # 40001045 <_eusrstack+0x1fffa845>
20000644:	000807b7          	lui	a5,0x80
20000648:	02077713          	andi	a4,a4,32
2000064c:	e319                	bnez	a4,20000652 <.loop402+0x38>
2000064e:	000787b7          	lui	a5,0x78
20000652:	5579                	li	a0,-2
20000654:	eafb78e3          	bgeu	s6,a5,20000504 <FLASH_EEPROM_CMD+0xe8>
20000658:	009b0733          	add	a4,s6,s1
2000065c:	f8e7ffe3          	bgeu	a5,a4,200005fa <FLASH_EEPROM_CMD+0x1de>
20000660:	b555                	j	20000504 <FLASH_EEPROM_CMD+0xe8>
20000662:	4785                	li	a5,1
20000664:	f2f982e3          	beq	s3,a5,20000588 <FLASH_EEPROM_CMD+0x16c>
20000668:	85da                	mv	a1,s6
2000066a:	452d                	li	a0,11
2000066c:	3b05                	jal	2000039c <FLASH_ROM_ADDR>
2000066e:	fff48993          	addi	s3,s1,-1 # 7ffff <_data_lma+0x7f6c7>
20000672:	e60485e3          	beqz	s1,200004dc <FLASH_EEPROM_CMD+0xc0>
20000676:	3329                	jal	20000380 <FLASH_ROM_IN>
20000678:	0039f793          	andi	a5,s3,3
2000067c:	eb91                	bnez	a5,20000690 <.loop402+0x76>
2000067e:	80042683          	lw	a3,-2048(s0)
20000682:	00092703          	lw	a4,0(s2)
20000686:	00490793          	addi	a5,s2,4
2000068a:	e4e69ae3          	bne	a3,a4,200004de <FLASH_EEPROM_CMD+0xc2>
2000068e:	893e                	mv	s2,a5
20000690:	84ce                	mv	s1,s3
20000692:	bff1                	j	2000066e <.loop402+0x54>
20000694:	47b5                	li	a5,13
20000696:	00f99663          	bne	s3,a5,200006a2 <.loop402+0x88>
2000069a:	0b900513          	li	a0,185
2000069e:	31c9                	jal	20000360 <FLASH_ROM_BEG>
200006a0:	bd35                	j	200004dc <FLASH_EEPROM_CMD+0xc0>
200006a2:	47b1                	li	a5,12
200006a4:	0ab00513          	li	a0,171
200006a8:	fef98be3          	beq	s3,a5,2000069e <.loop402+0x84>
200006ac:	4799                	li	a5,6
200006ae:	04f99163          	bne	s3,a5,200006f0 <.loop402+0xd6>
200006b2:	000805b7          	lui	a1,0x80
200006b6:	00bb65b3          	or	a1,s6,a1
200006ba:	452d                	li	a0,11
200006bc:	31c5                	jal	2000039c <FLASH_ROM_ADDR>
200006be:	4481                	li	s1,0
200006c0:	4b8d                	li	s7,3
200006c2:	49a1                	li	s3,8
200006c4:	3975                	jal	20000380 <FLASH_ROM_IN>
200006c6:	01749663          	bne	s1,s7,200006d2 <.loop402+0xb8>
200006ca:	80042783          	lw	a5,-2048(s0)
200006ce:	00f92023          	sw	a5,0(s2)
200006d2:	0485                	addi	s1,s1,1
200006d4:	ff3498e3          	bne	s1,s3,200006c4 <.loop402+0xaa>
200006d8:	80042783          	lw	a5,-2048(s0)
200006dc:	012b1713          	slli	a4,s6,0x12
200006e0:	00075563          	bgez	a4,200006ea <.loop402+0xd0>
200006e4:	00f91223          	sh	a5,4(s2)
200006e8:	bbd5                	j	200004dc <FLASH_EEPROM_CMD+0xc0>
200006ea:	00f92223          	sw	a5,4(s2)
200006ee:	b3fd                	j	200004dc <FLASH_EEPROM_CMD+0xc0>
200006f0:	479d                	li	a5,7
200006f2:	02f99963          	bne	s3,a5,20000724 <.loop402+0x10a>
200006f6:	4581                	li	a1,0
200006f8:	04b00513          	li	a0,75
200006fc:	3145                	jal	2000039c <FLASH_ROM_ADDR>
200006fe:	44bd                	li	s1,15
20000700:	00092023          	sw	zero,0(s2)
20000704:	00092223          	sw	zero,4(s2)
20000708:	59fd                	li	s3,-1
2000070a:	399d                	jal	20000380 <FLASH_ROM_IN>
2000070c:	0074f793          	andi	a5,s1,7
20000710:	97ca                	add	a5,a5,s2
20000712:	0007c703          	lbu	a4,0(a5) # 78000 <_data_lma+0x776c8>
20000716:	14fd                	addi	s1,s1,-1
20000718:	8d39                	xor	a0,a0,a4
2000071a:	00a78023          	sb	a0,0(a5)
2000071e:	ff3496e3          	bne	s1,s3,2000070a <.loop402+0xf0>
20000722:	bb6d                	j	200004dc <FLASH_EEPROM_CMD+0xc0>
20000724:	47a1                	li	a5,8
20000726:	04f99263          	bne	s3,a5,2000076a <.loop402+0x150>
2000072a:	396d                	jal	200003e4 <FLASH_ROM_WAIT>
2000072c:	4481                	li	s1,0
2000072e:	000b0d63          	beqz	s6,20000748 <.loop402+0x12e>
20000732:	478d                	li	a5,3
20000734:	03c00493          	li	s1,60
20000738:	00fb0863          	beq	s6,a5,20000748 <.loop402+0x12e>
2000073c:	05000493          	li	s1,80
20000740:	018b0463          	beq	s6,s8,20000748 <.loop402+0x12e>
20000744:	04400493          	li	s1,68
20000748:	07c57513          	andi	a0,a0,124
2000074c:	d89508e3          	beq	a0,s1,200004dc <FLASH_EEPROM_CMD+0xc0>
20000750:	4519                	li	a0,6
20000752:	3139                	jal	20000360 <FLASH_ROM_BEG>
20000754:	3939                	jal	20000372 <FLASH_ROM_END>
20000756:	4505                	li	a0,1
20000758:	3121                	jal	20000360 <FLASH_ROM_BEG>
2000075a:	8526                	mv	a0,s1
2000075c:	390d                	jal	2000038e <FLASH_ROM_OUT>
2000075e:	4509                	li	a0,2
20000760:	313d                	jal	2000038e <FLASH_ROM_OUT>
20000762:	3149                	jal	200003e4 <FLASH_ROM_WAIT>
20000764:	d6051ce3          	bnez	a0,200004dc <FLASH_EEPROM_CMD+0xc0>
20000768:	bb69                	j	20000502 <FLASH_EEPROM_CMD+0xe6>
2000076a:	4791                	li	a5,4
2000076c:	00f99963          	bne	s3,a5,2000077e <.loop402+0x164>
20000770:	06600513          	li	a0,102
20000774:	36f5                	jal	20000360 <FLASH_ROM_BEG>
20000776:	3ef5                	jal	20000372 <FLASH_ROM_END>
20000778:	09900513          	li	a0,153
2000077c:	b70d                	j	2000069e <.loop402+0x84>
2000077e:	d4098fe3          	beqz	s3,200004dc <FLASH_EEPROM_CMD+0xc0>
20000782:	54f1                	li	s1,-4
20000784:	bba9                	j	200004de <FLASH_EEPROM_CMD+0xc2>
	...

Disassembly of section .text:

0000078c <handle_reset>:
handle_reset():
c:\Users\LRNA\Desktop\code\mounriver\ch592\ScienceOlympiadEV\obj/../Startup/startup_CH592.S:127
	.weak	handle_reset
	.align	1
handle_reset:
.option push 
.option	norelax 
	la gp, __global_pointer$
 78c:	20000197          	auipc	gp,0x20000
 790:	7fc18193          	addi	gp,gp,2044 # 20000f88 <__global_pointer$>
c:\Users\LRNA\Desktop\code\mounriver\ch592\ScienceOlympiadEV\obj/../Startup/startup_CH592.S:130
.option	pop 
1:
	la sp, _eusrstack 
 794:	20006117          	auipc	sp,0x20006
 798:	06c10113          	addi	sp,sp,108 # 20006800 <_eusrstack>
c:\Users\LRNA\Desktop\code\mounriver\ch592\ScienceOlympiadEV\obj/../Startup/startup_CH592.S:134

/* Load highcode code  section from flash to RAM */
2:
    la a0, _highcode_lma
 79c:	00400513          	li	a0,4
c:\Users\LRNA\Desktop\code\mounriver\ch592\ScienceOlympiadEV\obj/../Startup/startup_CH592.S:135
    la a1, _highcode_vma_start
 7a0:	20000597          	auipc	a1,0x20000
 7a4:	86058593          	addi	a1,a1,-1952 # 20000000 <_highcode_vma_start>
c:\Users\LRNA\Desktop\code\mounriver\ch592\ScienceOlympiadEV\obj/../Startup/startup_CH592.S:136
    la a2, _highcode_vma_end
 7a8:	20000617          	auipc	a2,0x20000
 7ac:	fe060613          	addi	a2,a2,-32 # 20000788 <_highcode_vma_end>
c:\Users\LRNA\Desktop\code\mounriver\ch592\ScienceOlympiadEV\obj/../Startup/startup_CH592.S:137
    bgeu a1, a2, 2f
 7b0:	00c5fa63          	bgeu	a1,a2,7c4 <handle_reset+0x38>
c:\Users\LRNA\Desktop\code\mounriver\ch592\ScienceOlympiadEV\obj/../Startup/startup_CH592.S:139
1:
    lw t0, (a0)
 7b4:	00052283          	lw	t0,0(a0)
c:\Users\LRNA\Desktop\code\mounriver\ch592\ScienceOlympiadEV\obj/../Startup/startup_CH592.S:140
    sw t0, (a1)
 7b8:	0055a023          	sw	t0,0(a1)
c:\Users\LRNA\Desktop\code\mounriver\ch592\ScienceOlympiadEV\obj/../Startup/startup_CH592.S:141
    addi a0, a0, 4
 7bc:	0511                	addi	a0,a0,4
c:\Users\LRNA\Desktop\code\mounriver\ch592\ScienceOlympiadEV\obj/../Startup/startup_CH592.S:142
    addi a1, a1, 4
 7be:	0591                	addi	a1,a1,4
c:\Users\LRNA\Desktop\code\mounriver\ch592\ScienceOlympiadEV\obj/../Startup/startup_CH592.S:143
    bltu a1, a2, 1b
 7c0:	fec5eae3          	bltu	a1,a2,7b4 <handle_reset+0x28>
c:\Users\LRNA\Desktop\code\mounriver\ch592\ScienceOlympiadEV\obj/../Startup/startup_CH592.S:147

/* Load data section from flash to RAM */
2:
	la a0, _data_lma
 7c4:	00000517          	auipc	a0,0x0
 7c8:	17450513          	addi	a0,a0,372 # 938 <_data_lma>
c:\Users\LRNA\Desktop\code\mounriver\ch592\ScienceOlympiadEV\obj/../Startup/startup_CH592.S:148
	la a1, _data_vma
 7cc:	20000597          	auipc	a1,0x20000
 7d0:	fbc58593          	addi	a1,a1,-68 # 20000788 <_highcode_vma_end>
c:\Users\LRNA\Desktop\code\mounriver\ch592\ScienceOlympiadEV\obj/../Startup/startup_CH592.S:149
	la a2, _edata
 7d4:	20000617          	auipc	a2,0x20000
 7d8:	fb460613          	addi	a2,a2,-76 # 20000788 <_highcode_vma_end>
c:\Users\LRNA\Desktop\code\mounriver\ch592\ScienceOlympiadEV\obj/../Startup/startup_CH592.S:150
	bgeu a1, a2, 2f
 7dc:	00c5fa63          	bgeu	a1,a2,7f0 <handle_reset+0x64>
c:\Users\LRNA\Desktop\code\mounriver\ch592\ScienceOlympiadEV\obj/../Startup/startup_CH592.S:152
1:
	lw t0, (a0)
 7e0:	00052283          	lw	t0,0(a0)
c:\Users\LRNA\Desktop\code\mounriver\ch592\ScienceOlympiadEV\obj/../Startup/startup_CH592.S:153
	sw t0, (a1)
 7e4:	0055a023          	sw	t0,0(a1)
c:\Users\LRNA\Desktop\code\mounriver\ch592\ScienceOlympiadEV\obj/../Startup/startup_CH592.S:154
	addi a0, a0, 4
 7e8:	0511                	addi	a0,a0,4
c:\Users\LRNA\Desktop\code\mounriver\ch592\ScienceOlympiadEV\obj/../Startup/startup_CH592.S:155
	addi a1, a1, 4
 7ea:	0591                	addi	a1,a1,4
c:\Users\LRNA\Desktop\code\mounriver\ch592\ScienceOlympiadEV\obj/../Startup/startup_CH592.S:156
	bltu a1, a2, 1b
 7ec:	fec5eae3          	bltu	a1,a2,7e0 <handle_reset+0x54>
c:\Users\LRNA\Desktop\code\mounriver\ch592\ScienceOlympiadEV\obj/../Startup/startup_CH592.S:159
2:
	/* clear bss section */
	la a0, _sbss
 7f0:	20000517          	auipc	a0,0x20000
 7f4:	f9850513          	addi	a0,a0,-104 # 20000788 <_highcode_vma_end>
c:\Users\LRNA\Desktop\code\mounriver\ch592\ScienceOlympiadEV\obj/../Startup/startup_CH592.S:160
	la a1, _ebss
 7f8:	20000597          	auipc	a1,0x20000
 7fc:	f9058593          	addi	a1,a1,-112 # 20000788 <_highcode_vma_end>
c:\Users\LRNA\Desktop\code\mounriver\ch592\ScienceOlympiadEV\obj/../Startup/startup_CH592.S:161
	bgeu a0, a1, 2f
 800:	00b57763          	bgeu	a0,a1,80e <handle_reset+0x82>
c:\Users\LRNA\Desktop\code\mounriver\ch592\ScienceOlympiadEV\obj/../Startup/startup_CH592.S:163
1:
	sw zero, (a0)
 804:	00052023          	sw	zero,0(a0)
c:\Users\LRNA\Desktop\code\mounriver\ch592\ScienceOlympiadEV\obj/../Startup/startup_CH592.S:164
	addi a0, a0, 4
 808:	0511                	addi	a0,a0,4
c:\Users\LRNA\Desktop\code\mounriver\ch592\ScienceOlympiadEV\obj/../Startup/startup_CH592.S:165
	bltu a0, a1, 1b
 80a:	feb56de3          	bltu	a0,a1,804 <handle_reset+0x78>
c:\Users\LRNA\Desktop\code\mounriver\ch592\ScienceOlympiadEV\obj/../Startup/startup_CH592.S:168
2:
	/* 流水线控制位 & 动态预测控制位 */
	li t0, 0x1f
 80e:	42fd                	li	t0,31
c:\Users\LRNA\Desktop\code\mounriver\ch592\ScienceOlympiadEV\obj/../Startup/startup_CH592.S:169
	csrw 0xbc0, t0
 810:	bc029073          	csrw	0xbc0,t0
c:\Users\LRNA\Desktop\code\mounriver\ch592\ScienceOlympiadEV\obj/../Startup/startup_CH592.S:171
	/* 打开嵌套中断、硬件压栈功能 */
	li t0, 0x3
 814:	428d                	li	t0,3
c:\Users\LRNA\Desktop\code\mounriver\ch592\ScienceOlympiadEV\obj/../Startup/startup_CH592.S:172
	csrw 0x804, t0
 816:	80429073          	csrw	0x804,t0
c:\Users\LRNA\Desktop\code\mounriver\ch592\ScienceOlympiadEV\obj/../Startup/startup_CH592.S:174
	
    li t0, 0x88
 81a:	08800293          	li	t0,136
c:\Users\LRNA\Desktop\code\mounriver\ch592\ScienceOlympiadEV\obj/../Startup/startup_CH592.S:175
    csrw mstatus, t0
 81e:	30029073          	csrw	mstatus,t0
c:\Users\LRNA\Desktop\code\mounriver\ch592\ScienceOlympiadEV\obj/../Startup/startup_CH592.S:176
	la t0, _vector_base
 822:	1ffff297          	auipc	t0,0x1ffff
 826:	7de28293          	addi	t0,t0,2014 # 20000000 <_highcode_vma_start>
c:\Users\LRNA\Desktop\code\mounriver\ch592\ScienceOlympiadEV\obj/../Startup/startup_CH592.S:179

	/* 配置向量表模式为绝对地址模式 */
    ori t0, t0, 3
 82a:	0032e293          	ori	t0,t0,3
c:\Users\LRNA\Desktop\code\mounriver\ch592\ScienceOlympiadEV\obj/../Startup/startup_CH592.S:180
	csrw mtvec, t0
 82e:	30529073          	csrw	mtvec,t0
c:\Users\LRNA\Desktop\code\mounriver\ch592\ScienceOlympiadEV\obj/../Startup/startup_CH592.S:182

	la t0, main
 832:	00000297          	auipc	t0,0x0
 836:	01028293          	addi	t0,t0,16 # 842 <main>
c:\Users\LRNA\Desktop\code\mounriver\ch592\ScienceOlympiadEV\obj/../Startup/startup_CH592.S:183
	csrw mepc, t0
 83a:	34129073          	csrw	mepc,t0
c:\Users\LRNA\Desktop\code\mounriver\ch592\ScienceOlympiadEV\obj/../Startup/startup_CH592.S:185
	
	mret
 83e:	30200073          	mret

00000842 <main>:
main():
c:\Users\LRNA\Desktop\code\mounriver\ch592\ScienceOlympiadEV\obj/../User/Main.c:26
#define EN2B GPIO_Pin_12
#define PH2B GPIO_Pin_14


int main()
{
 842:	1141                	addi	sp,sp,-16
c:\Users\LRNA\Desktop\code\mounriver\ch592\ScienceOlympiadEV\obj/../User/Main.c:28

    SetSysClock(CLK_SOURCE_PLL_60MHz);
 844:	04800513          	li	a0,72
c:\Users\LRNA\Desktop\code\mounriver\ch592\ScienceOlympiadEV\obj/../User/Main.c:26
{
 848:	c606                	sw	ra,12(sp)
c:\Users\LRNA\Desktop\code\mounriver\ch592\ScienceOlympiadEV\obj/../User/Main.c:28
    SetSysClock(CLK_SOURCE_PLL_60MHz);
 84a:	20000097          	auipc	ra,0x20000
 84e:	848080e7          	jalr	-1976(ra) # 20000092 <SetSysClock>
c:\Users\LRNA\Desktop\code\mounriver\ch592\ScienceOlympiadEV\obj/../User/Main.c:29
    GPIOA_SetBits(EN2B); //basically turn on this pin
 852:	400017b7          	lui	a5,0x40001
 856:	0a87a703          	lw	a4,168(a5) # 400010a8 <_eusrstack+0x1fffa8a8>
 85a:	6685                	lui	a3,0x1
c:\Users\LRNA\Desktop\code\mounriver\ch592\ScienceOlympiadEV\obj/../User/Main.c:32
    GPIOA_SetBits(PH2B);

    GPIOA_ModeCfg(EN2B, GPIO_ModeOut_PP_5mA);
 85c:	458d                	li	a1,3
c:\Users\LRNA\Desktop\code\mounriver\ch592\ScienceOlympiadEV\obj/../User/Main.c:29
    GPIOA_SetBits(EN2B); //basically turn on this pin
 85e:	8f55                	or	a4,a4,a3
 860:	0ae7a423          	sw	a4,168(a5)
c:\Users\LRNA\Desktop\code\mounriver\ch592\ScienceOlympiadEV\obj/../User/Main.c:30
    GPIOA_SetBits(PH2B);
 864:	0a87a703          	lw	a4,168(a5)
 868:	6691                	lui	a3,0x4
c:\Users\LRNA\Desktop\code\mounriver\ch592\ScienceOlympiadEV\obj/../User/Main.c:32
    GPIOA_ModeCfg(EN2B, GPIO_ModeOut_PP_5mA);
 86a:	6505                	lui	a0,0x1
c:\Users\LRNA\Desktop\code\mounriver\ch592\ScienceOlympiadEV\obj/../User/Main.c:30
    GPIOA_SetBits(PH2B);
 86c:	8f55                	or	a4,a4,a3
 86e:	0ae7a423          	sw	a4,168(a5)
c:\Users\LRNA\Desktop\code\mounriver\ch592\ScienceOlympiadEV\obj/../User/Main.c:32
    GPIOA_ModeCfg(EN2B, GPIO_ModeOut_PP_5mA);
 872:	2029                	jal	87c <GPIOA_ModeCfg>
c:\Users\LRNA\Desktop\code\mounriver\ch592\ScienceOlympiadEV\obj/../User/Main.c:33
    GPIOA_ModeCfg(PH2B, GPIO_ModeOut_PP_5mA); 
 874:	458d                	li	a1,3
 876:	6511                	lui	a0,0x4
 878:	2011                	jal	87c <GPIOA_ModeCfg>
c:\Users\LRNA\Desktop\code\mounriver\ch592\ScienceOlympiadEV\obj/../User/Main.c:38 (discriminator 1)


    while(1) {

    }
 87a:	a001                	j	87a <main+0x38>

0000087c <GPIOA_ModeCfg>:
GPIOA_ModeCfg():
c:\Users\LRNA\Desktop\code\mounriver\ch592\ScienceOlympiadEV\obj/../StdPeriphDriver/CH59x_gpio.c:27
 *
 * @return  none
 */
void GPIOA_ModeCfg(uint32_t pin, GPIOModeTypeDef mode)
{
    switch(mode)
 87c:	4791                	li	a5,4
 87e:	02b7ee63          	bltu	a5,a1,8ba <GPIOA_ModeCfg+0x3e>
 882:	00000717          	auipc	a4,0x0
 886:	0a270713          	addi	a4,a4,162 # 924 <GPIOA_ModeCfg+0xa8>
 88a:	058a                	slli	a1,a1,0x2
 88c:	95ba                	add	a1,a1,a4
 88e:	419c                	lw	a5,0(a1)
 890:	97ba                	add	a5,a5,a4
 892:	8782                	jr	a5
c:\Users\LRNA\Desktop\code\mounriver\ch592\ScienceOlympiadEV\obj/../StdPeriphDriver/CH59x_gpio.c:30
    {
        case GPIO_ModeIN_Floating:
            R32_PA_PD_DRV &= ~pin;
 894:	400017b7          	lui	a5,0x40001
 898:	0b47a703          	lw	a4,180(a5) # 400010b4 <_eusrstack+0x1fffa8b4>
 89c:	fff54513          	not	a0,a0
 8a0:	8f69                	and	a4,a4,a0
 8a2:	0ae7aa23          	sw	a4,180(a5)
c:\Users\LRNA\Desktop\code\mounriver\ch592\ScienceOlympiadEV\obj/../StdPeriphDriver/CH59x_gpio.c:31
            R32_PA_PU &= ~pin;
 8a6:	0b07a703          	lw	a4,176(a5)
c:\Users\LRNA\Desktop\code\mounriver\ch592\ScienceOlympiadEV\obj/../StdPeriphDriver/CH59x_gpio.c:43
            R32_PA_DIR &= ~pin;
            break;

        case GPIO_ModeIN_PD:
            R32_PA_PD_DRV |= pin;
            R32_PA_PU &= ~pin;
 8aa:	8f69                	and	a4,a4,a0
 8ac:	0ae7a823          	sw	a4,176(a5)
c:\Users\LRNA\Desktop\code\mounriver\ch592\ScienceOlympiadEV\obj/../StdPeriphDriver/CH59x_gpio.c:44
            R32_PA_DIR &= ~pin;
 8b0:	0a07a703          	lw	a4,160(a5)
 8b4:	8d79                	and	a0,a0,a4
c:\Users\LRNA\Desktop\code\mounriver\ch592\ScienceOlympiadEV\obj/../StdPeriphDriver/CH59x_gpio.c:54
            R32_PA_DIR |= pin;
            break;

        case GPIO_ModeOut_PP_20mA:
            R32_PA_PD_DRV |= pin;
            R32_PA_DIR |= pin;
 8b6:	0aa7a023          	sw	a0,160(a5)
c:\Users\LRNA\Desktop\code\mounriver\ch592\ScienceOlympiadEV\obj/../StdPeriphDriver/CH59x_gpio.c:60
            break;

        default:
            break;
    }
}
 8ba:	8082                	ret
c:\Users\LRNA\Desktop\code\mounriver\ch592\ScienceOlympiadEV\obj/../StdPeriphDriver/CH59x_gpio.c:36
            R32_PA_PD_DRV &= ~pin;
 8bc:	400017b7          	lui	a5,0x40001
 8c0:	0b47a683          	lw	a3,180(a5) # 400010b4 <_eusrstack+0x1fffa8b4>
 8c4:	fff54713          	not	a4,a0
 8c8:	8ef9                	and	a3,a3,a4
 8ca:	0ad7aa23          	sw	a3,180(a5)
c:\Users\LRNA\Desktop\code\mounriver\ch592\ScienceOlympiadEV\obj/../StdPeriphDriver/CH59x_gpio.c:37
            R32_PA_PU |= pin;
 8ce:	0b07a683          	lw	a3,176(a5)
 8d2:	8d55                	or	a0,a0,a3
 8d4:	0aa7a823          	sw	a0,176(a5)
c:\Users\LRNA\Desktop\code\mounriver\ch592\ScienceOlympiadEV\obj/../StdPeriphDriver/CH59x_gpio.c:38
            R32_PA_DIR &= ~pin;
 8d8:	0a07a683          	lw	a3,160(a5)
 8dc:	8f75                	and	a4,a4,a3
 8de:	0ae7a023          	sw	a4,160(a5)
c:\Users\LRNA\Desktop\code\mounriver\ch592\ScienceOlympiadEV\obj/../StdPeriphDriver/CH59x_gpio.c:39
            break;
 8e2:	8082                	ret
c:\Users\LRNA\Desktop\code\mounriver\ch592\ScienceOlympiadEV\obj/../StdPeriphDriver/CH59x_gpio.c:42
            R32_PA_PD_DRV |= pin;
 8e4:	400017b7          	lui	a5,0x40001
 8e8:	0b47a703          	lw	a4,180(a5) # 400010b4 <_eusrstack+0x1fffa8b4>
 8ec:	8f49                	or	a4,a4,a0
 8ee:	0ae7aa23          	sw	a4,180(a5)
c:\Users\LRNA\Desktop\code\mounriver\ch592\ScienceOlympiadEV\obj/../StdPeriphDriver/CH59x_gpio.c:43
            R32_PA_PU &= ~pin;
 8f2:	0b07a703          	lw	a4,176(a5)
 8f6:	fff54513          	not	a0,a0
 8fa:	bf45                	j	8aa <GPIOA_ModeCfg+0x2e>
c:\Users\LRNA\Desktop\code\mounriver\ch592\ScienceOlympiadEV\obj/../StdPeriphDriver/CH59x_gpio.c:48
            R32_PA_PD_DRV &= ~pin;
 8fc:	400017b7          	lui	a5,0x40001
 900:	0b47a683          	lw	a3,180(a5) # 400010b4 <_eusrstack+0x1fffa8b4>
 904:	fff54713          	not	a4,a0
 908:	8f75                	and	a4,a4,a3
c:\Users\LRNA\Desktop\code\mounriver\ch592\ScienceOlympiadEV\obj/../StdPeriphDriver/CH59x_gpio.c:53
            R32_PA_PD_DRV |= pin;
 90a:	0ae7aa23          	sw	a4,180(a5)
c:\Users\LRNA\Desktop\code\mounriver\ch592\ScienceOlympiadEV\obj/../StdPeriphDriver/CH59x_gpio.c:54
            R32_PA_DIR |= pin;
 90e:	0a07a703          	lw	a4,160(a5)
 912:	8d59                	or	a0,a0,a4
 914:	b74d                	j	8b6 <GPIOA_ModeCfg+0x3a>
c:\Users\LRNA\Desktop\code\mounriver\ch592\ScienceOlympiadEV\obj/../StdPeriphDriver/CH59x_gpio.c:53
            R32_PA_PD_DRV |= pin;
 916:	400017b7          	lui	a5,0x40001
 91a:	0b47a703          	lw	a4,180(a5) # 400010b4 <_eusrstack+0x1fffa8b4>
 91e:	8f49                	or	a4,a4,a0
 920:	b7ed                	j	90a <GPIOA_ModeCfg+0x8e>
 922:	0000                	unimp
 924:	ff70                	fsw	fa2,124(a4)
 926:	ffff                	0xffff
 928:	ff98                	fsw	fa4,56(a5)
 92a:	ffff                	0xffff
 92c:	ffc0                	fsw	fs0,60(a5)
 92e:	ffff                	0xffff
 930:	ffd8                	fsw	fa4,60(a5)
 932:	ffff                	0xffff
 934:	fff2                	fsw	ft8,252(sp)
 936:	ffff                	0xffff
