
tx_button.elf:     file format elf32-littleriscv


Disassembly of section .init:

00000000 <InterruptVector>:
	void InterruptVector()         __attribute__((naked)) __attribute((section(".init"))) __attribute((weak,alias("InterruptVectorDefault"))) __attribute((naked));
	void InterruptVectorDefault()  __attribute__((naked)) __attribute((section(".init"))) __attribute((naked));
	void InterruptVectorDefault( void )
	{
		#if !defined(FUNCONF_TINYVECTOR) || !FUNCONF_TINYVECTOR
			asm volatile( DEFAULT_INTERRUPT_VECTOR_CONTENTS );
   0:	16a0006f          	j	16a <handle_reset>
   4:	0000                	unimp
   6:	0000                	unimp
   8:	01e8                	addi	a0,sp,204
   a:	0000                	unimp
   c:	01e8                	addi	a0,sp,204
   e:	0000                	unimp
  10:	bda9                	j	fffffe6a <_eusrstack+0xdfffce6a>
  12:	f3f9                	bnez	a5,ffffffd8 <_eusrstack+0xdfffcfd8>
  14:	01e8                	addi	a0,sp,204
	...
  1e:	0000                	unimp
  20:	01e8                	addi	a0,sp,204
  22:	0000                	unimp
  24:	01e8                	addi	a0,sp,204
	...
  2e:	0000                	unimp
  30:	01e8                	addi	a0,sp,204
  32:	0000                	unimp
  34:	0000                	unimp
  36:	0000                	unimp
  38:	01e8                	addi	a0,sp,204
  3a:	0000                	unimp
  3c:	0000                	unimp
  3e:	0000                	unimp
  40:	01e8                	addi	a0,sp,204
  42:	0000                	unimp
  44:	01e8                	addi	a0,sp,204
  46:	0000                	unimp
  48:	01e8                	addi	a0,sp,204
  4a:	0000                	unimp
  4c:	01e8                	addi	a0,sp,204
  4e:	0000                	unimp
  50:	01e8                	addi	a0,sp,204
  52:	0000                	unimp
  54:	060c                	addi	a1,sp,768
  56:	0000                	unimp
  58:	01e8                	addi	a0,sp,204
  5a:	0000                	unimp
  5c:	0000                	unimp
  5e:	0000                	unimp
  60:	01e8                	addi	a0,sp,204
  62:	0000                	unimp
  64:	01e8                	addi	a0,sp,204
  66:	0000                	unimp
  68:	01e8                	addi	a0,sp,204
  6a:	0000                	unimp
  6c:	01e8                	addi	a0,sp,204
  6e:	0000                	unimp
  70:	01e8                	addi	a0,sp,204
  72:	0000                	unimp
  74:	01e8                	addi	a0,sp,204
  76:	0000                	unimp
  78:	01e8                	addi	a0,sp,204
  7a:	0000                	unimp
  7c:	01e8                	addi	a0,sp,204
  7e:	0000                	unimp
  80:	01e8                	addi	a0,sp,204
  82:	0000                	unimp
  84:	01e8                	addi	a0,sp,204
  86:	0000                	unimp
  88:	01e8                	addi	a0,sp,204
  8a:	0000                	unimp
  8c:	01e8                	addi	a0,sp,204
	...

Disassembly of section .text:

00000090 <DevSetMode>:
	NVIC->VTFIDR[3] = 0x14;
}

void DevSetMode(uint16_t mode) {
#if !defined(CH571_CH573)
	if(mode) {
  90:	fffd07b7          	lui	a5,0xfffd0
		BB->CTRL_CFG = DEVSETMODE_ON;
  94:	4000c6b7          	lui	a3,0x4000c
  98:	fff78713          	addi	a4,a5,-1 # fffcffff <_eusrstack+0xdffccfff>
  9c:	1006a783          	lw	a5,256(a3) # 4000c100 <_eusrstack+0x20009100>
  a0:	8ff9                	and	a5,a5,a4
	if(mode) {
  a2:	c11d                	beqz	a0,c8 <DevSetMode+0x38>
		BB->CTRL_CFG = DEVSETMODE_ON;
  a4:	00020737          	lui	a4,0x20
  a8:	8fd9                	or	a5,a5,a4
  aa:	10f6a023          	sw	a5,256(a3)
		RF->RF2 |= 0x330000;
  ae:	4000d737          	lui	a4,0x4000d
  b2:	471c                	lw	a5,8(a4)
  b4:	003306b7          	lui	a3,0x330
  b8:	8fd5                	or	a5,a5,a3
  ba:	c71c                	sw	a5,8(a4)
	mode = (mode == 0) ? 0x80 : mode;
#elif !defined(CH32V208)
	mode |= 0x30000;
#endif
#endif // ! CH571_CH573
	LL->CTRL_MOD = mode;
  bc:	4000c7b7          	lui	a5,0x4000c
  c0:	20078793          	addi	a5,a5,512 # 4000c200 <_eusrstack+0x20009200>
  c4:	cba8                	sw	a0,80(a5)
}
  c6:	8082                	ret
		BB->CTRL_CFG = DEVSETMODE_OFF;
  c8:	6741                	lui	a4,0x10
  ca:	8fd9                	or	a5,a5,a4
  cc:	10f6a023          	sw	a5,256(a3) # 330100 <tx_button.c.70aabbeb+0x32e3f5>
		RF->RF2 &= 0xffcdffff;
  d0:	4000d6b7          	lui	a3,0x4000d
  d4:	469c                	lw	a5,8(a3)
  d6:	ffce0737          	lui	a4,0xffce0
  da:	177d                	addi	a4,a4,-1
  dc:	8ff9                	and	a5,a5,a4
  de:	c69c                	sw	a5,8(a3)
  e0:	bff1                	j	bc <DevSetMode+0x2c>

000000e2 <RFEND_TXCTune>:

uint32_t RFEND_TXCTune(uint8_t channel) {
	// 0xbf = 2401 MHz
	RF->RF1 &= 0xfffffffe;
  e2:	4000d737          	lui	a4,0x4000d
  e6:	435c                	lw	a5,4(a4)
	RF->TXTUNE_CTRL = (RF->TXTUNE_CTRL & 0xfffe00ff) | (0xbf00 + (channel_map[channel] << 8));
  e8:	69800693          	li	a3,1688
	RF->RF1 &= 0xfffffffe;
  ec:	9bf9                	andi	a5,a5,-2
	RF->TXTUNE_CTRL = (RF->TXTUNE_CTRL & 0xfffe00ff) | (0xbf00 + (channel_map[channel] << 8));
  ee:	96aa                	add	a3,a3,a0
	RF->RF1 &= 0xfffffffe;
  f0:	c35c                	sw	a5,4(a4)
	RF->TXTUNE_CTRL = (RF->TXTUNE_CTRL & 0xfffe00ff) | (0xbf00 + (channel_map[channel] << 8));
  f2:	0006c783          	lbu	a5,0(a3) # 4000d000 <_eusrstack+0x2000a000>
  f6:	66b1                	lui	a3,0xc
  f8:	5f10                	lw	a2,56(a4)
  fa:	f0068693          	addi	a3,a3,-256 # bf00 <tx_button.c.70aabbeb+0xa1f5>
  fe:	07a2                	slli	a5,a5,0x8
 100:	97b6                	add	a5,a5,a3
 102:	7681                	lui	a3,0xfffe0
 104:	0ff68693          	addi	a3,a3,255 # fffe00ff <_eusrstack+0xdffdd0ff>
 108:	8e75                	and	a2,a2,a3
 10a:	8fd1                	or	a5,a5,a2
 10c:	df1c                	sw	a5,56(a4)
	RF->RF1 |= 1;
 10e:	435c                	lw	a5,4(a4)

	LL->TMR = 8000;
	while(!(RF->TXCTUNE_CO_CTRL & (1 << 25)) || !(RF->TXCTUNE_CO_CTRL & (1 << 26))) {
 110:	02000637          	lui	a2,0x2000
 114:	040006b7          	lui	a3,0x4000
	RF->RF1 |= 1;
 118:	0017e793          	ori	a5,a5,1
 11c:	c35c                	sw	a5,4(a4)
	LL->TMR = 8000;
 11e:	4000c7b7          	lui	a5,0x4000c
 122:	6709                	lui	a4,0x2
 124:	f4070713          	addi	a4,a4,-192 # 1f40 <tx_button.c.70aabbeb+0x235>
 128:	20078793          	addi	a5,a5,512 # 4000c200 <_eusrstack+0x20009200>
 12c:	d3f8                	sw	a4,100(a5)
		if(LL->TMR == 0) {
 12e:	4000c5b7          	lui	a1,0x4000c
	while(!(RF->TXCTUNE_CO_CTRL & (1 << 25)) || !(RF->TXCTUNE_CO_CTRL & (1 << 26))) {
 132:	4000d737          	lui	a4,0x4000d
 136:	09072783          	lw	a5,144(a4) # 4000d090 <_eusrstack+0x2000a090>
 13a:	8ff1                	and	a5,a5,a2
 13c:	c789                	beqz	a5,146 <RFEND_TXCTune+0x64>
 13e:	09072783          	lw	a5,144(a4)
 142:	8ff5                	and	a5,a5,a3
 144:	e789                	bnez	a5,14e <RFEND_TXCTune+0x6c>
		if(LL->TMR == 0) {
 146:	20058793          	addi	a5,a1,512 # 4000c200 <_eusrstack+0x20009200>
 14a:	53fc                	lw	a5,100(a5)
 14c:	f7ed                	bnez	a5,136 <RFEND_TXCTune+0x54>
			break;
		}
	}

	uint8_t nCO = (uint8_t)RF->TXCTUNE_CO_CTRL & 0x3f;
 14e:	4000d7b7          	lui	a5,0x4000d
 152:	0907a503          	lw	a0,144(a5) # 4000d090 <_eusrstack+0x2000a090>
	uint8_t nGA = (uint8_t)(RF->TXCTUNE_GA_CTRL >> 10) & 0x7f;
 156:	0947a783          	lw	a5,148(a5)

	// printf("nCO,nGA ch:%u idx:%u %u,%u\n", channel, channel_map[channel], nCO,nGA);

	return (nGA << 24) | nCO;
 15a:	03f57513          	andi	a0,a0,63
	uint8_t nGA = (uint8_t)(RF->TXCTUNE_GA_CTRL >> 10) & 0x7f;
 15e:	83a9                	srli	a5,a5,0xa
	return (nGA << 24) | nCO;
 160:	07f7f793          	andi	a5,a5,127
 164:	07e2                	slli	a5,a5,0x18
}
 166:	8d5d                	or	a0,a0,a5
 168:	8082                	ret

0000016a <handle_reset>:

#elif defined(CH32V10x) || defined(CH32V20x) || defined(CH32V30x) || defined(CH32L103) ||  defined(CH5xx)

void handle_reset( void )
{
	asm volatile( "\n\
 16a:	20000197          	auipc	gp,0x20000
 16e:	29218193          	addi	gp,gp,658 # 200003fc <__global_pointer$>
 172:	20003117          	auipc	sp,0x20003
 176:	e8e10113          	addi	sp,sp,-370 # 20003000 <_eusrstack>
#endif
			);

	// Careful: Use registers to prevent overwriting of self-data.
	// This clears out BSS.
	asm volatile(
 17a:	c0418513          	addi	a0,gp,-1020 # 20000000 <rx_ready>
 17e:	05018593          	addi	a1,gp,80 # 2000044c <_ebss>
 182:	00b57763          	bgeu	a0,a1,190 <handle_reset+0x26>
 186:	00052023          	sw	zero,0(a0)
 18a:	0511                	addi	a0,a0,4
 18c:	feb56de3          	bltu	a0,a1,186 <handle_reset+0x1c>
 190:	6c000513          	li	a0,1728
 194:	c0418593          	addi	a1,gp,-1020 # 20000000 <rx_ready>
 198:	c0418613          	addi	a2,gp,-1020 # 20000000 <rx_ready>
 19c:	00c58a63          	beq	a1,a2,1b0 <handle_reset+0x46>
 1a0:	00052283          	lw	t0,0(a0)
 1a4:	0055a023          	sw	t0,0(a1)
 1a8:	0511                	addi	a0,a0,4
 1aa:	0591                	addi	a1,a1,4
 1ac:	fec5eae3          	bltu	a1,a2,1a0 <handle_reset+0x36>
#endif
: "a0", "a1", "a2", "a3", "memory"
);

	// Setup the interrupt vector, processor status and INTSYSCR.
	asm volatile(
 1b0:	00000793          	li	a5,0
 1b4:	42fd                	li	t0,31
 1b6:	bc029073          	csrw	0xbc0,t0
 1ba:	6289                	lui	t0,0x2
 1bc:	88828293          	addi	t0,t0,-1912 # 1888 <ch32fun.c.0a02d47b+0x8c8>
 1c0:	3002a073          	csrs	mstatus,t0
 1c4:	00000297          	auipc	t0,0x0
 1c8:	e3c28293          	addi	t0,t0,-452 # 0 <InterruptVector>
 1cc:	0032e293          	ori	t0,t0,3
 1d0:	30529073          	csrw	mtvec,t0
	csrw mtvec, t0\n"
	: : [InterruptVector]"r"(InterruptVector) : "t0", "memory"
	);

#if defined( FUNCONF_SYSTICK_USE_HCLK ) && FUNCONF_SYSTICK_USE_HCLK && !defined(CH32V10x)
	SysTick->CTLR = 5;
 1d4:	e000f7b7          	lui	a5,0xe000f
 1d8:	4715                	li	a4,5
 1da:	c398                	sw	a4,0(a5)
#else
	SysTick->CTLR = 1;
#endif

	// set mepc to be main as the root app.
	asm volatile(
 1dc:	26400793          	li	a5,612
 1e0:	34179073          	csrw	mepc,a5
 1e4:	30200073          	mret

000001e8 <ADC1_2_IRQHandler>:
	asm volatile( "1: j 1b" );
 1e8:	a001                	j	1e8 <ADC1_2_IRQHandler>

000001ea <memset>:
WEAK void *memset(void *dest, int c, size_t n) { unsigned char *s = dest; for (; n; n--, s++) *s = c; return dest; }
 1ea:	962a                	add	a2,a2,a0
 1ec:	87aa                	mv	a5,a0
 1ee:	00c79363          	bne	a5,a2,1f4 <memset+0xa>
 1f2:	8082                	ret
 1f4:	00b78023          	sb	a1,0(a5) # e000f000 <_eusrstack+0xc000c000>
 1f8:	0785                	addi	a5,a5,1
 1fa:	bfd5                	j	1ee <memset+0x4>

000001fc <SystemInit>:
	}
	else
	{
		if((sc & RB_CLK_SYS_MOD) == 0x40) // PLL div
		{
			SYS_SAFE_ACCESS(
 1fc:	400017b7          	lui	a5,0x40001
 200:	05700593          	li	a1,87
 204:	04b78023          	sb	a1,64(a5) # 40001040 <_eusrstack+0x1fffe040>
 208:	fa800613          	li	a2,-88
 20c:	04c78023          	sb	a2,64(a5)
 210:	0001                	nop
 212:	0001                	nop
 214:	00a7c703          	lbu	a4,10(a5)
 218:	400026b7          	lui	a3,0x40002
 21c:	0ff77713          	andi	a4,a4,255
 220:	01076713          	ori	a4,a4,16
 224:	00e78523          	sb	a4,10(a5)
 228:	4705                	li	a4,1
 22a:	80e683a3          	sb	a4,-2041(a3) # 40001807 <_eusrstack+0x1fffe807>
 22e:	8056c703          	lbu	a4,-2043(a3)
 232:	0ff77713          	andi	a4,a4,255
 236:	01076713          	ori	a4,a4,16
 23a:	80e682a3          	sb	a4,-2043(a3)
 23e:	04078023          	sb	zero,64(a5)
 242:	0001                	nop
 244:	0001                	nop
		{
			SYS_SAFE_ACCESS(
				R8_FLASH_CFG = (sc & 0x1F) ? 0x02 : 0x07;
			);
		}
		SYS_SAFE_ACCESS(
 246:	04b78023          	sb	a1,64(a5)
 24a:	04c78023          	sb	a2,64(a5)
 24e:	0001                	nop
 250:	0001                	nop
 252:	04a00713          	li	a4,74
 256:	00e78423          	sb	a4,8(a5)
 25a:	04078023          	sb	zero,64(a5)
 25e:	0001                	nop
 260:	0001                	nop
	SetupDebugPrintf();
#endif
#if defined(FUNCONF_SUPPORT_CONSTRUCTORS) && FUNCONF_SUPPORT_CONSTRUCTORS
	CallConstructors();
#endif
}
 262:	8082                	ret

00000264 <main>:
// Define Button Pin (e.g., PA4)
#define BTN_PIN PA1

void setup_button() { funPinMode(BTN_PIN, GPIO_CFGLR_IN_PUPD); }

int main() {
 264:	7159                	addi	sp,sp,-112
 266:	d686                	sw	ra,108(sp)
 268:	d4a2                	sw	s0,104(sp)
 26a:	d2a6                	sw	s1,100(sp)
 26c:	d0ca                	sw	s2,96(sp)
 26e:	cece                	sw	s3,92(sp)
 270:	ccd2                	sw	s4,88(sp)
 272:	cad6                	sw	s5,84(sp)
 274:	c8da                	sw	s6,80(sp)
 276:	c6de                	sw	s7,76(sp)
  SystemInit();
 278:	3751                	jal	1fc <SystemInit>
		*(&R32_PA_PD_DRV + OFFSET_FOR_GPIOB(pin)) &= ~(pin & ~PB);
		*(&R32_PA_PU + OFFSET_FOR_GPIOB(pin))     &= ~(pin & ~PB);
		*(&R32_PA_DIR + OFFSET_FOR_GPIOB(pin))    &= ~(pin & ~PB);
		break;
	case GPIO_ModeIN_PU:
		*(&R32_PA_PD_DRV + OFFSET_FOR_GPIOB(pin)) &= ~(pin & ~PB);
 27a:	400017b7          	lui	a5,0x40001
 27e:	08078793          	addi	a5,a5,128 # 40001080 <_eusrstack+0x1fffe080>
 282:	5bd8                	lw	a4,52(a5)
	LL->LL5 = 0x8c;
 284:	4000c6b7          	lui	a3,0x4000c
	LL->LL7 = 0x76;
 288:	07600613          	li	a2,118
 28c:	9b75                	andi	a4,a4,-3
 28e:	dbd8                	sw	a4,52(a5)
		*(&R32_PA_PU + OFFSET_FOR_GPIOB(pin))     |= (pin & ~PB);
 290:	5b98                	lw	a4,48(a5)
	RF->RF10 = 0x480;
 292:	4000d437          	lui	s0,0x4000d
	BB->BB14 = 0x2020c;
 296:	000204b7          	lui	s1,0x20
 29a:	00276713          	ori	a4,a4,2
 29e:	db98                	sw	a4,48(a5)
		*(&R32_PA_DIR + OFFSET_FOR_GPIOB(pin))    &= ~(pin & ~PB);
 2a0:	5398                	lw	a4,32(a5)
	NVIC->VTFIDR[3] = 0x14;
 2a2:	49d1                	li	s3,20
	RF->RF3 = (RF->RF3 & 0xfffffeff) | 0x100;
	RF->RF1 = (RF->RF1 & 0xfffeffff) | 0x100000;
}

void RegInit() {
	DevSetMode(DEVSETMODE_TUNE);
 2a4:	55800513          	li	a0,1368
 2a8:	9b75                	andi	a4,a4,-3
 2aa:	d398                	sw	a4,32(a5)
	LL->LL5 = 0x8c;
 2ac:	20068793          	addi	a5,a3,512 # 4000c200 <_eusrstack+0x20009200>
 2b0:	08c00713          	li	a4,140
 2b4:	cbd8                	sw	a4,20(a5)
	LL->LL7 = 0x76;
 2b6:	cfd0                	sw	a2,28(a5)
	LL->LL9 = 0x8c;
 2b8:	d3d8                	sw	a4,36(a5)
	LL->LL13 = 0x8c;
 2ba:	dbd8                	sw	a4,52(a5)
	LL->LL17 = 0x8c;
 2bc:	c3f8                	sw	a4,68(a5)
	LL->LL19 = 0x76;
 2be:	c7f0                	sw	a2,76(a5)
	LL->LL11 = 0x6c;
 2c0:	06c00713          	li	a4,108
 2c4:	d7d8                	sw	a4,44(a5)
	LL->LL15 = 0x6c;
 2c6:	dfd8                	sw	a4,60(a5)
	LL->LL1 = 0x78;
 2c8:	07800713          	li	a4,120
 2cc:	c3d8                	sw	a4,4(a5)
	LL->INT_EN = 0x16000f;
 2ce:	00160737          	lui	a4,0x160
	LL->LL21 = 0;
 2d2:	0407aa23          	sw	zero,84(a5)
	LL->INT_EN = 0x16000f;
 2d6:	073d                	addi	a4,a4,15
 2d8:	c7d8                	sw	a4,12(a5)
	LL->STATE_BUF = (uint32_t)LLE_BUF;
 2da:	c1018713          	addi	a4,gp,-1008 # 2000000c <LLE_BUF>
 2de:	dff8                	sw	a4,124(a5)
	LL->STATUS = 0xffffffff;
 2e0:	577d                	li	a4,-1
 2e2:	c798                	sw	a4,8(a5)
	RF->RF10 = 0x480;
 2e4:	48000793          	li	a5,1152
 2e8:	d41c                	sw	a5,40(s0)
	RF->RF12 &= 0xfff9ffff;
 2ea:	581c                	lw	a5,48(s0)
 2ec:	fffa0737          	lui	a4,0xfffa0
 2f0:	177d                	addi	a4,a4,-1
 2f2:	8ff9                	and	a5,a5,a4
 2f4:	d81c                	sw	a5,48(s0)
	RF->RF12 |= 0x70000000;
 2f6:	581c                	lw	a5,48(s0)
 2f8:	70000737          	lui	a4,0x70000
	RF->RF15 = (RF->RF15 & 0xf8ffffff) | 0x2000000;
 2fc:	02000637          	lui	a2,0x2000
	RF->RF12 |= 0x70000000;
 300:	8fd9                	or	a5,a5,a4
 302:	d81c                	sw	a5,48(s0)
	RF->RF15 = (RF->RF15 & 0xf8ffffff) | 0x2000000;
 304:	5c58                	lw	a4,60(s0)
 306:	f90007b7          	lui	a5,0xf9000
 30a:	17fd                	addi	a5,a5,-1
 30c:	8f7d                	and	a4,a4,a5
 30e:	8f51                	or	a4,a4,a2
 310:	dc58                	sw	a4,60(s0)
	RF->RF15 = (RF->RF15 & 0x1fffffff) | 0x40000000;
 312:	5c5c                	lw	a5,60(s0)
 314:	40000737          	lui	a4,0x40000
	BB->CTRL_TX = (BB->CTRL_TX & 0x1ffffff) | (TxPower | 0x40) << 0x19;
 318:	167d                	addi	a2,a2,-1
	RF->RF15 = (RF->RF15 & 0x1fffffff) | 0x40000000;
 31a:	078e                	slli	a5,a5,0x3
 31c:	838d                	srli	a5,a5,0x3
 31e:	8fd9                	or	a5,a5,a4
 320:	dc5c                	sw	a5,60(s0)
	RF->RF18 &= 0xfff8ffff;
 322:	443c                	lw	a5,72(s0)
 324:	fff90737          	lui	a4,0xfff90
 328:	177d                	addi	a4,a4,-1
 32a:	8ff9                	and	a5,a5,a4
 32c:	c43c                	sw	a5,72(s0)
	RF->RF20 = (RF->RF20 & 0xfffff8ff) | 0x300;
 32e:	4838                	lw	a4,80(s0)
 330:	8ff77713          	andi	a4,a4,-1793
 334:	30076713          	ori	a4,a4,768
 338:	c838                	sw	a4,80(s0)
	RF->RF23 |= 0x70000;
 33a:	4c7c                	lw	a5,92(s0)
 33c:	00070737          	lui	a4,0x70
 340:	8fd9                	or	a5,a5,a4
 342:	cc7c                	sw	a5,92(s0)
	RF->RF23 |= 0x700000;
 344:	4c7c                	lw	a5,92(s0)
 346:	00700737          	lui	a4,0x700
 34a:	8fd9                	or	a5,a5,a4
 34c:	cc7c                	sw	a5,92(s0)
	BB->BB14 = 0x2020c;
 34e:	10068713          	addi	a4,a3,256
 352:	20c48793          	addi	a5,s1,524 # 2020c <tx_button.c.70aabbeb+0x1e501>
 356:	df1c                	sw	a5,56(a4)
	BB->BB15 = 0x50;
 358:	05000793          	li	a5,80
 35c:	df5c                	sw	a5,60(a4)
	BB->CTRL_TX = (BB->CTRL_TX & 0x1ffffff) | (TxPower | 0x40) << 0x19;
 35e:	5b5c                	lw	a5,52(a4)
 360:	8ff1                	and	a5,a5,a2
 362:	a4000637          	lui	a2,0xa4000
 366:	8fd1                	or	a5,a5,a2
 368:	db5c                	sw	a5,52(a4)
	BB->CTRL_CFG &= 0xfffffcff;
 36a:	1006a703          	lw	a4,256(a3)
	NVIC->VTFIDR[3] = 0x14;
 36e:	e000e7b7          	lui	a5,0xe000e
	BB->CTRL_CFG &= 0xfffffcff;
 372:	cff77713          	andi	a4,a4,-769
 376:	10e6a023          	sw	a4,256(a3)
	NVIC->VTFIDR[3] = 0x14;
 37a:	053789a3          	sb	s3,83(a5) # e000e053 <_eusrstack+0xc000b053>
	DevSetMode(DEVSETMODE_TUNE);
 37e:	3b09                	jal	90 <DevSetMode>
	RF->RF1 &= 0xfffffeff;
 380:	4058                	lw	a4,4(s0)
	RF->RF10 &= 0xffffefff;
 382:	76fd                	lui	a3,0xfffff
 384:	16fd                	addi	a3,a3,-1
	RF->RF1 &= 0xfffffeff;
 386:	eff77713          	andi	a4,a4,-257
 38a:	c058                	sw	a4,4(s0)
	RF->RF10 &= 0xffffefff;
 38c:	5418                	lw	a4,40(s0)
	uint32_t tune2401 = RFEND_TXCTune(37);
 38e:	02500513          	li	a0,37
	RF->RF10 &= 0xffffefff;
 392:	8f75                	and	a4,a4,a3
 394:	d418                	sw	a4,40(s0)
	RF->RF11 &= 0xffffffef;
 396:	5458                	lw	a4,44(s0)
 398:	9b3d                	andi	a4,a4,-17
 39a:	d458                	sw	a4,44(s0)
	RF->RF2 |= 0x20000;
 39c:	441c                	lw	a5,8(s0)
 39e:	8fc5                	or	a5,a5,s1
 3a0:	c41c                	sw	a5,8(s0)
	RF->RF1 |= 0x10;
 3a2:	405c                	lw	a5,4(s0)
 3a4:	0107e793          	ori	a5,a5,16
 3a8:	c05c                	sw	a5,4(s0)
	uint32_t tune2401 = RFEND_TXCTune(37);
 3aa:	3b25                	jal	e2 <RFEND_TXCTune>
	uint8_t nGA2401 = (uint8_t)(tune2401 >> 24) & 0x7f;
 3ac:	01855713          	srli	a4,a0,0x18
	uint32_t tune2401 = RFEND_TXCTune(37);
 3b0:	842a                	mv	s0,a0
	uint32_t tune2480 = RFEND_TXCTune(39);
 3b2:	02700513          	li	a0,39
	uint8_t nGA2401 = (uint8_t)(tune2401 >> 24) & 0x7f;
 3b6:	07f77b13          	andi	s6,a4,127
	uint32_t tune2480 = RFEND_TXCTune(39);
 3ba:	3325                	jal	e2 <RFEND_TXCTune>
	uint8_t nGA2480 = (uint8_t)(tune2480 >> 24) & 0x7f;
 3bc:	01855913          	srli	s2,a0,0x18
	uint32_t tune2480 = RFEND_TXCTune(39);
 3c0:	8a2a                	mv	s4,a0
	uint32_t tune2440 = RFEND_TXCTune(18);
 3c2:	4549                	li	a0,18
 3c4:	3b39                	jal	e2 <RFEND_TXCTune>
	uint8_t nCO2440 = (uint8_t)(tune2440 & 0x3f);
 3c6:	03f57a93          	andi	s5,a0,63
	uint8_t txctune_co[sizeof(RF->TXCTUNE_CO)] = {0};
 3ca:	02400613          	li	a2,36
 3ce:	4581                	li	a1,0
	uint8_t nGA2480 = (uint8_t)(tune2480 >> 24) & 0x7f;
 3d0:	07f97b93          	andi	s7,s2,127
	uint32_t tune2440 = RFEND_TXCTune(18);
 3d4:	84aa                	mv	s1,a0
	uint8_t nGA2440 = (uint8_t)(tune2440 >> 24) & 0x7f;
 3d6:	01855913          	srli	s2,a0,0x18
	uint32_t dCO0140 = nCO2401 - nCO2440;
 3da:	03f47413          	andi	s0,s0,63
	uint8_t txctune_co[sizeof(RF->TXCTUNE_CO)] = {0};
 3de:	0868                	addi	a0,sp,28
	uint32_t dCO0140 = nCO2401 - nCO2440;
 3e0:	41540433          	sub	s0,s0,s5
	uint8_t txctune_co[sizeof(RF->TXCTUNE_CO)] = {0};
 3e4:	cc02                	sw	zero,24(sp)
 3e6:	3511                	jal	1ea <memset>
 3e8:	03340733          	mul	a4,s0,s3
	uint32_t dCO4080 = nCO2440 - nCO2480;
 3ec:	03fa7a13          	andi	s4,s4,63
		txctune_co[f] = tune | (tune << 4);
 3f0:	6605                	lui	a2,0x1
	uint8_t nGA2440 = (uint8_t)(tune2440 >> 24) & 0x7f;
 3f2:	07f97913          	andi	s2,s2,127
	uint32_t dCO4080 = nCO2440 - nCO2480;
 3f6:	414a8a33          	sub	s4,s5,s4
	for(int f = 0; f < int_points; f++) {
 3fa:	4781                	li	a5,0
		tune = (dCO0140 * (int_points -f)) / int_points;
 3fc:	45d1                	li	a1,20
		txctune_co[f] = tune | (tune << 4);
 3fe:	1641                	addi	a2,a2,-16
 400:	0834                	addi	a3,sp,24
 402:	00f68833          	add	a6,a3,a5
		tune = (dCO0140 * (int_points -f)) / int_points;
 406:	02b75533          	divu	a0,a4,a1
	for(int f = 0; f < int_points; f++) {
 40a:	0785                	addi	a5,a5,1
 40c:	8f01                	sub	a4,a4,s0
		txctune_co[f] = tune | (tune << 4);
 40e:	00451693          	slli	a3,a0,0x4
 412:	8ef1                	and	a3,a3,a2
 414:	8ec9                	or	a3,a3,a0
 416:	00d80023          	sb	a3,0(a6)
	for(int f = 0; f < int_points; f++) {
 41a:	feb793e3          	bne	a5,a1,400 <main+0x19c>
		txctune_co[f] = tune | (tune << 4);
 41e:	6605                	lui	a2,0x1
	for(int f = 0; f < int_points; f++) {
 420:	4681                	li	a3,0
		tune = (dCO4080 * (f -int_points)) / int_points;
 422:	48d1                	li	a7,20
		txctune_co[f] = tune | (tune << 4);
 424:	1641                	addi	a2,a2,-16
	for(int f = int_points; f < sizeof(RF->TXCTUNE_CO); f++) {
 426:	02800513          	li	a0,40
		tune = (dCO4080 * (f -int_points)) / int_points;
 42a:	0316d5b3          	divu	a1,a3,a7
		txctune_co[f] = tune | (tune << 4);
 42e:	0838                	addi	a4,sp,24
 430:	00f70833          	add	a6,a4,a5
	for(int f = int_points; f < sizeof(RF->TXCTUNE_CO); f++) {
 434:	0785                	addi	a5,a5,1
 436:	96d2                	add	a3,a3,s4
		txctune_co[f] = tune | (tune << 4);
 438:	00459713          	slli	a4,a1,0x4
 43c:	8f71                	and	a4,a4,a2
 43e:	8f4d                	or	a4,a4,a1
 440:	00e80023          	sb	a4,0(a6)
	for(int f = int_points; f < sizeof(RF->TXCTUNE_CO); f++) {
 444:	fea793e3          	bne	a5,a0,42a <main+0x1c6>
 448:	083c                	addi	a5,sp,24
	for(int i = 0; i < sizeof(txctune_co) /4; i++) {
 44a:	4681                	li	a3,0
		RF->TXCTUNE_CO[i] = ((uint32_t*)txctune_co)[i];
 44c:	4000d537          	lui	a0,0x4000d
	for(int i = 0; i < sizeof(txctune_co) /4; i++) {
 450:	4629                	li	a2,10
		RF->TXCTUNE_CO[i] = ((uint32_t*)txctune_co)[i];
 452:	438c                	lw	a1,0(a5)
 454:	02868713          	addi	a4,a3,40 # fffff028 <_eusrstack+0xdfffc028>
 458:	070a                	slli	a4,a4,0x2
 45a:	972a                	add	a4,a4,a0
 45c:	c30c                	sw	a1,0(a4)
	for(int i = 0; i < sizeof(txctune_co) /4; i++) {
 45e:	0685                	addi	a3,a3,1
 460:	0791                	addi	a5,a5,4
 462:	fec698e3          	bne	a3,a2,452 <main+0x1ee>
	uint32_t dGA0140 = nGA2401 - nGA2440;
 466:	412b0733          	sub	a4,s6,s2
	uint32_t dGA4080 = nGA2440 - nGA2480;
 46a:	4695                	li	a3,5
 46c:	02d706b3          	mul	a3,a4,a3
		txctune_ga[f] = tune | (tune << 4);
 470:	6585                	lui	a1,0x1
	uint32_t dGA4080 = nGA2440 - nGA2480;
 472:	41790933          	sub	s2,s2,s7
	uint8_t txctune_ga[sizeof(RF->TXCTUNE_GA)] = {0};
 476:	c602                	sw	zero,12(sp)
 478:	c802                	sw	zero,16(sp)
 47a:	ca02                	sw	zero,20(sp)
	for(int f = 1; f < int_points; f++) {
 47c:	4785                	li	a5,1
		tune = (dGA0140 * (int_points -f)) / int_points;
 47e:	4519                	li	a0,6
		txctune_ga[f] = tune | (tune << 4);
 480:	15c1                	addi	a1,a1,-16
 482:	0070                	addi	a2,sp,12
		tune = (dGA0140 * (int_points -f)) / int_points;
 484:	02a6d833          	divu	a6,a3,a0
		txctune_ga[f] = tune | (tune << 4);
 488:	00f608b3          	add	a7,a2,a5
	for(int f = 1; f < int_points; f++) {
 48c:	0785                	addi	a5,a5,1
 48e:	8e99                	sub	a3,a3,a4
		txctune_ga[f] = tune | (tune << 4);
 490:	00481613          	slli	a2,a6,0x4
 494:	8e6d                	and	a2,a2,a1
 496:	01066633          	or	a2,a2,a6
 49a:	00c88023          	sb	a2,0(a7)
	for(int f = 1; f < int_points; f++) {
 49e:	fea792e3          	bne	a5,a0,482 <main+0x21e>
		txctune_ga[f] = tune | (tune << 4);
 4a2:	6605                	lui	a2,0x1
	for(int f = 1; f < int_points; f++) {
 4a4:	4701                	li	a4,0
		tune = (dGA4080 * (f -int_points)) / int_points;
 4a6:	4319                	li	t1,6
		txctune_ga[f] = tune | (tune << 4);
 4a8:	ff060893          	addi	a7,a2,-16 # ff0 <ch32fun.c.0a02d47b+0x30>
	for(int f = int_points; f < sizeof(RF->TXCTUNE_GA) -1; f++) {
 4ac:	452d                	li	a0,11
		tune = (dGA4080 * (f -int_points)) / int_points;
 4ae:	026755b3          	divu	a1,a4,t1
		txctune_ga[f] = tune | (tune << 4);
 4b2:	0074                	addi	a3,sp,12
 4b4:	00f68833          	add	a6,a3,a5
	for(int f = int_points; f < sizeof(RF->TXCTUNE_GA) -1; f++) {
 4b8:	0785                	addi	a5,a5,1
 4ba:	974a                	add	a4,a4,s2
		txctune_ga[f] = tune | (tune << 4);
 4bc:	00459693          	slli	a3,a1,0x4
 4c0:	0116f6b3          	and	a3,a3,a7
 4c4:	8ecd                	or	a3,a3,a1
 4c6:	00d80023          	sb	a3,0(a6)
	for(int f = int_points; f < sizeof(RF->TXCTUNE_GA) -1; f++) {
 4ca:	fea792e3          	bne	a5,a0,4ae <main+0x24a>
		RF->TXCTUNE_GA[i] = ((uint32_t*)txctune_ga)[i];
 4ce:	46b2                	lw	a3,12(sp)
 4d0:	4000d7b7          	lui	a5,0x4000d
 4d4:	08078713          	addi	a4,a5,128 # 4000d080 <_eusrstack+0x2000a080>
 4d8:	c734                	sw	a3,72(a4)
 4da:	46c2                	lw	a3,16(sp)
	RF->TXTUNE_CTRL = (RF->TXTUNE_CTRL & 0x80ffffff) | (tune2440 & 0x7f000000);
 4dc:	7f000537          	lui	a0,0x7f000
 4e0:	8ce9                	and	s1,s1,a0
		RF->TXCTUNE_GA[i] = ((uint32_t*)txctune_ga)[i];
 4e2:	c774                	sw	a3,76(a4)
 4e4:	46d2                	lw	a3,20(sp)
 4e6:	cb34                	sw	a3,80(a4)
	RF->RF1 &= 0xffffffef;
 4e8:	43d8                	lw	a4,4(a5)
	RF->TXTUNE_CTRL = (RF->TXTUNE_CTRL & 0x80ffffff) | (tune2440 & 0x7f000000);
 4ea:	810006b7          	lui	a3,0x81000
 4ee:	16fd                	addi	a3,a3,-1
	RF->RF1 &= 0xffffffef;
 4f0:	9b3d                	andi	a4,a4,-17
 4f2:	c3d8                	sw	a4,4(a5)
	RF->RF1 &= 0xfffffffe;
 4f4:	43d8                	lw	a4,4(a5)
 4f6:	9b79                	andi	a4,a4,-2
 4f8:	c3d8                	sw	a4,4(a5)
	RF->RF10 |= 0x1000;
 4fa:	5798                	lw	a4,40(a5)
 4fc:	8f51                	or	a4,a4,a2
 4fe:	d798                	sw	a4,40(a5)
	RF->RF11 |= 0x10;
 500:	57d8                	lw	a4,44(a5)
 502:	01076713          	ori	a4,a4,16
 506:	d7d8                	sw	a4,44(a5)
	RF->TXTUNE_CTRL = (RF->TXTUNE_CTRL & 0xffffffc0) | (tune2440 & 0x3f);
 508:	5f98                	lw	a4,56(a5)
 50a:	fc077713          	andi	a4,a4,-64
 50e:	01576733          	or	a4,a4,s5
 512:	df98                	sw	a4,56(a5)
	RF->TXTUNE_CTRL = (RF->TXTUNE_CTRL & 0x80ffffff) | (tune2440 & 0x7f000000);
 514:	5f98                	lw	a4,56(a5)
 516:	8f75                	and	a4,a4,a3
 518:	8cd9                	or	s1,s1,a4
 51a:	df84                	sw	s1,56(a5)
	RF->RF1 |= 0x100;
 51c:	43d8                	lw	a4,4(a5)
	RF->RF20 &= 0xfffeffff;
 51e:	76c1                	lui	a3,0xffff0
 520:	16fd                	addi	a3,a3,-1
	RF->RF1 |= 0x100;
 522:	10076713          	ori	a4,a4,256
 526:	c3d8                	sw	a4,4(a5)
	RF->RF20 &= 0xfffeffff;
 528:	4bb8                	lw	a4,80(a5)
 52a:	8f75                	and	a4,a4,a3
 52c:	cbb8                	sw	a4,80(a5)
	RF->RF2 |= 0x200000;
 52e:	4798                	lw	a4,8(a5)
 530:	002006b7          	lui	a3,0x200
 534:	8f55                	or	a4,a4,a3
 536:	c798                	sw	a4,8(a5)
	RF->RF3 = (RF->RF3 & 0xffffffef) | 0x10;
 538:	47d8                	lw	a4,12(a5)
	while(LL->TMR && ((RF->RXTUNE >> 8) & 1));
 53a:	4000c6b7          	lui	a3,0x4000c
	RF->RF3 = (RF->RF3 & 0xffffffef) | 0x10;
 53e:	01076713          	ori	a4,a4,16
 542:	c7d8                	sw	a4,12(a5)
	RF->RF1 |= 0x1000;
 544:	43d8                	lw	a4,4(a5)
 546:	8f51                	or	a4,a4,a2
 548:	c3d8                	sw	a4,4(a5)
	LL->TMR = 100;
 54a:	4000c7b7          	lui	a5,0x4000c
 54e:	06400713          	li	a4,100
 552:	20078793          	addi	a5,a5,512 # 4000c200 <_eusrstack+0x20009200>
 556:	d3f8                	sw	a4,100(a5)
	while(LL->TMR && ((RF->RXTUNE >> 8) & 1));
 558:	4000d737          	lui	a4,0x4000d
 55c:	20068793          	addi	a5,a3,512 # 4000c200 <_eusrstack+0x20009200>
 560:	53fc                	lw	a5,100(a5)
 562:	c791                	beqz	a5,56e <main+0x30a>
 564:	09c72783          	lw	a5,156(a4) # 4000d09c <_eusrstack+0x2000a09c>
 568:	1007f793          	andi	a5,a5,256
 56c:	fbe5                	bnez	a5,55c <main+0x2f8>
	tuneFilter = RF->RXTUNE & 0x1f;
 56e:	4000d7b7          	lui	a5,0x4000d
 572:	08078713          	addi	a4,a5,128 # 4000d080 <_eusrstack+0x2000a080>
 576:	4f54                	lw	a3,28(a4)
 578:	c0818713          	addi	a4,gp,-1016 # 20000004 <tuneFilter>
 57c:	8afd                	andi	a3,a3,31
 57e:	c314                	sw	a3,0(a4)
	RF->RF20 |= 0x10000;
 580:	4bb4                	lw	a3,80(a5)
 582:	6641                	lui	a2,0x10
 584:	8ed1                	or	a3,a3,a2
 586:	cbb4                	sw	a3,80(a5)
	RF->RF20 = (RF->RF20 & 0xffffffe0) | tuneFilter;
 588:	4bb4                	lw	a3,80(a5)
 58a:	4310                	lw	a2,0(a4)
 58c:	9a81                	andi	a3,a3,-32
 58e:	8ed1                	or	a3,a3,a2
 590:	cbb4                	sw	a3,80(a5)
	RF->RF2 &= 0xffdfffff;
 592:	4794                	lw	a3,8(a5)
 594:	ffe00637          	lui	a2,0xffe00
 598:	167d                	addi	a2,a2,-1
 59a:	8ef1                	and	a3,a3,a2
 59c:	c794                	sw	a3,8(a5)
	tuneFilter2M = (tuneFilter +2 < 0x1f) ? (tuneFilter +2) : 0x1f;
 59e:	4314                	lw	a3,0(a4)
 5a0:	4679                	li	a2,30
 5a2:	47fd                	li	a5,31
 5a4:	0689                	addi	a3,a3,2
 5a6:	00d66463          	bltu	a2,a3,5ae <main+0x34a>
 5aa:	431c                	lw	a5,0(a4)
 5ac:	0789                	addi	a5,a5,2
 5ae:	c0f1a623          	sw	a5,-1012(gp) # 20000008 <tuneFilter2M>
	RF->RF22 &= 0xfffeffff;
 5b2:	4000d7b7          	lui	a5,0x4000d
 5b6:	4fb8                	lw	a4,88(a5)
 5b8:	76c1                	lui	a3,0xffff0
 5ba:	16fd                	addi	a3,a3,-1
 5bc:	8f75                	and	a4,a4,a3
 5be:	cfb8                	sw	a4,88(a5)
	RF->RF2 |= 0x10000;
 5c0:	4798                	lw	a4,8(a5)
 5c2:	66c1                	lui	a3,0x10
	RFEND_TXTune();
	RFEND_RXTune();
	DevSetMode(0);
 5c4:	4501                	li	a0,0
	RF->RF2 |= 0x10000;
 5c6:	8f55                	or	a4,a4,a3
 5c8:	c798                	sw	a4,8(a5)
	RF->RF3 = (RF->RF3 & 0xfffffeff) | 0x100;
 5ca:	47d8                	lw	a4,12(a5)
	RF->RF1 = (RF->RF1 & 0xfffeffff) | 0x100000;
 5cc:	ffef06b7          	lui	a3,0xffef0
 5d0:	16fd                	addi	a3,a3,-1
	RF->RF3 = (RF->RF3 & 0xfffffeff) | 0x100;
 5d2:	10076713          	ori	a4,a4,256
 5d6:	c7d8                	sw	a4,12(a5)
	RF->RF1 = (RF->RF1 & 0xfffeffff) | 0x100000;
 5d8:	43d8                	lw	a4,4(a5)
 5da:	8f75                	and	a4,a4,a3
 5dc:	001006b7          	lui	a3,0x100
 5e0:	8f55                	or	a4,a4,a3
 5e2:	c3d8                	sw	a4,4(a5)
	DevSetMode(0);
 5e4:	3475                	jal	90 <DevSetMode>
	NVIC->IENR[0] = 0x1000;
	NVIC->IRER[0] = 0x1000;
#endif
	DevInit(TxPower);
	RegInit();
	NVIC->IPRIOR[0x15] |= 0x80;
 5e6:	e000e737          	lui	a4,0xe000e
 5ea:	41574783          	lbu	a5,1045(a4) # e000e415 <_eusrstack+0xc000b415>
 5ee:	f807e793          	ori	a5,a5,-128
 5f2:	0ff7f793          	andi	a5,a5,255
 5f6:	40f70aa3          	sb	a5,1045(a4)
	NVIC->IENR[((uint32_t)(IRQn) >> 5)] = (1 << ((uint32_t)(IRQn) & 0x1F));
 5fa:	002007b7          	lui	a5,0x200
 5fe:	10f72023          	sw	a5,256(a4)

  uint8_t magic_packet[] = {0xCA, 0xFE, 0xBA, 0xBE}; // 4 bytes magic

  while (1) {
    // Check Button (High = Pressed)
    if (funDigitalRead(BTN_PIN) == 1) {
 602:	400017b7          	lui	a5,0x40001
 606:	0a47a703          	lw	a4,164(a5) # 400010a4 <_eusrstack+0x1fffe0a4>
 60a:	bff5                	j	606 <main+0x3a2>

0000060c <LLE_IRQHandler>:
void LLE_IRQHandler() {
 60c:	715d                	addi	sp,sp,-80
 60e:	dc26                	sw	s1,56(sp)
		LL->STATUS &= LL->INT_EN;
 610:	4000c4b7          	lui	s1,0x4000c
void LLE_IRQHandler() {
 614:	de22                	sw	s0,60(sp)
		LL->STATUS &= LL->INT_EN;
 616:	20048413          	addi	s0,s1,512 # 4000c200 <_eusrstack+0x20009200>
void LLE_IRQHandler() {
 61a:	d23a                	sw	a4,36(sp)
 61c:	d03e                	sw	a5,32(sp)
		LL->STATUS &= LL->INT_EN;
 61e:	4458                	lw	a4,12(s0)
 620:	441c                	lw	a5,8(s0)
void LLE_IRQHandler() {
 622:	da2a                	sw	a0,52(sp)
 624:	c686                	sw	ra,76(sp)
 626:	c496                	sw	t0,72(sp)
 628:	c29a                	sw	t1,68(sp)
 62a:	c09e                	sw	t2,64(sp)
 62c:	d82e                	sw	a1,48(sp)
 62e:	d632                	sw	a2,44(sp)
 630:	d436                	sw	a3,40(sp)
 632:	ce42                	sw	a6,28(sp)
 634:	cc46                	sw	a7,24(sp)
 636:	ca72                	sw	t3,20(sp)
 638:	c876                	sw	t4,16(sp)
 63a:	c67a                	sw	t5,12(sp)
 63c:	c47e                	sw	t6,8(sp)
		LL->STATUS &= LL->INT_EN;
 63e:	8ff9                	and	a5,a5,a4
 640:	c41c                	sw	a5,8(s0)
		BB->CTRL_TX = (BB->CTRL_TX & 0xfffffffc) | 1;
 642:	10048713          	addi	a4,s1,256
 646:	5b5c                	lw	a5,52(a4)
	DevSetMode(0);
 648:	4501                	li	a0,0
		BB->CTRL_TX = (BB->CTRL_TX & 0xfffffffc) | 1;
 64a:	9bf1                	andi	a5,a5,-4
 64c:	0017e793          	ori	a5,a5,1
 650:	db5c                	sw	a5,52(a4)
	DevSetMode(0);
 652:	3c3d                	jal	90 <DevSetMode>
	LL->CTRL_MOD &= CTRL_MOD_RFSTOP;
 654:	483c                	lw	a5,80(s0)
	rx_ready = 1;
 656:	4705                	li	a4,1
}
 658:	40b6                	lw	ra,76(sp)
	LL->CTRL_MOD &= CTRL_MOD_RFSTOP;
 65a:	8ff7f793          	andi	a5,a5,-1793
 65e:	c83c                	sw	a5,80(s0)
	LL->LL0 |= 0x08;
 660:	2004a783          	lw	a5,512(s1)
}
 664:	5472                	lw	s0,60(sp)
 666:	42a6                	lw	t0,72(sp)
	LL->LL0 |= 0x08;
 668:	0087e793          	ori	a5,a5,8
 66c:	20f4a023          	sw	a5,512(s1)
	rx_ready = 1;
 670:	c0e1a223          	sw	a4,-1020(gp) # 20000000 <rx_ready>
}
 674:	4316                	lw	t1,68(sp)
 676:	4386                	lw	t2,64(sp)
 678:	54e2                	lw	s1,56(sp)
 67a:	5552                	lw	a0,52(sp)
 67c:	55c2                	lw	a1,48(sp)
 67e:	5632                	lw	a2,44(sp)
 680:	56a2                	lw	a3,40(sp)
 682:	5712                	lw	a4,36(sp)
 684:	5782                	lw	a5,32(sp)
 686:	4872                	lw	a6,28(sp)
 688:	48e2                	lw	a7,24(sp)
 68a:	4e52                	lw	t3,20(sp)
 68c:	4ec2                	lw	t4,16(sp)
 68e:	4f32                	lw	t5,12(sp)
 690:	4fa2                	lw	t6,8(sp)
 692:	6161                	addi	sp,sp,80
 694:	30200073          	mret

00000698 <channel_map>:
 698:	04030201 08070605 0d0c0a09 11100f0e     ................
 6a8:	15141312 19181716 1d1c1b1a 21201f1e     .............. !
 6b8:	25242322 270b0026                       "#$%&..'
