
Discarded input sections

 .text          0x0000000000000000        0x0 C:\Users\LRNA\AppData\Local\Temp\drv8835stepper.elf.heIdsr.ltrans0.ltrans.o
 .data          0x0000000000000000        0x0 C:\Users\LRNA\AppData\Local\Temp\drv8835stepper.elf.heIdsr.ltrans0.ltrans.o
 .bss           0x0000000000000000        0x0 C:\Users\LRNA\AppData\Local\Temp\drv8835stepper.elf.heIdsr.ltrans0.ltrans.o
 .text.mini_pad
                0x0000000000000000       0xa0 C:\Users\LRNA\AppData\Local\Temp\drv8835stepper.elf.heIdsr.ltrans0.ltrans.o
 .text._puts    0x0000000000000000       0x42 C:\Users\LRNA\AppData\Local\Temp\drv8835stepper.elf.heIdsr.ltrans0.ltrans.o
 .text.mini_itoa.part.0
                0x0000000000000000       0x8e C:\Users\LRNA\AppData\Local\Temp\drv8835stepper.elf.heIdsr.ltrans0.ltrans.o
 .text.__puts_uart
                0x0000000000000000       0x20 C:\Users\LRNA\AppData\Local\Temp\drv8835stepper.elf.heIdsr.ltrans0.ltrans.o
 .text.strlen   0x0000000000000000       0x12 C:\Users\LRNA\AppData\Local\Temp\drv8835stepper.elf.heIdsr.ltrans0.ltrans.o
 .text.mini_vpprintf
                0x0000000000000000      0x1d6 C:\Users\LRNA\AppData\Local\Temp\drv8835stepper.elf.heIdsr.ltrans0.ltrans.o
 .text.printf   0x0000000000000000       0x30 C:\Users\LRNA\AppData\Local\Temp\drv8835stepper.elf.heIdsr.ltrans0.ltrans.o
 .text.vprintf  0x0000000000000000       0x16 C:\Users\LRNA\AppData\Local\Temp\drv8835stepper.elf.heIdsr.ltrans0.ltrans.o
 .text.mini_vsnprintf
                0x0000000000000000       0x3a C:\Users\LRNA\AppData\Local\Temp\drv8835stepper.elf.heIdsr.ltrans0.ltrans.o
 .text.snprintf
                0x0000000000000000       0x20 C:\Users\LRNA\AppData\Local\Temp\drv8835stepper.elf.heIdsr.ltrans0.ltrans.o
 .text.sprintf  0x0000000000000000       0x2c C:\Users\LRNA\AppData\Local\Temp\drv8835stepper.elf.heIdsr.ltrans0.ltrans.o
 .text.strcpy   0x0000000000000000       0x14 C:\Users\LRNA\AppData\Local\Temp\drv8835stepper.elf.heIdsr.ltrans0.ltrans.o
 .text.strncpy  0x0000000000000000       0x1c C:\Users\LRNA\AppData\Local\Temp\drv8835stepper.elf.heIdsr.ltrans0.ltrans.o
 .text.strcmp   0x0000000000000000       0x1a C:\Users\LRNA\AppData\Local\Temp\drv8835stepper.elf.heIdsr.ltrans0.ltrans.o
 .text.strncmp  0x0000000000000000       0x2e C:\Users\LRNA\AppData\Local\Temp\drv8835stepper.elf.heIdsr.ltrans0.ltrans.o
 .text.strchr   0x0000000000000000       0x16 C:\Users\LRNA\AppData\Local\Temp\drv8835stepper.elf.heIdsr.ltrans0.ltrans.o
 .text.strrchr  0x0000000000000000       0x3c C:\Users\LRNA\AppData\Local\Temp\drv8835stepper.elf.heIdsr.ltrans0.ltrans.o
 .text.memcpy   0x0000000000000000       0x1c C:\Users\LRNA\AppData\Local\Temp\drv8835stepper.elf.heIdsr.ltrans0.ltrans.o
 .text.memcmp   0x0000000000000000       0x26 C:\Users\LRNA\AppData\Local\Temp\drv8835stepper.elf.heIdsr.ltrans0.ltrans.o
 .text.memmove  0x0000000000000000       0x5e C:\Users\LRNA\AppData\Local\Temp\drv8835stepper.elf.heIdsr.ltrans0.ltrans.o
 .text.memchr   0x0000000000000000       0x1c C:\Users\LRNA\AppData\Local\Temp\drv8835stepper.elf.heIdsr.ltrans0.ltrans.o
 .text.strnlen  0x0000000000000000       0x2a C:\Users\LRNA\AppData\Local\Temp\drv8835stepper.elf.heIdsr.ltrans0.ltrans.o
 .text.twoway_strstr
                0x0000000000000000      0x254 C:\Users\LRNA\AppData\Local\Temp\drv8835stepper.elf.heIdsr.ltrans0.ltrans.o
 .text.strstr   0x0000000000000000      0x13a C:\Users\LRNA\AppData\Local\Temp\drv8835stepper.elf.heIdsr.ltrans0.ltrans.o
 .rodata.puts.str1.4
                0x0000000000000000        0x2 C:\Users\LRNA\AppData\Local\Temp\drv8835stepper.elf.heIdsr.ltrans0.ltrans.o
 .text.puts     0x0000000000000000       0x40 C:\Users\LRNA\AppData\Local\Temp\drv8835stepper.elf.heIdsr.ltrans0.ltrans.o
 .comment       0x0000000000000000       0x13 C:\Users\LRNA\AppData\Local\Temp\drv8835stepper.elf.heIdsr.ltrans0.ltrans.o
 .comment       0x0000000000000000       0x13 C:\Users\LRNA\AppData\Local\Temp\ccR91FO4.debug.temp.o
 .comment       0x0000000000000000       0x13 C:\Users\LRNA\AppData\Local\Temp\cciYqV3p.debug.temp.o

Memory Configuration

Name             Origin             Length             Attributes
FLASH            0x0000000000000000 0x000000000003c000 xr
RAM              0x0000000020000000 0x0000000000003000 xrw
*default*        0x0000000000000000 0xffffffffffffffff

Linker script and memory map

LOAD C:\Users\LRNA\AppData\Local\Temp\ccX2Wgrl.o
LOAD C:\Users\LRNA\AppData\Local\Temp\drv8835stepper.elf.heIdsr.ltrans0.ltrans.o
LOAD C:\Users\LRNA\AppData\Local\Temp\ccR91FO4.debug.temp.o
LOAD C:\Users\LRNA\AppData\Local\Temp\cciYqV3p.debug.temp.o
LOAD C:\Users\LRNA\AppData\Local\Temp\ccea128u.o
LOAD c:/sysgcc/risc-v/bin/../lib/gcc/riscv64-unknown-elf/10.1.0/rv32imac/ilp32\libgcc.a

.init           0x0000000000000000       0x90
                0x0000000000000000                _sinit = .
                0x0000000000000000                . = ALIGN (0x4)
 *(SORT_NONE(.init))
 .init          0x0000000000000000       0x90 C:\Users\LRNA\AppData\Local\Temp\drv8835stepper.elf.heIdsr.ltrans0.ltrans.o
                0x0000000000000000                InterruptVector
                0x0000000000000090                . = ALIGN (0x4)
                0x0000000000000090                _einit = .

.highcodelalign
                0x0000000000000090        0x0
                0x0000000000000090                . = ALIGN (0x4)
                0x0000000000000090                PROVIDE (_highcode_lma = .)

.highcode       0x0000000020000000      0x2b0 load address 0x0000000000000090
                0x0000000020000000                . = ALIGN (0x4)
                0x0000000020000000                PROVIDE (_highcode_vma_start = .)
 *(.highcode*)
 .highcode      0x0000000020000000      0x2ae C:\Users\LRNA\AppData\Local\Temp\drv8835stepper.elf.heIdsr.ltrans0.ltrans.o
                0x0000000020000000                iSLERRSSI
                0x0000000020000010                iSLERCRCOK
                0x0000000020000028                iSLERTX
                0x0000000020000162                iSLERRX
                0x00000000200002b0                . = ALIGN (0x4)
 *fill*         0x00000000200002ae        0x2 
                0x00000000200002b0                PROVIDE (_highcode_vma_end = .)

.text           0x0000000000000340      0x95c
                0x0000000000000340                . = ALIGN (0x4)
 *(.text)
 *(.text.*)
 .text.DevSetMode
                0x0000000000000340       0x52 C:\Users\LRNA\AppData\Local\Temp\drv8835stepper.elf.heIdsr.ltrans0.ltrans.o
 .text.RFEND_TXCTune
                0x0000000000000392       0x8a C:\Users\LRNA\AppData\Local\Temp\drv8835stepper.elf.heIdsr.ltrans0.ltrans.o
 .text.DevSetChannel
                0x000000000000041c       0x22 C:\Users\LRNA\AppData\Local\Temp\drv8835stepper.elf.heIdsr.ltrans0.ltrans.o
 .text.run_stepper
                0x000000000000043e       0xe0 C:\Users\LRNA\AppData\Local\Temp\drv8835stepper.elf.heIdsr.ltrans0.ltrans.o
 .text.funPinMode.constprop.0
                0x000000000000051e       0x16 C:\Users\LRNA\AppData\Local\Temp\drv8835stepper.elf.heIdsr.ltrans0.ltrans.o
 .text.handle_reset
                0x0000000000000534       0xaa C:\Users\LRNA\AppData\Local\Temp\drv8835stepper.elf.heIdsr.ltrans0.ltrans.o
                0x0000000000000534                handle_reset
 .text.vector_handler
                0x00000000000005de        0x2 C:\Users\LRNA\AppData\Local\Temp\drv8835stepper.elf.heIdsr.ltrans0.ltrans.o
                0x00000000000005de                EXTI2_IRQHandler
                0x00000000000005de                TIM8_TRG_COM_IRQHandler
                0x00000000000005de                TIM8_CC_IRQHandler
                0x00000000000005de                USART_WKUP_IRQHandler
                0x00000000000005de                UART8_IRQHandler
                0x00000000000005de                SPI4_IRQHandler
                0x00000000000005de                NFC_IRQHandler
                0x00000000000005de                DFSDM0_IRQHandler
                0x00000000000005de                TIM1_CC_IRQHandler
                0x00000000000005de                HardFault_Handler
                0x00000000000005de                TIM10_IRQHandler
                0x00000000000005de                GPIOB_IRQHandler
                0x00000000000005de                IPC_CH2_Handler
                0x00000000000005de                USBPD_IRQHandler
                0x00000000000005de                TIM6_IRQHandler
                0x00000000000005de                GPIOA_IRQHandler
                0x00000000000005de                SysTick_Handler
                0x00000000000005de                CAN3_RX1_IRQHandler
                0x00000000000005de                I3C_ER_IRQHandler
                0x00000000000005de                PVD_IRQHandler
                0x00000000000005de                SDIO_IRQHandler
                0x00000000000005de                TIM9_BRK_IRQHandler
                0x00000000000005de                DMA2_Channel8_IRQHandler
                0x00000000000005de                NMI_Handler
                0x00000000000005de                CAN2_RX1_IRQHandler
                0x00000000000005de                EXTI3_IRQHandler
                0x00000000000005de                HSEM_Handler
                0x00000000000005de                UART1_IRQHandler
                0x00000000000005de                USBHS_IRQHandler
                0x00000000000005de                LPTIM2_IRQHandler
                0x00000000000005de                DMA2_Channel9_IRQHandler
                0x00000000000005de                TIM10_CC_IRQHandler
                0x00000000000005de                EXTI25_16_IRQHandler
                0x00000000000005de                I2C3_ER_IRQHandler
                0x00000000000005de                USBFS_IRQHandler
                0x00000000000005de                UART0_IRQHandler
                0x00000000000005de                USART8_IRQHandler
                0x00000000000005de                EXTI0_IRQHandler
                0x00000000000005de                I2C2_EV_IRQHandler
                0x00000000000005de                TIM10_TRG_COM_IRQHandler
                0x00000000000005de                LPTIM_IRQHandler
                0x00000000000005de                CAN1_RX0_IRQHandler
                0x00000000000005de                CAN3_SCE_IRQHandler
                0x00000000000005de                CAN2_SCE_IRQHandler
                0x00000000000005de                ADC1_2_IRQHandler
                0x00000000000005de                BB_IRQHandler
                0x00000000000005de                Break_Point_Handler
                0x00000000000005de                IPC_CH0_Handler
                0x00000000000005de                TIM2_CC_IRQHandler
                0x00000000000005de                SPI1_IRQHandler
                0x00000000000005de                USART5_IRQHandler
                0x00000000000005de                TAMPER_IRQHandler
                0x00000000000005de                TMR0_IRQHandler
                0x00000000000005de                AWU_IRQHandler
                0x00000000000005de                EXTI7_0_IRQHandler
                0x00000000000005de                CAN2_RX0_IRQHandler
                0x00000000000005de                OSCWakeUp_IRQHandler
                0x00000000000005de                TIM8_UP_IRQHandler
                0x00000000000005de                Ecall_M_Mode_Handler
                0x00000000000005de                ECDC_IRQHandler
                0x00000000000005de                SDMMC_IRQHandler
                0x00000000000005de                USART7_IRQHandler
                0x00000000000005de                DMA2_Channel2_IRQHandler
                0x00000000000005de                DMA1_Channel4_IRQHandler
                0x00000000000005de                ADC1_IRQHandler
                0x00000000000005de                TIM2_BRK_IRQHandler
                0x00000000000005de                USART6_IRQHandler
                0x00000000000005de                CAN3_RX0_IRQHandler
                0x00000000000005de                HSADC_IRQHandler
                0x00000000000005de                TIM9_UP_IRQHandler
                0x00000000000005de                USART3_IRQHandler
                0x00000000000005de                RTC_IRQHandler
                0x00000000000005de                DMA1_Channel7_IRQHandler
                0x00000000000005de                LED_IRQHandler
                0x00000000000005de                CAN1_RX1_IRQHandler
                0x00000000000005de                DVP_IRQHandler
                0x00000000000005de                UART5_IRQHandler
                0x00000000000005de                USBSS_IRQHandler
                0x00000000000005de                SWPMI_IRQHandler
                0x00000000000005de                USBPDWakeUp_IRQHandler
                0x00000000000005de                EXTI15_8_IRQHandler
                0x00000000000005de                TIM4_IRQHandler
                0x00000000000005de                DMA2_Channel1_IRQHandler
                0x00000000000005de                SWPMI_WKUP_IRQHandler
                0x00000000000005de                USBPD_WKUP_IRQHandler
                0x00000000000005de                I2C1_EV_IRQHandler
                0x00000000000005de                USBSSWakeup_IRQHandler
                0x00000000000005de                UART2_IRQHandler
                0x00000000000005de                USART4_IRQHandler
                0x00000000000005de                PWMX_IRQHandler
                0x00000000000005de                DMA1_Channel6_IRQHandler
                0x00000000000005de                UART4_IRQHandler
                0x00000000000005de                DMA2_Channel4_IRQHandler
                0x00000000000005de                TIM3_IRQHandler
                0x00000000000005de                RCC_IRQHandler
                0x00000000000005de                TIM1_TRG_COM_IRQHandler
                0x00000000000005de                DMA1_Channel1_IRQHandler
                0x00000000000005de                DMA2_Channel7_IRQHandler
                0x00000000000005de                QSPI1_IRQHandler
                0x00000000000005de                EXTI15_10_IRQHandler
                0x00000000000005de                ADC_IRQHandler
                0x00000000000005de                IPC_CH3_Handler
                0x00000000000005de                DMA1_Channel8_IRQHandler
                0x00000000000005de                I3C_EV_IRQHandler
                0x00000000000005de                TMR2_IRQHandler
                0x00000000000005de                I3C_WKUP_IRQHandler
                0x00000000000005de                DefaultIRQHandler
                0x00000000000005de                TIM12_IRQHandler
                0x00000000000005de                TIM7_IRQHandler
                0x00000000000005de                CAN2_TX_IRQHandler
                0x00000000000005de                TIM5_IRQHandler
                0x00000000000005de                I2C3_EV_IRQHandler
                0x00000000000005de                USB_IRQHandler
                0x00000000000005de                EXTI9_5_IRQHandler
                0x00000000000005de                PIOC_IRQHandler
                0x00000000000005de                TIM9_IRQHandler
                0x00000000000005de                LTDC_IRQHandler
                0x00000000000005de                SAI_IRQHandler
                0x00000000000005de                SPI2_IRQHandler
                0x00000000000005de                OSC32KCal_IRQHandler
                0x00000000000005de                IPC_CH1_Handler
                0x00000000000005de                I2C_IRQHandler
                0x00000000000005de                LPTIM1_WKUP_IRQHandler
                0x00000000000005de                TIM10_BRK_IRQHandler
                0x00000000000005de                TIM9_CC_IRQHandler
                0x00000000000005de                CAN1_TX_IRQHandler
                0x00000000000005de                DMA2_Channel5_IRQHandler
                0x00000000000005de                USB2_IRQHandler
                0x00000000000005de                USBHSWakeUp_IRQHandler
                0x00000000000005de                DMA1_Channel5_IRQHandler
                0x00000000000005de                EXTI4_IRQHandler
                0x00000000000005de                USB_LP_CAN1_RX0_IRQHandler
                0x00000000000005de                QSPI2_IRQHandler
                0x00000000000005de                RNG_IRQHandler
                0x00000000000005de                USB_HP_CAN1_TX_IRQHandler
                0x00000000000005de                CMPWakeUp_IRQHandler
                0x00000000000005de                DMA1_Channel3_IRQHandler
                0x00000000000005de                FSMC_IRQHandler
                0x00000000000005de                ETH_IRQHandler
                0x00000000000005de                TIM1_UP_IRQHandler
                0x00000000000005de                LPTIMWakeUp_IRQHandler
                0x00000000000005de                WWDG_IRQHandler
                0x00000000000005de                USBHSWakeup_IRQHandler
                0x00000000000005de                DMA2_Channel11_IRQHandler
                0x00000000000005de                WDOG_BAT_IRQHandler
                0x00000000000005de                Ecall_U_Mode_Handler
                0x00000000000005de                I2C4_EV_IRQHandler
                0x00000000000005de                CAN3_TX_IRQHandler
                0x00000000000005de                TMR3_IRQHandler
                0x00000000000005de                DMA2_Channel6_IRQHandler
                0x00000000000005de                TIM2_IRQHandler
                0x00000000000005de                SW_Handler
                0x00000000000005de                TIM1_BRK_IRQHandler
                0x00000000000005de                GPHA_IRQHandler
                0x00000000000005de                OPA_IRQHandler
                0x00000000000005de                DMA2_Channel10_IRQHandler
                0x00000000000005de                EXTI1_IRQHandler
                0x00000000000005de                SPI0_IRQHandler
                0x00000000000005de                USB2_HOST_IRQHandler
                0x00000000000005de                LPTIM2_WKUP_IRQHandler
                0x00000000000005de                RTCAlarm_IRQHandler
                0x00000000000005de                TIM11_IRQHandler
                0x00000000000005de                TIM10_UP_IRQHandler
                0x00000000000005de                TIM9_TRG_COM_IRQHandler
                0x00000000000005de                UART7_IRQHandler
                0x00000000000005de                USART2_IRQHandler
                0x00000000000005de                UART6_IRQHandler
                0x00000000000005de                UHSIF_IRQHandler
                0x00000000000005de                ETHWakeUp_IRQHandler
                0x00000000000005de                I2C2_ER_IRQHandler
                0x00000000000005de                DMA1_Channel2_IRQHandler
                0x00000000000005de                TIM8_BRK_IRQHandler
                0x00000000000005de                TIM2_TRG_IRQHandler
                0x00000000000005de                CAN1_SCE_IRQHandler
                0x00000000000005de                FLASH_IRQHandler
                0x00000000000005de                USBFSWakeUp_IRQHandler
                0x00000000000005de                USART1_IRQHandler
                0x00000000000005de                OTG_FS_IRQHandler
                0x00000000000005de                SPI3_IRQHandler
                0x00000000000005de                USBFS_WakeUp_IRQHandler
                0x00000000000005de                UART3_IRQHandler
                0x00000000000005de                I2C1_ER_IRQHandler
                0x00000000000005de                FMC_IRQHandler
                0x00000000000005de                USB2_DEVICE_IRQHandler
                0x00000000000005de                LPTIM1_IRQHandler
                0x00000000000005de                DFSDM1_IRQHandler
                0x00000000000005de                TMR1_IRQHandler
                0x00000000000005de                I2C4_ER_IRQHandler
                0x00000000000005de                SERDES_IRQHandler
                0x00000000000005de                USBSS_LINK_IRQHandler
                0x00000000000005de                USBWakeUp_IRQHandler
                0x00000000000005de                DMA2_Channel3_IRQHandler
 .text.memset   0x00000000000005e0       0x12 C:\Users\LRNA\AppData\Local\Temp\drv8835stepper.elf.heIdsr.ltrans0.ltrans.o
                0x00000000000005e0                memset
 .text.SystemInit
                0x00000000000005f2       0x68 C:\Users\LRNA\AppData\Local\Temp\drv8835stepper.elf.heIdsr.ltrans0.ltrans.o
                0x00000000000005f2                SystemInit
 .text.LLE_IRQHandler
                0x000000000000065a       0x9c C:\Users\LRNA\AppData\Local\Temp\drv8835stepper.elf.heIdsr.ltrans0.ltrans.o
 .text.startup.main
                0x00000000000006f6      0x57e C:\Users\LRNA\AppData\Local\Temp\drv8835stepper.elf.heIdsr.ltrans0.ltrans.o
                0x00000000000006f6                main
 *(.rodata)
 *(.rodata*)
 *fill*         0x0000000000000c74        0x0 
 .rodata.channel_map
                0x0000000000000c74       0x28 C:\Users\LRNA\AppData\Local\Temp\drv8835stepper.elf.heIdsr.ltrans0.ltrans.o
 *(.gnu.linkonce.t.*)
                0x0000000000000c9c                . = ALIGN (0x4)

.rela.dyn       0x0000000000000c9c        0x0
 .rela.text.handle_reset
                0x0000000000000c9c        0x0 C:\Users\LRNA\AppData\Local\Temp\drv8835stepper.elf.heIdsr.ltrans0.ltrans.o
 .rela.text.startup.main
                0x0000000000000c9c        0x0 C:\Users\LRNA\AppData\Local\Temp\drv8835stepper.elf.heIdsr.ltrans0.ltrans.o

.fini           0x0000000000000c9c        0x0
 *(SORT_NONE(.fini))
                0x0000000000000c9c                . = ALIGN (0x4)
                [!provide]                        PROVIDE (_etext = .)
                [!provide]                        PROVIDE (_eitcm = .)

.preinit_array  0x0000000000000c9c        0x0
                [!provide]                        PROVIDE (__preinit_array_start = .)
 *(.preinit_array)
                [!provide]                        PROVIDE (__preinit_array_end = .)

.init_array     0x0000000000000c9c        0x0
                [!provide]                        PROVIDE (__init_array_start = .)
 *(SORT_BY_INIT_PRIORITY(.init_array.*) SORT_BY_INIT_PRIORITY(.ctors.*))
 *(.init_array EXCLUDE_FILE(*crtend?.o *crtend.o *crtbegin?.o *crtbegin.o) .ctors)
                [!provide]                        PROVIDE (__init_array_end = .)

.fini_array     0x0000000000000c9c        0x0
                [!provide]                        PROVIDE (__fini_array_start = .)
 *(SORT_BY_INIT_PRIORITY(.fini_array.*) SORT_BY_INIT_PRIORITY(.dtors.*))
 *(.fini_array EXCLUDE_FILE(*crtend?.o *crtend.o *crtbegin?.o *crtbegin.o) .dtors)
                [!provide]                        PROVIDE (__fini_array_end = .)

.ctors
 *crtbegin.o(.ctors)
 *crtbegin?.o(.ctors)
 *(EXCLUDE_FILE(*crtend?.o *crtend.o) .ctors)
 *(SORT_BY_NAME(.ctors.*))
 *(.ctors)

.dtors
 *crtbegin.o(.dtors)
 *crtbegin?.o(.dtors)
 *(EXCLUDE_FILE(*crtend?.o *crtend.o) .dtors)
 *(SORT_BY_NAME(.dtors.*))
 *(.dtors)

.dalign         0x00000000200002b0        0x0 load address 0x0000000000000c9c
                0x00000000200002b0                . = ALIGN (0x4)
                0x00000000200002b0                PROVIDE (_data_vma = .)

.dlalign        0x0000000000000c9c        0x0
                0x0000000000000c9c                . = ALIGN (0x4)
                0x0000000000000c9c                PROVIDE (_data_lma = .)

.data           0x00000000200002b0       0x40 load address 0x0000000000000c9c
                0x00000000200002b0                . = ALIGN (0x4)
                0x00000000200006ac                __global_pointer$ = (. + 0x3fc)
 *(.gnu.linkonce.r.*)
 *(.data .data.*)
 .data.motor1   0x00000000200002b0       0x20 C:\Users\LRNA\AppData\Local\Temp\drv8835stepper.elf.heIdsr.ltrans0.ltrans.o
 .data.motor2   0x00000000200002d0       0x20 C:\Users\LRNA\AppData\Local\Temp\drv8835stepper.elf.heIdsr.ltrans0.ltrans.o
 *(.gnu.linkonce.d.*)
                0x00000000200002f0                . = ALIGN (0x8)
 *fill*         0x00000000200002f0        0x0 
 *(.sdata .sdata.*)
 *(.sdata2*)
 *(.gnu.linkonce.s.*)
                0x00000000200002f0                . = ALIGN (0x8)
 *(.srodata.cst16)
 *(.srodata.cst8)
 *(.srodata.cst4)
 *(.srodata.cst2)
 *(.srodata .srodata.*)
                0x00000000200002f0                . = ALIGN (0x4)
                0x00000000200002f0                PROVIDE (_edata = .)

.bss            0x00000000200002f0      0x44c load address 0x0000000000000cdc
                0x00000000200002f0                . = ALIGN (0x4)
                0x00000000200002f0                PROVIDE (_sbss = .)
 *(.sbss*)
 .sbss.rx_ready
                0x00000000200002f0        0x4 C:\Users\LRNA\AppData\Local\Temp\drv8835stepper.elf.heIdsr.ltrans0.ltrans.o
 .sbss.tuneFilter
                0x00000000200002f4        0x4 C:\Users\LRNA\AppData\Local\Temp\drv8835stepper.elf.heIdsr.ltrans0.ltrans.o
 .sbss.tuneFilter2M
                0x00000000200002f8        0x4 C:\Users\LRNA\AppData\Local\Temp\drv8835stepper.elf.heIdsr.ltrans0.ltrans.o
 *(.gnu.linkonce.sb.*)
 *(.bss*)
 .bss.LLE_BUF   0x00000000200002fc      0x440 C:\Users\LRNA\AppData\Local\Temp\drv8835stepper.elf.heIdsr.ltrans0.ltrans.o
 *(.gnu.linkonce.b.*)
 *(COMMON*)
                0x000000002000073c                . = ALIGN (0x4)
                0x000000002000073c                PROVIDE (_ebss = .)
                [!provide]                        PROVIDE (_end = _ebss)
                [!provide]                        PROVIDE (end = .)
                0x0000000020003000                PROVIDE (_eusrstack = (ORIGIN (RAM) + LENGTH (RAM)))

/DISCARD/
 *(.note .note.*)
 *(.eh_frame .eh_frame.*)
 *(.comment .comment.*)
 *(.ARM.extab* .gnu.linkonce.armextab.*)
 *(.ARM.exidx*)
OUTPUT(drv8835stepper.elf elf32-littleriscv)

.riscv.attributes
                0x0000000000000000       0x2b
 .riscv.attributes
                0x0000000000000000       0x2b C:\Users\LRNA\AppData\Local\Temp\drv8835stepper.elf.heIdsr.ltrans0.ltrans.o

.debug_info     0x0000000000000000     0x32ba
 .debug_info    0x0000000000000000     0x1606 C:\Users\LRNA\AppData\Local\Temp\drv8835stepper.elf.heIdsr.ltrans0.ltrans.o
 .debug_info    0x0000000000001606      0xd4c C:\Users\LRNA\AppData\Local\Temp\ccR91FO4.debug.temp.o
                0x0000000000001606                ch32fun.c.64217e43
 .debug_info    0x0000000000002352      0xf68 C:\Users\LRNA\AppData\Local\Temp\cciYqV3p.debug.temp.o
                0x0000000000002352                drv8835stepper.c.28a5e006

.debug_abbrev   0x0000000000000000      0x6e1
 .debug_abbrev  0x0000000000000000      0x1ed C:\Users\LRNA\AppData\Local\Temp\drv8835stepper.elf.heIdsr.ltrans0.ltrans.o
 .debug_abbrev  0x00000000000001ed      0x263 C:\Users\LRNA\AppData\Local\Temp\ccR91FO4.debug.temp.o
 .debug_abbrev  0x0000000000000450      0x291 C:\Users\LRNA\AppData\Local\Temp\cciYqV3p.debug.temp.o

.debug_loc      0x0000000000000000     0x2641
 .debug_loc     0x0000000000000000     0x2641 C:\Users\LRNA\AppData\Local\Temp\drv8835stepper.elf.heIdsr.ltrans0.ltrans.o

.debug_aranges  0x0000000000000000      0x160
 .debug_aranges
                0x0000000000000000      0x160 C:\Users\LRNA\AppData\Local\Temp\drv8835stepper.elf.heIdsr.ltrans0.ltrans.o

.debug_ranges   0x0000000000000000      0x680
 .debug_ranges  0x0000000000000000      0x680 C:\Users\LRNA\AppData\Local\Temp\drv8835stepper.elf.heIdsr.ltrans0.ltrans.o

.debug_line     0x0000000000000000     0x40c6
 .debug_line    0x0000000000000000     0x3df5 C:\Users\LRNA\AppData\Local\Temp\drv8835stepper.elf.heIdsr.ltrans0.ltrans.o
 .debug_line    0x0000000000003df5      0x181 C:\Users\LRNA\AppData\Local\Temp\ccR91FO4.debug.temp.o
 .debug_line    0x0000000000003f76      0x150 C:\Users\LRNA\AppData\Local\Temp\cciYqV3p.debug.temp.o

.debug_str      0x0000000000000000      0xdd1
 .debug_str     0x0000000000000000      0x173 C:\Users\LRNA\AppData\Local\Temp\drv8835stepper.elf.heIdsr.ltrans0.ltrans.o
                                        0x18e (size before relaxing)
 .debug_str     0x0000000000000173      0x54a C:\Users\LRNA\AppData\Local\Temp\ccR91FO4.debug.temp.o
                                        0x628 (size before relaxing)
 .debug_str     0x00000000000006bd      0x714 C:\Users\LRNA\AppData\Local\Temp\cciYqV3p.debug.temp.o
                                        0x92f (size before relaxing)

.debug_frame    0x0000000000000000      0x4a4
 .debug_frame   0x0000000000000000      0x4a4 C:\Users\LRNA\AppData\Local\Temp\drv8835stepper.elf.heIdsr.ltrans0.ltrans.o
